
robowifi.elf:     file format elf32-avr

Sections:
Idx Name          Size      VMA       LMA       File off  Algn
  0 .data         00000044  00802800  00007a3e  00007af2  2**0
                  CONTENTS, ALLOC, LOAD, DATA
  1 .text         00007888  00000000  00000000  000000b4  2**1
                  CONTENTS, ALLOC, LOAD, READONLY, CODE
  2 .rodata       000001b6  0000b888  00007888  0000793c  2**0
                  CONTENTS, ALLOC, LOAD, READONLY, DATA
  3 .bss          000006e9  00802844  00802844  00007b36  2**0
                  ALLOC
  4 .comment      0000005c  00000000  00000000  00007b36  2**0
                  CONTENTS, READONLY
  5 .note.gnu.avr.deviceinfo 00000040  00000000  00000000  00007b94  2**2
                  CONTENTS, READONLY
  6 .debug_aranges 00000c18  00000000  00000000  00007bd8  2**3
                  CONTENTS, READONLY, DEBUGGING
  7 .debug_info   0000cdfe  00000000  00000000  000087f0  2**0
                  CONTENTS, READONLY, DEBUGGING
  8 .debug_abbrev 00004320  00000000  00000000  000155ee  2**0
                  CONTENTS, READONLY, DEBUGGING
  9 .debug_line   0000760d  00000000  00000000  0001990e  2**0
                  CONTENTS, READONLY, DEBUGGING
 10 .debug_frame  00003298  00000000  00000000  00020f1c  2**2
                  CONTENTS, READONLY, DEBUGGING
 11 .debug_str    0000583a  00000000  00000000  000241b4  2**0
                  CONTENTS, READONLY, DEBUGGING
 12 .debug_loc    00006c9e  00000000  00000000  000299ee  2**0
                  CONTENTS, READONLY, DEBUGGING
 13 .debug_ranges 00000bd0  00000000  00000000  0003068c  2**0
                  CONTENTS, READONLY, DEBUGGING

Disassembly of section .text:

00000000 <__vectors>:
       0:	0c 94 e6 00 	jmp	0x1cc	; 0x1cc <__ctors_end>
       4:	0c 94 03 01 	jmp	0x206	; 0x206 <__bad_interrupt>
       8:	0c 94 03 01 	jmp	0x206	; 0x206 <__bad_interrupt>
       c:	0c 94 2b 0c 	jmp	0x1856	; 0x1856 <__vector_3>
      10:	0c 94 03 01 	jmp	0x206	; 0x206 <__bad_interrupt>
      14:	0c 94 03 01 	jmp	0x206	; 0x206 <__bad_interrupt>
      18:	0c 94 03 01 	jmp	0x206	; 0x206 <__bad_interrupt>
      1c:	0c 94 03 01 	jmp	0x206	; 0x206 <__bad_interrupt>
      20:	0c 94 03 01 	jmp	0x206	; 0x206 <__bad_interrupt>
      24:	0c 94 03 01 	jmp	0x206	; 0x206 <__bad_interrupt>
      28:	0c 94 03 01 	jmp	0x206	; 0x206 <__bad_interrupt>
      2c:	0c 94 03 01 	jmp	0x206	; 0x206 <__bad_interrupt>
      30:	0c 94 03 01 	jmp	0x206	; 0x206 <__bad_interrupt>
      34:	0c 94 03 01 	jmp	0x206	; 0x206 <__bad_interrupt>
      38:	0c 94 03 01 	jmp	0x206	; 0x206 <__bad_interrupt>
      3c:	0c 94 03 01 	jmp	0x206	; 0x206 <__bad_interrupt>
      40:	0c 94 03 01 	jmp	0x206	; 0x206 <__bad_interrupt>
      44:	0c 94 03 01 	jmp	0x206	; 0x206 <__bad_interrupt>
      48:	0c 94 03 01 	jmp	0x206	; 0x206 <__bad_interrupt>
      4c:	0c 94 03 01 	jmp	0x206	; 0x206 <__bad_interrupt>
      50:	0c 94 03 01 	jmp	0x206	; 0x206 <__bad_interrupt>
      54:	0c 94 03 01 	jmp	0x206	; 0x206 <__bad_interrupt>
      58:	0c 94 03 01 	jmp	0x206	; 0x206 <__bad_interrupt>
      5c:	0c 94 03 01 	jmp	0x206	; 0x206 <__bad_interrupt>
      60:	0c 94 d7 0e 	jmp	0x1dae	; 0x1dae <__vector_24>
      64:	0c 94 03 01 	jmp	0x206	; 0x206 <__bad_interrupt>
      68:	0c 94 03 01 	jmp	0x206	; 0x206 <__bad_interrupt>
      6c:	0c 94 03 01 	jmp	0x206	; 0x206 <__bad_interrupt>
      70:	0c 94 03 01 	jmp	0x206	; 0x206 <__bad_interrupt>
      74:	0c 94 03 01 	jmp	0x206	; 0x206 <__bad_interrupt>
      78:	0c 94 03 01 	jmp	0x206	; 0x206 <__bad_interrupt>
      7c:	0c 94 03 01 	jmp	0x206	; 0x206 <__bad_interrupt>
      80:	0c 94 03 01 	jmp	0x206	; 0x206 <__bad_interrupt>
      84:	0c 94 03 01 	jmp	0x206	; 0x206 <__bad_interrupt>
      88:	0c 94 03 01 	jmp	0x206	; 0x206 <__bad_interrupt>
      8c:	0c 94 03 01 	jmp	0x206	; 0x206 <__bad_interrupt>
      90:	0c 94 03 01 	jmp	0x206	; 0x206 <__bad_interrupt>
      94:	0c 94 03 01 	jmp	0x206	; 0x206 <__bad_interrupt>
      98:	0c 94 03 01 	jmp	0x206	; 0x206 <__bad_interrupt>
      9c:	0c 94 03 01 	jmp	0x206	; 0x206 <__bad_interrupt>
      a0:	fd 17       	cp	r31, r29
      a2:	f6 17       	cp	r31, r22
      a4:	0b 18       	sub	r0, r11
      a6:	04 18       	sub	r0, r4
      a8:	20 18       	sub	r2, r0
      aa:	12 18       	sub	r1, r2
      ac:	19 18       	sub	r1, r9
      ae:	c0 26       	eor	r12, r16
      b0:	c0 26       	eor	r12, r16
      b2:	0a 27       	eor	r16, r26
      b4:	96 26       	eor	r9, r22
      b6:	ab 26       	eor	r10, r27
      b8:	b1 26       	eor	r11, r17
      ba:	e1 26       	eor	r14, r17
      bc:	e1 26       	eor	r14, r17
      be:	3a 27       	eor	r19, r26
      c0:	80 26       	eor	r8, r16
      c2:	6c 27       	eor	r22, r28
      c4:	6c 27       	eor	r22, r28
      c6:	6c 27       	eor	r22, r28
      c8:	6c 27       	eor	r22, r28
      ca:	b7 26       	eor	r11, r23

000000cc <__trampolines_end>:
      cc:	00 09       	sbc	r16, r0
      ce:	12 1b       	sub	r17, r18
      d0:	24 2d       	mov	r18, r4
      d2:	36 3f       	cpi	r19, 0xF6	; 246
      d4:	48 41       	sbci	r20, 0x18	; 24
      d6:	5a 53       	subi	r21, 0x3A	; 58
      d8:	6c 65       	ori	r22, 0x5C	; 92
      da:	7e 77       	andi	r23, 0x7E	; 126
      dc:	19 10       	cpse	r1, r9
      de:	0b 02       	muls	r16, r27
      e0:	3d 34       	cpi	r19, 0x4D	; 77
      e2:	2f 26       	eor	r2, r31
      e4:	51 58       	subi	r21, 0x81	; 129
      e6:	43 4a       	sbci	r20, 0xA3	; 163
      e8:	75 7c       	andi	r23, 0xC5	; 197
      ea:	67 6e       	ori	r22, 0xE7	; 231
      ec:	32 3b       	cpi	r19, 0xB2	; 178
      ee:	20 29       	or	r18, r0
      f0:	16 1f       	adc	r17, r22
      f2:	04 0d       	add	r16, r4
      f4:	7a 73       	andi	r23, 0x3A	; 58
      f6:	68 61       	ori	r22, 0x18	; 24
      f8:	5e 57       	subi	r21, 0x7E	; 126
      fa:	4c 45       	sbci	r20, 0x5C	; 92
      fc:	2b 22       	and	r2, r27
      fe:	39 30       	cpi	r19, 0x09	; 9
     100:	0f 06       	cpc	r0, r31
     102:	1d 14       	cp	r1, r13
     104:	63 6a       	ori	r22, 0xA3	; 163
     106:	71 78       	andi	r23, 0x81	; 129
     108:	47 4e       	sbci	r20, 0xE7	; 231
     10a:	55 5c       	subi	r21, 0xC5	; 197
     10c:	64 6d       	ori	r22, 0xD4	; 212
     10e:	76 7f       	andi	r23, 0xF6	; 246
     110:	40 49       	sbci	r20, 0x90	; 144
     112:	52 5b       	subi	r21, 0xB2	; 178
     114:	2c 25       	eor	r18, r12
     116:	3e 37       	cpi	r19, 0x7E	; 126
     118:	08 01       	movw	r0, r16
     11a:	1a 13       	cpse	r17, r26
     11c:	7d 74       	andi	r23, 0x4D	; 77
     11e:	6f 66       	ori	r22, 0x6F	; 111
     120:	59 50       	subi	r21, 0x09	; 9
     122:	4b 42       	sbci	r20, 0x2B	; 43
     124:	35 3c       	cpi	r19, 0xC5	; 197
     126:	27 2e       	mov	r2, r23
     128:	11 18       	sub	r1, r1
     12a:	03 0a       	sbc	r0, r19
     12c:	56 5f       	subi	r21, 0xF6	; 246
     12e:	44 4d       	sbci	r20, 0xD4	; 212
     130:	72 7b       	andi	r23, 0xB2	; 178
     132:	60 69       	ori	r22, 0x90	; 144
     134:	1e 17       	cp	r17, r30
     136:	0c 05       	cpc	r16, r12
     138:	3a 33       	cpi	r19, 0x3A	; 58
     13a:	28 21       	and	r18, r8
     13c:	4f 46       	sbci	r20, 0x6F	; 111
     13e:	5d 54       	subi	r21, 0x4D	; 77
     140:	6b 62       	ori	r22, 0x2B	; 43
     142:	79 70       	andi	r23, 0x09	; 9
     144:	07 0e       	add	r0, r23
     146:	15 1c       	adc	r1, r5
     148:	23 2a       	or	r2, r19
     14a:	31 38       	cpi	r19, 0x81	; 129
     14c:	41 48       	sbci	r20, 0x81	; 129
     14e:	53 5a       	subi	r21, 0xA3	; 163
     150:	65 6c       	ori	r22, 0xC5	; 197
     152:	77 7e       	andi	r23, 0xE7	; 231
     154:	09 00       	.word	0x0009	; ????
     156:	1b 12       	cpse	r1, r27
     158:	2d 24       	eor	r2, r13
     15a:	3f 36       	cpi	r19, 0x6F	; 111
     15c:	58 51       	subi	r21, 0x18	; 24
     15e:	4a 43       	sbci	r20, 0x3A	; 58
     160:	7c 75       	andi	r23, 0x5C	; 92
     162:	6e 67       	ori	r22, 0x7E	; 126
     164:	10 19       	sub	r17, r0
     166:	02 0b       	sbc	r16, r18
     168:	34 3d       	cpi	r19, 0xD4	; 212
     16a:	26 2f       	mov	r18, r22
     16c:	73 7a       	andi	r23, 0xA3	; 163
     16e:	61 68       	ori	r22, 0x81	; 129
     170:	57 5e       	subi	r21, 0xE7	; 231
     172:	45 4c       	sbci	r20, 0xC5	; 197
     174:	3b 32       	cpi	r19, 0x2B	; 43
     176:	29 20       	and	r2, r9
     178:	1f 16       	cp	r1, r31
     17a:	0d 04       	cpc	r0, r13
     17c:	6a 63       	ori	r22, 0x3A	; 58
     17e:	78 71       	andi	r23, 0x18	; 24
     180:	4e 47       	sbci	r20, 0x7E	; 126
     182:	5c 55       	subi	r21, 0x5C	; 92
     184:	22 2b       	or	r18, r18
     186:	30 39       	cpi	r19, 0x90	; 144
     188:	06 0f       	add	r16, r22
     18a:	14 1d       	adc	r17, r4
     18c:	25 2c       	mov	r2, r5
     18e:	37 3e       	cpi	r19, 0xE7	; 231
     190:	01 08       	sbc	r0, r1
     192:	13 1a       	sub	r1, r19
     194:	6d 64       	ori	r22, 0x4D	; 77
     196:	7f 76       	andi	r23, 0x6F	; 111
     198:	49 40       	sbci	r20, 0x09	; 9
     19a:	5b 52       	subi	r21, 0x2B	; 43
     19c:	3c 35       	cpi	r19, 0x5C	; 92
     19e:	2e 27       	eor	r18, r30
     1a0:	18 11       	cpse	r17, r8
     1a2:	0a 03       	fmul	r16, r18
     1a4:	74 7d       	andi	r23, 0xD4	; 212
     1a6:	66 6f       	ori	r22, 0xF6	; 246
     1a8:	50 59       	subi	r21, 0x90	; 144
     1aa:	42 4b       	sbci	r20, 0xB2	; 178
     1ac:	17 1e       	adc	r1, r23
     1ae:	05 0c       	add	r0, r5
     1b0:	33 3a       	cpi	r19, 0xA3	; 163
     1b2:	21 28       	or	r2, r1
     1b4:	5f 56       	subi	r21, 0x6F	; 111
     1b6:	4d 44       	sbci	r20, 0x4D	; 77
     1b8:	7b 72       	andi	r23, 0x2B	; 43
     1ba:	69 60       	ori	r22, 0x09	; 9
     1bc:	0e 07       	cpc	r16, r30
     1be:	1c 15       	cp	r17, r12
     1c0:	2a 23       	and	r18, r26
     1c2:	38 31       	cpi	r19, 0x18	; 24
     1c4:	46 4f       	sbci	r20, 0xF6	; 246
     1c6:	54 5d       	subi	r21, 0xD4	; 212
     1c8:	62 6b       	ori	r22, 0xB2	; 178
     1ca:	70 79       	andi	r23, 0x90	; 144

000001cc <__ctors_end>:
     1cc:	11 24       	eor	r1, r1
     1ce:	1f be       	out	0x3f, r1	; 63
     1d0:	cf ef       	ldi	r28, 0xFF	; 255
     1d2:	cd bf       	out	0x3d, r28	; 61
     1d4:	df e3       	ldi	r29, 0x3F	; 63
     1d6:	de bf       	out	0x3e, r29	; 62

000001d8 <__do_copy_data>:
     1d8:	18 e2       	ldi	r17, 0x28	; 40
     1da:	a0 e0       	ldi	r26, 0x00	; 0
     1dc:	b8 e2       	ldi	r27, 0x28	; 40
     1de:	ee e3       	ldi	r30, 0x3E	; 62
     1e0:	fa e7       	ldi	r31, 0x7A	; 122
     1e2:	02 c0       	rjmp	.+4      	; 0x1e8 <__do_copy_data+0x10>
     1e4:	05 90       	lpm	r0, Z+
     1e6:	0d 92       	st	X+, r0
     1e8:	a4 34       	cpi	r26, 0x44	; 68
     1ea:	b1 07       	cpc	r27, r17
     1ec:	d9 f7       	brne	.-10     	; 0x1e4 <__do_copy_data+0xc>

000001ee <__do_clear_bss>:
     1ee:	2f e2       	ldi	r18, 0x2F	; 47
     1f0:	a4 e4       	ldi	r26, 0x44	; 68
     1f2:	b8 e2       	ldi	r27, 0x28	; 40
     1f4:	01 c0       	rjmp	.+2      	; 0x1f8 <.do_clear_bss_start>

000001f6 <.do_clear_bss_loop>:
     1f6:	1d 92       	st	X+, r1

000001f8 <.do_clear_bss_start>:
     1f8:	ad 32       	cpi	r26, 0x2D	; 45
     1fa:	b2 07       	cpc	r27, r18
     1fc:	e1 f7       	brne	.-8      	; 0x1f6 <.do_clear_bss_loop>
     1fe:	0e 94 66 04 	call	0x8cc	; 0x8cc <main>
     202:	0c 94 42 3c 	jmp	0x7884	; 0x7884 <_exit>

00000206 <__bad_interrupt>:
     206:	0c 94 00 00 	jmp	0	; 0x0 <__vectors>

0000020a <atmel_start_init>:

/**
 * Initializes MCU, drivers and middleware in the project
**/
void atmel_start_init(void)
{
     20a:	cf 93       	push	r28
     20c:	df 93       	push	r29
     20e:	cd b7       	in	r28, 0x3d	; 61
     210:	de b7       	in	r29, 0x3e	; 62
	system_init();
     212:	0e 94 3b 0a 	call	0x1476	; 0x1476 <system_init>
}
     216:	00 00       	nop
     218:	df 91       	pop	r29
     21a:	cf 91       	pop	r28
     21c:	08 95       	ret

0000021e <motor_dir_port_init>:
	TCB1.CTRLA &= ~PIN0_bm;  // disable TCB3
	TCB1.CCMPL = 0xFA;
	TCB1.CCMPH = 0x00; // change duty cycle
	TCB1.CNT = 0x00;
	TCB1.CTRLA |= TCB_ENABLE_bm; // re-enable TCB3;
}
     21e:	cf 93       	push	r28
     220:	df 93       	push	r29
     222:	cd b7       	in	r28, 0x3d	; 61
     224:	de b7       	in	r29, 0x3e	; 62
     226:	80 e8       	ldi	r24, 0x80	; 128
     228:	94 e0       	ldi	r25, 0x04	; 4
     22a:	20 e8       	ldi	r18, 0x80	; 128
     22c:	34 e0       	ldi	r19, 0x04	; 4
     22e:	f9 01       	movw	r30, r18
     230:	20 81       	ld	r18, Z
     232:	28 60       	ori	r18, 0x08	; 8
     234:	fc 01       	movw	r30, r24
     236:	20 83       	st	Z, r18
     238:	80 e8       	ldi	r24, 0x80	; 128
     23a:	94 e0       	ldi	r25, 0x04	; 4
     23c:	20 e8       	ldi	r18, 0x80	; 128
     23e:	34 e0       	ldi	r19, 0x04	; 4
     240:	f9 01       	movw	r30, r18
     242:	20 81       	ld	r18, Z
     244:	24 60       	ori	r18, 0x04	; 4
     246:	fc 01       	movw	r30, r24
     248:	20 83       	st	Z, r18
     24a:	80 e8       	ldi	r24, 0x80	; 128
     24c:	94 e0       	ldi	r25, 0x04	; 4
     24e:	20 e8       	ldi	r18, 0x80	; 128
     250:	34 e0       	ldi	r19, 0x04	; 4
     252:	f9 01       	movw	r30, r18
     254:	24 81       	ldd	r18, Z+4	; 0x04
     256:	2b 7f       	andi	r18, 0xFB	; 251
     258:	fc 01       	movw	r30, r24
     25a:	24 83       	std	Z+4, r18	; 0x04
     25c:	80 e8       	ldi	r24, 0x80	; 128
     25e:	94 e0       	ldi	r25, 0x04	; 4
     260:	20 e8       	ldi	r18, 0x80	; 128
     262:	34 e0       	ldi	r19, 0x04	; 4
     264:	f9 01       	movw	r30, r18
     266:	24 81       	ldd	r18, Z+4	; 0x04
     268:	28 60       	ori	r18, 0x08	; 8
     26a:	fc 01       	movw	r30, r24
     26c:	24 83       	std	Z+4, r18	; 0x04
     26e:	80 ea       	ldi	r24, 0xA0	; 160
     270:	94 e0       	ldi	r25, 0x04	; 4
     272:	20 ea       	ldi	r18, 0xA0	; 160
     274:	34 e0       	ldi	r19, 0x04	; 4
     276:	f9 01       	movw	r30, r18
     278:	20 81       	ld	r18, Z
     27a:	20 64       	ori	r18, 0x40	; 64
     27c:	fc 01       	movw	r30, r24
     27e:	20 83       	st	Z, r18
     280:	80 ea       	ldi	r24, 0xA0	; 160
     282:	94 e0       	ldi	r25, 0x04	; 4
     284:	20 ea       	ldi	r18, 0xA0	; 160
     286:	34 e0       	ldi	r19, 0x04	; 4
     288:	f9 01       	movw	r30, r18
     28a:	20 81       	ld	r18, Z
     28c:	20 61       	ori	r18, 0x10	; 16
     28e:	fc 01       	movw	r30, r24
     290:	20 83       	st	Z, r18
     292:	80 ea       	ldi	r24, 0xA0	; 160
     294:	94 e0       	ldi	r25, 0x04	; 4
     296:	20 ea       	ldi	r18, 0xA0	; 160
     298:	34 e0       	ldi	r19, 0x04	; 4
     29a:	f9 01       	movw	r30, r18
     29c:	24 81       	ldd	r18, Z+4	; 0x04
     29e:	2f 7b       	andi	r18, 0xBF	; 191
     2a0:	fc 01       	movw	r30, r24
     2a2:	24 83       	std	Z+4, r18	; 0x04
     2a4:	80 ea       	ldi	r24, 0xA0	; 160
     2a6:	94 e0       	ldi	r25, 0x04	; 4
     2a8:	20 ea       	ldi	r18, 0xA0	; 160
     2aa:	34 e0       	ldi	r19, 0x04	; 4
     2ac:	f9 01       	movw	r30, r18
     2ae:	24 81       	ldd	r18, Z+4	; 0x04
     2b0:	20 61       	ori	r18, 0x10	; 16
     2b2:	fc 01       	movw	r30, r24
     2b4:	24 83       	std	Z+4, r18	; 0x04
     2b6:	00 00       	nop
     2b8:	df 91       	pop	r29
     2ba:	cf 91       	pop	r28
     2bc:	08 95       	ret

000002be <LEFT_WHEEL_TCB3_PWM_init>:
     2be:	cf 93       	push	r28
     2c0:	df 93       	push	r29
     2c2:	cd b7       	in	r28, 0x3d	; 61
     2c4:	de b7       	in	r29, 0x3e	; 62
     2c6:	80 e2       	ldi	r24, 0x20	; 32
     2c8:	94 e0       	ldi	r25, 0x04	; 4
     2ca:	20 e2       	ldi	r18, 0x20	; 32
     2cc:	34 e0       	ldi	r19, 0x04	; 4
     2ce:	f9 01       	movw	r30, r18
     2d0:	20 81       	ld	r18, Z
     2d2:	20 62       	ori	r18, 0x20	; 32
     2d4:	fc 01       	movw	r30, r24
     2d6:	20 83       	st	Z, r18
     2d8:	84 e2       	ldi	r24, 0x24	; 36
     2da:	94 e0       	ldi	r25, 0x04	; 4
     2dc:	24 e2       	ldi	r18, 0x24	; 36
     2de:	34 e0       	ldi	r19, 0x04	; 4
     2e0:	f9 01       	movw	r30, r18
     2e2:	20 81       	ld	r18, Z
     2e4:	20 62       	ori	r18, 0x20	; 32
     2e6:	fc 01       	movw	r30, r24
     2e8:	20 83       	st	Z, r18
     2ea:	80 eb       	ldi	r24, 0xB0	; 176
     2ec:	9a e0       	ldi	r25, 0x0A	; 10
     2ee:	2a ef       	ldi	r18, 0xFA	; 250
     2f0:	fc 01       	movw	r30, r24
     2f2:	24 87       	std	Z+12, r18	; 0x0c
     2f4:	80 eb       	ldi	r24, 0xB0	; 176
     2f6:	9a e0       	ldi	r25, 0x0A	; 10
     2f8:	28 ec       	ldi	r18, 0xC8	; 200
     2fa:	fc 01       	movw	r30, r24
     2fc:	25 87       	std	Z+13, r18	; 0x0d
     2fe:	80 eb       	ldi	r24, 0xB0	; 176
     300:	9a e0       	ldi	r25, 0x0A	; 10
     302:	20 eb       	ldi	r18, 0xB0	; 176
     304:	3a e0       	ldi	r19, 0x0A	; 10
     306:	f9 01       	movw	r30, r18
     308:	20 81       	ld	r18, Z
     30a:	21 60       	ori	r18, 0x01	; 1
     30c:	fc 01       	movw	r30, r24
     30e:	20 83       	st	Z, r18
     310:	80 eb       	ldi	r24, 0xB0	; 176
     312:	9a e0       	ldi	r25, 0x0A	; 10
     314:	20 eb       	ldi	r18, 0xB0	; 176
     316:	3a e0       	ldi	r19, 0x0A	; 10
     318:	f9 01       	movw	r30, r18
     31a:	21 81       	ldd	r18, Z+1	; 0x01
     31c:	20 61       	ori	r18, 0x10	; 16
     31e:	fc 01       	movw	r30, r24
     320:	21 83       	std	Z+1, r18	; 0x01
     322:	80 eb       	ldi	r24, 0xB0	; 176
     324:	9a e0       	ldi	r25, 0x0A	; 10
     326:	20 eb       	ldi	r18, 0xB0	; 176
     328:	3a e0       	ldi	r19, 0x0A	; 10
     32a:	f9 01       	movw	r30, r18
     32c:	21 81       	ldd	r18, Z+1	; 0x01
     32e:	27 60       	ori	r18, 0x07	; 7
     330:	fc 01       	movw	r30, r24
     332:	21 83       	std	Z+1, r18	; 0x01
     334:	00 00       	nop
     336:	df 91       	pop	r29
     338:	cf 91       	pop	r28
     33a:	08 95       	ret

0000033c <RIGHT_WHEEL_TCB1_PWM_init>:
     33c:	cf 93       	push	r28
     33e:	df 93       	push	r29
     340:	cd b7       	in	r28, 0x3d	; 61
     342:	de b7       	in	r29, 0x3e	; 62
     344:	80 ea       	ldi	r24, 0xA0	; 160
     346:	94 e0       	ldi	r25, 0x04	; 4
     348:	20 ea       	ldi	r18, 0xA0	; 160
     34a:	34 e0       	ldi	r19, 0x04	; 4
     34c:	f9 01       	movw	r30, r18
     34e:	20 81       	ld	r18, Z
     350:	20 62       	ori	r18, 0x20	; 32
     352:	fc 01       	movw	r30, r24
     354:	20 83       	st	Z, r18
     356:	80 ea       	ldi	r24, 0xA0	; 160
     358:	94 e0       	ldi	r25, 0x04	; 4
     35a:	20 ea       	ldi	r18, 0xA0	; 160
     35c:	34 e0       	ldi	r19, 0x04	; 4
     35e:	f9 01       	movw	r30, r18
     360:	24 81       	ldd	r18, Z+4	; 0x04
     362:	20 62       	ori	r18, 0x20	; 32
     364:	fc 01       	movw	r30, r24
     366:	24 83       	std	Z+4, r18	; 0x04
     368:	80 e9       	ldi	r24, 0x90	; 144
     36a:	9a e0       	ldi	r25, 0x0A	; 10
     36c:	2a ef       	ldi	r18, 0xFA	; 250
     36e:	fc 01       	movw	r30, r24
     370:	24 87       	std	Z+12, r18	; 0x0c
     372:	80 e9       	ldi	r24, 0x90	; 144
     374:	9a e0       	ldi	r25, 0x0A	; 10
     376:	28 ec       	ldi	r18, 0xC8	; 200
     378:	fc 01       	movw	r30, r24
     37a:	25 87       	std	Z+13, r18	; 0x0d
     37c:	80 e9       	ldi	r24, 0x90	; 144
     37e:	9a e0       	ldi	r25, 0x0A	; 10
     380:	20 e9       	ldi	r18, 0x90	; 144
     382:	3a e0       	ldi	r19, 0x0A	; 10
     384:	f9 01       	movw	r30, r18
     386:	20 81       	ld	r18, Z
     388:	21 60       	ori	r18, 0x01	; 1
     38a:	fc 01       	movw	r30, r24
     38c:	20 83       	st	Z, r18
     38e:	80 e9       	ldi	r24, 0x90	; 144
     390:	9a e0       	ldi	r25, 0x0A	; 10
     392:	20 e9       	ldi	r18, 0x90	; 144
     394:	3a e0       	ldi	r19, 0x0A	; 10
     396:	f9 01       	movw	r30, r18
     398:	21 81       	ldd	r18, Z+1	; 0x01
     39a:	20 61       	ori	r18, 0x10	; 16
     39c:	fc 01       	movw	r30, r24
     39e:	21 83       	std	Z+1, r18	; 0x01
     3a0:	80 e9       	ldi	r24, 0x90	; 144
     3a2:	9a e0       	ldi	r25, 0x0A	; 10
     3a4:	20 e9       	ldi	r18, 0x90	; 144
     3a6:	3a e0       	ldi	r19, 0x0A	; 10
     3a8:	f9 01       	movw	r30, r18
     3aa:	21 81       	ldd	r18, Z+1	; 0x01
     3ac:	27 60       	ori	r18, 0x07	; 7
     3ae:	fc 01       	movw	r30, r24
     3b0:	21 83       	std	Z+1, r18	; 0x01
     3b2:	80 ee       	ldi	r24, 0xE0	; 224
     3b4:	95 e0       	ldi	r25, 0x05	; 5
     3b6:	20 ee       	ldi	r18, 0xE0	; 224
     3b8:	35 e0       	ldi	r19, 0x05	; 5
     3ba:	f9 01       	movw	r30, r18
     3bc:	25 81       	ldd	r18, Z+5	; 0x05
     3be:	22 60       	ori	r18, 0x02	; 2
     3c0:	fc 01       	movw	r30, r24
     3c2:	25 83       	std	Z+5, r18	; 0x05
     3c4:	00 00       	nop
     3c6:	df 91       	pop	r29
     3c8:	cf 91       	pop	r28
     3ca:	08 95       	ret

000003cc <motor_start_left_wheel>:
     3cc:	cf 93       	push	r28
     3ce:	df 93       	push	r29
     3d0:	cd b7       	in	r28, 0x3d	; 61
     3d2:	de b7       	in	r29, 0x3e	; 62
     3d4:	80 eb       	ldi	r24, 0xB0	; 176
     3d6:	9a e0       	ldi	r25, 0x0A	; 10
     3d8:	20 eb       	ldi	r18, 0xB0	; 176
     3da:	3a e0       	ldi	r19, 0x0A	; 10
     3dc:	f9 01       	movw	r30, r18
     3de:	20 81       	ld	r18, Z
     3e0:	2e 7f       	andi	r18, 0xFE	; 254
     3e2:	fc 01       	movw	r30, r24
     3e4:	20 83       	st	Z, r18
     3e6:	80 eb       	ldi	r24, 0xB0	; 176
     3e8:	9a e0       	ldi	r25, 0x0A	; 10
     3ea:	2a ef       	ldi	r18, 0xFA	; 250
     3ec:	fc 01       	movw	r30, r24
     3ee:	24 87       	std	Z+12, r18	; 0x0c
     3f0:	80 eb       	ldi	r24, 0xB0	; 176
     3f2:	9a e0       	ldi	r25, 0x0A	; 10
     3f4:	28 ec       	ldi	r18, 0xC8	; 200
     3f6:	fc 01       	movw	r30, r24
     3f8:	25 87       	std	Z+13, r18	; 0x0d
     3fa:	80 eb       	ldi	r24, 0xB0	; 176
     3fc:	9a e0       	ldi	r25, 0x0A	; 10
     3fe:	fc 01       	movw	r30, r24
     400:	12 86       	std	Z+10, r1	; 0x0a
     402:	13 86       	std	Z+11, r1	; 0x0b
     404:	80 eb       	ldi	r24, 0xB0	; 176
     406:	9a e0       	ldi	r25, 0x0A	; 10
     408:	20 eb       	ldi	r18, 0xB0	; 176
     40a:	3a e0       	ldi	r19, 0x0A	; 10
     40c:	f9 01       	movw	r30, r18
     40e:	20 81       	ld	r18, Z
     410:	21 60       	ori	r18, 0x01	; 1
     412:	fc 01       	movw	r30, r24
     414:	20 83       	st	Z, r18
     416:	00 00       	nop
     418:	df 91       	pop	r29
     41a:	cf 91       	pop	r28
     41c:	08 95       	ret

0000041e <motor_start_right_wheel>:
     41e:	cf 93       	push	r28
     420:	df 93       	push	r29
     422:	cd b7       	in	r28, 0x3d	; 61
     424:	de b7       	in	r29, 0x3e	; 62
     426:	80 e9       	ldi	r24, 0x90	; 144
     428:	9a e0       	ldi	r25, 0x0A	; 10
     42a:	20 e9       	ldi	r18, 0x90	; 144
     42c:	3a e0       	ldi	r19, 0x0A	; 10
     42e:	f9 01       	movw	r30, r18
     430:	20 81       	ld	r18, Z
     432:	2e 7f       	andi	r18, 0xFE	; 254
     434:	fc 01       	movw	r30, r24
     436:	20 83       	st	Z, r18
     438:	80 e9       	ldi	r24, 0x90	; 144
     43a:	9a e0       	ldi	r25, 0x0A	; 10
     43c:	2a ef       	ldi	r18, 0xFA	; 250
     43e:	fc 01       	movw	r30, r24
     440:	24 87       	std	Z+12, r18	; 0x0c
     442:	80 e9       	ldi	r24, 0x90	; 144
     444:	9a e0       	ldi	r25, 0x0A	; 10
     446:	28 ec       	ldi	r18, 0xC8	; 200
     448:	fc 01       	movw	r30, r24
     44a:	25 87       	std	Z+13, r18	; 0x0d
     44c:	80 e9       	ldi	r24, 0x90	; 144
     44e:	9a e0       	ldi	r25, 0x0A	; 10
     450:	fc 01       	movw	r30, r24
     452:	12 86       	std	Z+10, r1	; 0x0a
     454:	13 86       	std	Z+11, r1	; 0x0b
     456:	80 e9       	ldi	r24, 0x90	; 144
     458:	9a e0       	ldi	r25, 0x0A	; 10
     45a:	20 e9       	ldi	r18, 0x90	; 144
     45c:	3a e0       	ldi	r19, 0x0A	; 10
     45e:	f9 01       	movw	r30, r18
     460:	20 81       	ld	r18, Z
     462:	21 60       	ori	r18, 0x01	; 1
     464:	fc 01       	movw	r30, r24
     466:	20 83       	st	Z, r18
     468:	00 00       	nop
     46a:	df 91       	pop	r29
     46c:	cf 91       	pop	r28
     46e:	08 95       	ret

00000470 <motor_reverse_left_wheel>:

void motor_reverse_left_wheel(){
     470:	cf 93       	push	r28
     472:	df 93       	push	r29
     474:	cd b7       	in	r28, 0x3d	; 61
     476:	de b7       	in	r29, 0x3e	; 62
	
	PORTE.OUT ^= PIN3_bm;
     478:	80 e8       	ldi	r24, 0x80	; 128
     47a:	94 e0       	ldi	r25, 0x04	; 4
     47c:	20 e8       	ldi	r18, 0x80	; 128
     47e:	34 e0       	ldi	r19, 0x04	; 4
     480:	f9 01       	movw	r30, r18
     482:	34 81       	ldd	r19, Z+4	; 0x04
     484:	28 e0       	ldi	r18, 0x08	; 8
     486:	23 27       	eor	r18, r19
     488:	fc 01       	movw	r30, r24
     48a:	24 83       	std	Z+4, r18	; 0x04
	PORTE.OUT ^= PIN2_bm;
     48c:	80 e8       	ldi	r24, 0x80	; 128
     48e:	94 e0       	ldi	r25, 0x04	; 4
     490:	20 e8       	ldi	r18, 0x80	; 128
     492:	34 e0       	ldi	r19, 0x04	; 4
     494:	f9 01       	movw	r30, r18
     496:	34 81       	ldd	r19, Z+4	; 0x04
     498:	24 e0       	ldi	r18, 0x04	; 4
     49a:	23 27       	eor	r18, r19
     49c:	fc 01       	movw	r30, r24
     49e:	24 83       	std	Z+4, r18	; 0x04
}
     4a0:	00 00       	nop
     4a2:	df 91       	pop	r29
     4a4:	cf 91       	pop	r28
     4a6:	08 95       	ret

000004a8 <wifi_init>:

/*
 * \brief Initialize Wifi library
 */
void wifi_init(tstrWifiInitParam *params)
{
     4a8:	cf 93       	push	r28
     4aa:	df 93       	push	r29
     4ac:	cd b7       	in	r28, 0x3d	; 61
     4ae:	de b7       	in	r29, 0x3e	; 62
     4b0:	61 97       	sbiw	r28, 0x11	; 17
     4b2:	cd bf       	out	0x3d, r28	; 61
     4b4:	de bf       	out	0x3e, r29	; 62
     4b6:	88 8b       	std	Y+16, r24	; 0x10
     4b8:	99 8b       	std	Y+17, r25	; 0x11
	tstrWifiInitParam param;
	int8_t            ret;

//	set_winc_spi_descriptor(&WINC_SPI);
	/* Initialize the BSP. */
	nm_bsp_init();
     4ba:	0e 94 2b 0f 	call	0x1e56	; 0x1e56 <nm_bsp_init>
	/* Initialize Wi-Fi parameters structure. */
	memset((uint8_t *)&param, 0, sizeof(tstrWifiInitParam));
     4be:	ce 01       	movw	r24, r28
     4c0:	02 96       	adiw	r24, 0x02	; 2
     4c2:	4e e0       	ldi	r20, 0x0E	; 14
     4c4:	50 e0       	ldi	r21, 0x00	; 0
     4c6:	60 e0       	ldi	r22, 0x00	; 0
     4c8:	70 e0       	ldi	r23, 0x00	; 0
     4ca:	0e 94 2a 39 	call	0x7254	; 0x7254 <memset>
	/* Initialize Wi-Fi driver with data and status callbacks. */
	param.pfAppWifiCb = params->pfAppWifiCb;
     4ce:	88 89       	ldd	r24, Y+16	; 0x10
     4d0:	99 89       	ldd	r25, Y+17	; 0x11
     4d2:	fc 01       	movw	r30, r24
     4d4:	80 81       	ld	r24, Z
     4d6:	91 81       	ldd	r25, Z+1	; 0x01
     4d8:	8a 83       	std	Y+2, r24	; 0x02
     4da:	9b 83       	std	Y+3, r25	; 0x03
	ret               = m2m_wifi_init(&param);
     4dc:	ce 01       	movw	r24, r28
     4de:	02 96       	adiw	r24, 0x02	; 2
     4e0:	0e 94 d3 1a 	call	0x35a6	; 0x35a6 <m2m_wifi_init>
     4e4:	89 83       	std	Y+1, r24	; 0x01
	if (M2M_SUCCESS != ret) {
     4e6:	89 81       	ldd	r24, Y+1	; 0x01
     4e8:	88 23       	and	r24, r24
     4ea:	09 f0       	breq	.+2      	; 0x4ee <wifi_init+0x46>
		while (1) {
		}
     4ec:	ff cf       	rjmp	.-2      	; 0x4ec <wifi_init+0x44>





}
     4ee:	00 00       	nop
     4f0:	61 96       	adiw	r28, 0x11	; 17
     4f2:	cd bf       	out	0x3d, r28	; 61
     4f4:	de bf       	out	0x3e, r29	; 62
     4f6:	df 91       	pop	r29
     4f8:	cf 91       	pop	r28
     4fa:	08 95       	ret

000004fc <usart_putchar_printf>:
int usart_putchar_printf(char var, FILE *stream);

static FILE mystdout = FDEV_SETUP_STREAM(usart_putchar_printf, NULL, _FDEV_SETUP_WRITE);


int usart_putchar_printf(char var, FILE *stream){
     4fc:	cf 93       	push	r28
     4fe:	df 93       	push	r29
     500:	00 d0       	rcall	.+0      	; 0x502 <usart_putchar_printf+0x6>
     502:	1f 92       	push	r1
     504:	cd b7       	in	r28, 0x3d	; 61
     506:	de b7       	in	r29, 0x3e	; 62
     508:	89 83       	std	Y+1, r24	; 0x01
     50a:	6a 83       	std	Y+2, r22	; 0x02
     50c:	7b 83       	std	Y+3, r23	; 0x03
	
	USART_1_write(var);
     50e:	89 81       	ldd	r24, Y+1	; 0x01
     510:	88 2f       	mov	r24, r24
     512:	90 e0       	ldi	r25, 0x00	; 0
     514:	0e 94 a9 0c 	call	0x1952	; 0x1952 <USART_1_write>
}
     518:	00 00       	nop
     51a:	23 96       	adiw	r28, 0x03	; 3
     51c:	cd bf       	out	0x3d, r28	; 61
     51e:	de bf       	out	0x3e, r29	; 62
     520:	df 91       	pop	r29
     522:	cf 91       	pop	r28
     524:	08 95       	ret

00000526 <get_command>:
char buffer[MAX_LENGTH];
int index;
volatile char data_response;
char order[10];

void get_command(char *str,tstrSocketRecvMsg *pCommand){
     526:	cf 93       	push	r28
     528:	df 93       	push	r29
     52a:	cd b7       	in	r28, 0x3d	; 61
     52c:	de b7       	in	r29, 0x3e	; 62
     52e:	26 97       	sbiw	r28, 0x06	; 6
     530:	cd bf       	out	0x3d, r28	; 61
     532:	de bf       	out	0x3e, r29	; 62
     534:	8b 83       	std	Y+3, r24	; 0x03
     536:	9c 83       	std	Y+4, r25	; 0x04
     538:	6d 83       	std	Y+5, r22	; 0x05
     53a:	7e 83       	std	Y+6, r23	; 0x06

int i=0;
     53c:	19 82       	std	Y+1, r1	; 0x01
     53e:	1a 82       	std	Y+2, r1	; 0x02
while(*(pCommand->pu8Buffer+i) != 0x0D){
     540:	18 c0       	rjmp	.+48     	; 0x572 <get_command+0x4c>
 	
	*(str+i)=*(pCommand->pu8Buffer+i);
     542:	89 81       	ldd	r24, Y+1	; 0x01
     544:	9a 81       	ldd	r25, Y+2	; 0x02
     546:	2b 81       	ldd	r18, Y+3	; 0x03
     548:	3c 81       	ldd	r19, Y+4	; 0x04
     54a:	82 0f       	add	r24, r18
     54c:	93 1f       	adc	r25, r19
     54e:	2d 81       	ldd	r18, Y+5	; 0x05
     550:	3e 81       	ldd	r19, Y+6	; 0x06
     552:	f9 01       	movw	r30, r18
     554:	40 81       	ld	r20, Z
     556:	51 81       	ldd	r21, Z+1	; 0x01
     558:	29 81       	ldd	r18, Y+1	; 0x01
     55a:	3a 81       	ldd	r19, Y+2	; 0x02
     55c:	24 0f       	add	r18, r20
     55e:	35 1f       	adc	r19, r21
     560:	f9 01       	movw	r30, r18
     562:	20 81       	ld	r18, Z
     564:	fc 01       	movw	r30, r24
     566:	20 83       	st	Z, r18
	i++;
     568:	89 81       	ldd	r24, Y+1	; 0x01
     56a:	9a 81       	ldd	r25, Y+2	; 0x02
     56c:	01 96       	adiw	r24, 0x01	; 1
     56e:	89 83       	std	Y+1, r24	; 0x01
     570:	9a 83       	std	Y+2, r25	; 0x02
char order[10];

void get_command(char *str,tstrSocketRecvMsg *pCommand){

int i=0;
while(*(pCommand->pu8Buffer+i) != 0x0D){
     572:	8d 81       	ldd	r24, Y+5	; 0x05
     574:	9e 81       	ldd	r25, Y+6	; 0x06
     576:	fc 01       	movw	r30, r24
     578:	20 81       	ld	r18, Z
     57a:	31 81       	ldd	r19, Z+1	; 0x01
     57c:	89 81       	ldd	r24, Y+1	; 0x01
     57e:	9a 81       	ldd	r25, Y+2	; 0x02
     580:	82 0f       	add	r24, r18
     582:	93 1f       	adc	r25, r19
     584:	fc 01       	movw	r30, r24
     586:	80 81       	ld	r24, Z
     588:	8d 30       	cpi	r24, 0x0D	; 13
     58a:	d9 f6       	brne	.-74     	; 0x542 <get_command+0x1c>
	*(str+i)=*(pCommand->pu8Buffer+i);
	i++;
	
}

}
     58c:	00 00       	nop
     58e:	26 96       	adiw	r28, 0x06	; 6
     590:	cd bf       	out	0x3d, r28	; 61
     592:	de bf       	out	0x3e, r29	; 62
     594:	df 91       	pop	r29
     596:	cf 91       	pop	r28
     598:	08 95       	ret

0000059a <socket_cb>:
 *  - tstrSocketAcceptMsg
 *  - tstrSocketConnectMsg
 *  - tstrSocketRecvMsg
 */
static void socket_cb(SOCKET sock, uint8_t u8Msg, void *pvMsg)
{
     59a:	0f 93       	push	r16
     59c:	1f 93       	push	r17
     59e:	cf 93       	push	r28
     5a0:	df 93       	push	r29
     5a2:	cd b7       	in	r28, 0x3d	; 61
     5a4:	de b7       	in	r29, 0x3e	; 62
     5a6:	2c 97       	sbiw	r28, 0x0c	; 12
     5a8:	cd bf       	out	0x3d, r28	; 61
     5aa:	de bf       	out	0x3e, r29	; 62
     5ac:	89 87       	std	Y+9, r24	; 0x09
     5ae:	6a 87       	std	Y+10, r22	; 0x0a
     5b0:	4b 87       	std	Y+11, r20	; 0x0b
     5b2:	5c 87       	std	Y+12, r21	; 0x0c
	switch (u8Msg) {
     5b4:	8a 85       	ldd	r24, Y+10	; 0x0a
     5b6:	88 2f       	mov	r24, r24
     5b8:	90 e0       	ldi	r25, 0x00	; 0
     5ba:	84 30       	cpi	r24, 0x04	; 4
     5bc:	91 05       	cpc	r25, r1
     5be:	09 f4       	brne	.+2      	; 0x5c2 <socket_cb+0x28>
     5c0:	5c c0       	rjmp	.+184    	; 0x67a <socket_cb+0xe0>
     5c2:	85 30       	cpi	r24, 0x05	; 5
     5c4:	91 05       	cpc	r25, r1
     5c6:	34 f4       	brge	.+12     	; 0x5d4 <socket_cb+0x3a>
     5c8:	81 30       	cpi	r24, 0x01	; 1
     5ca:	91 05       	cpc	r25, r1
     5cc:	59 f0       	breq	.+22     	; 0x5e4 <socket_cb+0x4a>
     5ce:	02 97       	sbiw	r24, 0x02	; 2
     5d0:	69 f1       	breq	.+90     	; 0x62c <socket_cb+0x92>
	}

	break;

	default:
		break;
     5d2:	fb c0       	rjmp	.+502    	; 0x7ca <socket_cb+0x230>
 *  - tstrSocketConnectMsg
 *  - tstrSocketRecvMsg
 */
static void socket_cb(SOCKET sock, uint8_t u8Msg, void *pvMsg)
{
	switch (u8Msg) {
     5d4:	86 30       	cpi	r24, 0x06	; 6
     5d6:	91 05       	cpc	r25, r1
     5d8:	09 f4       	brne	.+2      	; 0x5dc <socket_cb+0x42>
     5da:	96 c0       	rjmp	.+300    	; 0x708 <socket_cb+0x16e>
     5dc:	07 97       	sbiw	r24, 0x07	; 7
     5de:	09 f4       	brne	.+2      	; 0x5e2 <socket_cb+0x48>
     5e0:	7e c0       	rjmp	.+252    	; 0x6de <socket_cb+0x144>
	}

	break;

	default:
		break;
     5e2:	f3 c0       	rjmp	.+486    	; 0x7ca <socket_cb+0x230>
static void socket_cb(SOCKET sock, uint8_t u8Msg, void *pvMsg)
{
	switch (u8Msg) {
	/* Socket bind */
	case SOCKET_MSG_BIND: {
		tstrSocketBindMsg *pstrBind = (tstrSocketBindMsg *)pvMsg;
     5e4:	8b 85       	ldd	r24, Y+11	; 0x0b
     5e6:	9c 85       	ldd	r25, Y+12	; 0x0c
     5e8:	89 83       	std	Y+1, r24	; 0x01
     5ea:	9a 83       	std	Y+2, r25	; 0x02
		if (pstrBind && pstrBind->status == 0) {
     5ec:	89 81       	ldd	r24, Y+1	; 0x01
     5ee:	9a 81       	ldd	r25, Y+2	; 0x02
     5f0:	89 2b       	or	r24, r25
     5f2:	81 f0       	breq	.+32     	; 0x614 <socket_cb+0x7a>
     5f4:	89 81       	ldd	r24, Y+1	; 0x01
     5f6:	9a 81       	ldd	r25, Y+2	; 0x02
     5f8:	fc 01       	movw	r30, r24
     5fa:	80 81       	ld	r24, Z
     5fc:	88 23       	and	r24, r24
     5fe:	51 f4       	brne	.+20     	; 0x614 <socket_cb+0x7a>
			printf("socket_cb: bind success!\r\n");
     600:	88 e8       	ldi	r24, 0x88	; 136
     602:	98 eb       	ldi	r25, 0xB8	; 184
     604:	0e 94 50 39 	call	0x72a0	; 0x72a0 <puts>
			listen(tcp_server_socket, 0);
     608:	80 91 0e 28 	lds	r24, 0x280E	; 0x80280e <tcp_server_socket>
     60c:	60 e0       	ldi	r22, 0x00	; 0
     60e:	0e 94 f3 33 	call	0x67e6	; 0x67e6 <listen>
		} else {
			printf("socket_cb: bind error!\r\n");
			close(tcp_server_socket);
			tcp_server_socket = -1;
		}
	} break;
     612:	db c0       	rjmp	.+438    	; 0x7ca <socket_cb+0x230>
		tstrSocketBindMsg *pstrBind = (tstrSocketBindMsg *)pvMsg;
		if (pstrBind && pstrBind->status == 0) {
			printf("socket_cb: bind success!\r\n");
			listen(tcp_server_socket, 0);
		} else {
			printf("socket_cb: bind error!\r\n");
     614:	82 ea       	ldi	r24, 0xA2	; 162
     616:	98 eb       	ldi	r25, 0xB8	; 184
     618:	0e 94 50 39 	call	0x72a0	; 0x72a0 <puts>
			close(tcp_server_socket);
     61c:	80 91 0e 28 	lds	r24, 0x280E	; 0x80280e <tcp_server_socket>
     620:	0e 94 14 36 	call	0x6c28	; 0x6c28 <close>
			tcp_server_socket = -1;
     624:	8f ef       	ldi	r24, 0xFF	; 255
     626:	80 93 0e 28 	sts	0x280E, r24	; 0x80280e <tcp_server_socket>
		}
	} break;
     62a:	cf c0       	rjmp	.+414    	; 0x7ca <socket_cb+0x230>

	/* Socket listen */
	case SOCKET_MSG_LISTEN: {
		tstrSocketListenMsg *pstrListen = (tstrSocketListenMsg *)pvMsg;
     62c:	8b 85       	ldd	r24, Y+11	; 0x0b
     62e:	9c 85       	ldd	r25, Y+12	; 0x0c
     630:	8b 83       	std	Y+3, r24	; 0x03
     632:	9c 83       	std	Y+4, r25	; 0x04
		if (pstrListen && pstrListen->status == 0) {
     634:	8b 81       	ldd	r24, Y+3	; 0x03
     636:	9c 81       	ldd	r25, Y+4	; 0x04
     638:	89 2b       	or	r24, r25
     63a:	99 f0       	breq	.+38     	; 0x662 <socket_cb+0xc8>
     63c:	8b 81       	ldd	r24, Y+3	; 0x03
     63e:	9c 81       	ldd	r25, Y+4	; 0x04
     640:	fc 01       	movw	r30, r24
     642:	80 81       	ld	r24, Z
     644:	88 23       	and	r24, r24
     646:	69 f4       	brne	.+26     	; 0x662 <socket_cb+0xc8>
			printf("socket_cb: listen success!\r\n");
     648:	8a eb       	ldi	r24, 0xBA	; 186
     64a:	98 eb       	ldi	r25, 0xB8	; 184
     64c:	0e 94 50 39 	call	0x72a0	; 0x72a0 <puts>
			accept(tcp_server_socket, NULL, NULL);
     650:	80 91 0e 28 	lds	r24, 0x280E	; 0x80280e <tcp_server_socket>
     654:	40 e0       	ldi	r20, 0x00	; 0
     656:	50 e0       	ldi	r21, 0x00	; 0
     658:	60 e0       	ldi	r22, 0x00	; 0
     65a:	70 e0       	ldi	r23, 0x00	; 0
     65c:	0e 94 4e 34 	call	0x689c	; 0x689c <accept>
		} else {
			printf("socket_cb: listen error!\r\n");
			close(tcp_server_socket);
			tcp_server_socket = -1;
		}
	} break;
     660:	b4 c0       	rjmp	.+360    	; 0x7ca <socket_cb+0x230>
		tstrSocketListenMsg *pstrListen = (tstrSocketListenMsg *)pvMsg;
		if (pstrListen && pstrListen->status == 0) {
			printf("socket_cb: listen success!\r\n");
			accept(tcp_server_socket, NULL, NULL);
		} else {
			printf("socket_cb: listen error!\r\n");
     662:	86 ed       	ldi	r24, 0xD6	; 214
     664:	98 eb       	ldi	r25, 0xB8	; 184
     666:	0e 94 50 39 	call	0x72a0	; 0x72a0 <puts>
			close(tcp_server_socket);
     66a:	80 91 0e 28 	lds	r24, 0x280E	; 0x80280e <tcp_server_socket>
     66e:	0e 94 14 36 	call	0x6c28	; 0x6c28 <close>
			tcp_server_socket = -1;
     672:	8f ef       	ldi	r24, 0xFF	; 255
     674:	80 93 0e 28 	sts	0x280E, r24	; 0x80280e <tcp_server_socket>
		}
	} break;
     678:	a8 c0       	rjmp	.+336    	; 0x7ca <socket_cb+0x230>

	/* Connect accept */
	case SOCKET_MSG_ACCEPT: {
		tstrSocketAcceptMsg *pstrAccept = (tstrSocketAcceptMsg *)pvMsg;
     67a:	8b 85       	ldd	r24, Y+11	; 0x0b
     67c:	9c 85       	ldd	r25, Y+12	; 0x0c
     67e:	8d 83       	std	Y+5, r24	; 0x05
     680:	9e 83       	std	Y+6, r25	; 0x06
		if (pstrAccept) {
     682:	8d 81       	ldd	r24, Y+5	; 0x05
     684:	9e 81       	ldd	r25, Y+6	; 0x06
     686:	89 2b       	or	r24, r25
     688:	f1 f0       	breq	.+60     	; 0x6c6 <socket_cb+0x12c>
			printf("socket_cb: accept success!\r\n");
     68a:	80 ef       	ldi	r24, 0xF0	; 240
     68c:	98 eb       	ldi	r25, 0xB8	; 184
     68e:	0e 94 50 39 	call	0x72a0	; 0x72a0 <puts>
			accept(tcp_server_socket, NULL, NULL);
     692:	80 91 0e 28 	lds	r24, 0x280E	; 0x80280e <tcp_server_socket>
     696:	40 e0       	ldi	r20, 0x00	; 0
     698:	50 e0       	ldi	r21, 0x00	; 0
     69a:	60 e0       	ldi	r22, 0x00	; 0
     69c:	70 e0       	ldi	r23, 0x00	; 0
     69e:	0e 94 4e 34 	call	0x689c	; 0x689c <accept>
			tcp_client_socket = pstrAccept->sock;
     6a2:	8d 81       	ldd	r24, Y+5	; 0x05
     6a4:	9e 81       	ldd	r25, Y+6	; 0x06
     6a6:	fc 01       	movw	r30, r24
     6a8:	80 81       	ld	r24, Z
     6aa:	80 93 0f 28 	sts	0x280F, r24	; 0x80280f <tcp_client_socket>
			recv(tcp_client_socket, gau8SocketTestBuffer, sizeof(gau8SocketTestBuffer), 0);
     6ae:	80 91 0f 28 	lds	r24, 0x280F	; 0x80280f <tcp_client_socket>
     6b2:	00 e0       	ldi	r16, 0x00	; 0
     6b4:	10 e0       	ldi	r17, 0x00	; 0
     6b6:	98 01       	movw	r18, r16
     6b8:	44 eb       	ldi	r20, 0xB4	; 180
     6ba:	55 e0       	ldi	r21, 0x05	; 5
     6bc:	65 e4       	ldi	r22, 0x45	; 69
     6be:	78 e2       	ldi	r23, 0x28	; 40
     6c0:	0e 94 2a 35 	call	0x6a54	; 0x6a54 <recv>
		} else {
			printf("socket_cb: accept error!\r\n");
			close(tcp_server_socket);
			tcp_server_socket = -1;
		}
	} break;
     6c4:	82 c0       	rjmp	.+260    	; 0x7ca <socket_cb+0x230>
			printf("socket_cb: accept success!\r\n");
			accept(tcp_server_socket, NULL, NULL);
			tcp_client_socket = pstrAccept->sock;
			recv(tcp_client_socket, gau8SocketTestBuffer, sizeof(gau8SocketTestBuffer), 0);
		} else {
			printf("socket_cb: accept error!\r\n");
     6c6:	8c e0       	ldi	r24, 0x0C	; 12
     6c8:	99 eb       	ldi	r25, 0xB9	; 185
     6ca:	0e 94 50 39 	call	0x72a0	; 0x72a0 <puts>
			close(tcp_server_socket);
     6ce:	80 91 0e 28 	lds	r24, 0x280E	; 0x80280e <tcp_server_socket>
     6d2:	0e 94 14 36 	call	0x6c28	; 0x6c28 <close>
			tcp_server_socket = -1;
     6d6:	8f ef       	ldi	r24, 0xFF	; 255
     6d8:	80 93 0e 28 	sts	0x280E, r24	; 0x80280e <tcp_server_socket>
		}
	} break;
     6dc:	76 c0       	rjmp	.+236    	; 0x7ca <socket_cb+0x230>

	/* Message send */
	case SOCKET_MSG_SEND: {
		printf("socket_cb: send success!\r\n");
     6de:	86 e2       	ldi	r24, 0x26	; 38
     6e0:	99 eb       	ldi	r25, 0xB9	; 185
     6e2:	0e 94 50 39 	call	0x72a0	; 0x72a0 <puts>
		printf("TCP Server Test Complete!\r\n");
     6e6:	80 e4       	ldi	r24, 0x40	; 64
     6e8:	99 eb       	ldi	r25, 0xB9	; 185
     6ea:	0e 94 50 39 	call	0x72a0	; 0x72a0 <puts>
		printf("close socket\n");
     6ee:	8b e5       	ldi	r24, 0x5B	; 91
     6f0:	99 eb       	ldi	r25, 0xB9	; 185
     6f2:	0e 94 50 39 	call	0x72a0	; 0x72a0 <puts>
		close(tcp_client_socket);
     6f6:	80 91 0f 28 	lds	r24, 0x280F	; 0x80280f <tcp_client_socket>
     6fa:	0e 94 14 36 	call	0x6c28	; 0x6c28 <close>
		close(tcp_server_socket);
     6fe:	80 91 0e 28 	lds	r24, 0x280E	; 0x80280e <tcp_server_socket>
     702:	0e 94 14 36 	call	0x6c28	; 0x6c28 <close>
	} break;
     706:	61 c0       	rjmp	.+194    	; 0x7ca <socket_cb+0x230>

	/* Message receive */
	case SOCKET_MSG_RECV: {
		tstrSocketRecvMsg *pstrRecv = (tstrSocketRecvMsg *)pvMsg;
     708:	8b 85       	ldd	r24, Y+11	; 0x0b
     70a:	9c 85       	ldd	r25, Y+12	; 0x0c
     70c:	8f 83       	std	Y+7, r24	; 0x07
     70e:	98 87       	std	Y+8, r25	; 0x08
		if (pstrRecv && pstrRecv->s16BufferSize > 0) {
     710:	8f 81       	ldd	r24, Y+7	; 0x07
     712:	98 85       	ldd	r25, Y+8	; 0x08
     714:	89 2b       	or	r24, r25
     716:	09 f4       	brne	.+2      	; 0x71a <socket_cb+0x180>
     718:	4c c0       	rjmp	.+152    	; 0x7b2 <socket_cb+0x218>
     71a:	8f 81       	ldd	r24, Y+7	; 0x07
     71c:	98 85       	ldd	r25, Y+8	; 0x08
     71e:	fc 01       	movw	r30, r24
     720:	82 81       	ldd	r24, Z+2	; 0x02
     722:	93 81       	ldd	r25, Z+3	; 0x03
     724:	18 16       	cp	r1, r24
     726:	19 06       	cpc	r1, r25
     728:	0c f0       	brlt	.+2      	; 0x72c <socket_cb+0x192>
     72a:	43 c0       	rjmp	.+134    	; 0x7b2 <socket_cb+0x218>
			printf("socket_cb: recv success!\r\n");
     72c:	88 e6       	ldi	r24, 0x68	; 104
     72e:	99 eb       	ldi	r25, 0xB9	; 185
     730:	0e 94 50 39 	call	0x72a0	; 0x72a0 <puts>
			
			get_command(order, pstrRecv);
     734:	8f 81       	ldd	r24, Y+7	; 0x07
     736:	98 85       	ldd	r25, Y+8	; 0x08
     738:	bc 01       	movw	r22, r24
     73a:	80 e8       	ldi	r24, 0x80	; 128
     73c:	9e e2       	ldi	r25, 0x2E	; 46
     73e:	0e 94 93 02 	call	0x526	; 0x526 <get_command>
			if(strcmp(order,"rotate")==0){
     742:	62 e8       	ldi	r22, 0x82	; 130
     744:	79 eb       	ldi	r23, 0xB9	; 185
     746:	80 e8       	ldi	r24, 0x80	; 128
     748:	9e e2       	ldi	r25, 0x2E	; 46
     74a:	0e 94 31 39 	call	0x7262	; 0x7262 <strcmp>
     74e:	89 2b       	or	r24, r25
     750:	89 f4       	brne	.+34     	; 0x774 <socket_cb+0x1da>
				
				motor_start_left_wheel();
     752:	0e 94 e6 01 	call	0x3cc	; 0x3cc <motor_start_left_wheel>
				motor_start_right_wheel();
     756:	0e 94 0f 02 	call	0x41e	; 0x41e <motor_start_right_wheel>
				motor_reverse_left_wheel();
     75a:	0e 94 38 02 	call	0x470	; 0x470 <motor_reverse_left_wheel>
				printf("rotating !!");
     75e:	89 e8       	ldi	r24, 0x89	; 137
     760:	99 eb       	ldi	r25, 0xB9	; 185
     762:	89 2f       	mov	r24, r25
     764:	8f 93       	push	r24
     766:	89 e8       	ldi	r24, 0x89	; 137
     768:	99 eb       	ldi	r25, 0xB9	; 185
     76a:	8f 93       	push	r24
     76c:	0e 94 3a 39 	call	0x7274	; 0x7274 <printf>
     770:	0f 90       	pop	r0
     772:	0f 90       	pop	r0
				
			}
			
			
			
			printf("%s \n \r ",order);
     774:	80 e8       	ldi	r24, 0x80	; 128
     776:	9e e2       	ldi	r25, 0x2E	; 46
     778:	89 2f       	mov	r24, r25
     77a:	8f 93       	push	r24
     77c:	80 e8       	ldi	r24, 0x80	; 128
     77e:	9e e2       	ldi	r25, 0x2E	; 46
     780:	8f 93       	push	r24
     782:	85 e9       	ldi	r24, 0x95	; 149
     784:	99 eb       	ldi	r25, 0xB9	; 185
     786:	89 2f       	mov	r24, r25
     788:	8f 93       	push	r24
     78a:	85 e9       	ldi	r24, 0x95	; 149
     78c:	99 eb       	ldi	r25, 0xB9	; 185
     78e:	8f 93       	push	r24
     790:	0e 94 3a 39 	call	0x7274	; 0x7274 <printf>
     794:	0f 90       	pop	r0
     796:	0f 90       	pop	r0
     798:	0f 90       	pop	r0
     79a:	0f 90       	pop	r0
			
			send(tcp_client_socket, &msg_wifi_product, sizeof(msg_wifi_product), 0);
     79c:	80 91 0f 28 	lds	r24, 0x280F	; 0x80280f <tcp_client_socket>
     7a0:	20 e0       	ldi	r18, 0x00	; 0
     7a2:	30 e0       	ldi	r19, 0x00	; 0
     7a4:	48 e2       	ldi	r20, 0x28	; 40
     7a6:	50 e0       	ldi	r21, 0x00	; 0
     7a8:	60 e1       	ldi	r22, 0x10	; 16
     7aa:	78 e2       	ldi	r23, 0x28	; 40
     7ac:	0e 94 77 34 	call	0x68ee	; 0x68ee <send>
			close(tcp_server_socket);
			tcp_server_socket = -1;
		}
	}

	break;
     7b0:	0b c0       	rjmp	.+22     	; 0x7c8 <socket_cb+0x22e>
			
			printf("%s \n \r ",order);
			
			send(tcp_client_socket, &msg_wifi_product, sizeof(msg_wifi_product), 0);
		} else {
			printf("socket_cb: recv error!\r\n");
     7b2:	8d e9       	ldi	r24, 0x9D	; 157
     7b4:	99 eb       	ldi	r25, 0xB9	; 185
     7b6:	0e 94 50 39 	call	0x72a0	; 0x72a0 <puts>
			close(tcp_server_socket);
     7ba:	80 91 0e 28 	lds	r24, 0x280E	; 0x80280e <tcp_server_socket>
     7be:	0e 94 14 36 	call	0x6c28	; 0x6c28 <close>
			tcp_server_socket = -1;
     7c2:	8f ef       	ldi	r24, 0xFF	; 255
     7c4:	80 93 0e 28 	sts	0x280E, r24	; 0x80280e <tcp_server_socket>
		}
	}

	break;
     7c8:	00 00       	nop

	default:
		break;
	}
}
     7ca:	00 00       	nop
     7cc:	2c 96       	adiw	r28, 0x0c	; 12
     7ce:	cd bf       	out	0x3d, r28	; 61
     7d0:	de bf       	out	0x3e, r29	; 62
     7d2:	df 91       	pop	r29
     7d4:	cf 91       	pop	r28
     7d6:	1f 91       	pop	r17
     7d8:	0f 91       	pop	r16
     7da:	08 95       	ret

000007dc <wifi_cb>:
 * \param[in] pvMsg A pointer to a buffer containing the notification parameters
 * (if any). It should be casted to the correct data type corresponding to the
 * notification type.
 */
static void wifi_cb(uint8_t u8MsgType, void *pvMsg)
{
     7dc:	cf 93       	push	r28
     7de:	df 93       	push	r29
     7e0:	cd b7       	in	r28, 0x3d	; 61
     7e2:	de b7       	in	r29, 0x3e	; 62
     7e4:	27 97       	sbiw	r28, 0x07	; 7
     7e6:	cd bf       	out	0x3d, r28	; 61
     7e8:	de bf       	out	0x3e, r29	; 62
     7ea:	8d 83       	std	Y+5, r24	; 0x05
     7ec:	6e 83       	std	Y+6, r22	; 0x06
     7ee:	7f 83       	std	Y+7, r23	; 0x07
	switch (u8MsgType) {
     7f0:	8d 81       	ldd	r24, Y+5	; 0x05
     7f2:	88 2f       	mov	r24, r24
     7f4:	90 e0       	ldi	r25, 0x00	; 0
     7f6:	8c 32       	cpi	r24, 0x2C	; 44
     7f8:	91 05       	cpc	r25, r1
     7fa:	19 f0       	breq	.+6      	; 0x802 <wifi_cb+0x26>
     7fc:	c2 97       	sbiw	r24, 0x32	; 50
     7fe:	e9 f0       	breq	.+58     	; 0x83a <wifi_cb+0x5e>
		
		break;
	}

	default: {
		break;
     800:	5e c0       	rjmp	.+188    	; 0x8be <wifi_cb+0xe2>
 */
static void wifi_cb(uint8_t u8MsgType, void *pvMsg)
{
	switch (u8MsgType) {
	case M2M_WIFI_RESP_CON_STATE_CHANGED: {
		tstrM2mWifiStateChanged *pstrWifiState = (tstrM2mWifiStateChanged *)pvMsg;
     802:	8e 81       	ldd	r24, Y+6	; 0x06
     804:	9f 81       	ldd	r25, Y+7	; 0x07
     806:	89 83       	std	Y+1, r24	; 0x01
     808:	9a 83       	std	Y+2, r25	; 0x02
		if (pstrWifiState->u8CurrState == M2M_WIFI_CONNECTED) {
     80a:	89 81       	ldd	r24, Y+1	; 0x01
     80c:	9a 81       	ldd	r25, Y+2	; 0x02
     80e:	fc 01       	movw	r30, r24
     810:	80 81       	ld	r24, Z
     812:	81 30       	cpi	r24, 0x01	; 1
     814:	21 f4       	brne	.+8      	; 0x81e <wifi_cb+0x42>
			wifi_connected = 1;
     816:	81 e0       	ldi	r24, 0x01	; 1
     818:	80 93 44 28 	sts	0x2844, r24	; 0x802844 <__data_end>
		} else if (pstrWifiState->u8CurrState == M2M_WIFI_DISCONNECTED) {
			wifi_connected = 0;
			printf("Station disconnected\r\n");
		}

		break;
     81c:	4f c0       	rjmp	.+158    	; 0x8bc <wifi_cb+0xe0>
	switch (u8MsgType) {
	case M2M_WIFI_RESP_CON_STATE_CHANGED: {
		tstrM2mWifiStateChanged *pstrWifiState = (tstrM2mWifiStateChanged *)pvMsg;
		if (pstrWifiState->u8CurrState == M2M_WIFI_CONNECTED) {
			wifi_connected = 1;
		} else if (pstrWifiState->u8CurrState == M2M_WIFI_DISCONNECTED) {
     81e:	89 81       	ldd	r24, Y+1	; 0x01
     820:	9a 81       	ldd	r25, Y+2	; 0x02
     822:	fc 01       	movw	r30, r24
     824:	80 81       	ld	r24, Z
     826:	88 23       	and	r24, r24
     828:	09 f0       	breq	.+2      	; 0x82c <wifi_cb+0x50>
     82a:	48 c0       	rjmp	.+144    	; 0x8bc <wifi_cb+0xe0>
			wifi_connected = 0;
     82c:	10 92 44 28 	sts	0x2844, r1	; 0x802844 <__data_end>
			printf("Station disconnected\r\n");
     830:	85 eb       	ldi	r24, 0xB5	; 181
     832:	99 eb       	ldi	r25, 0xB9	; 185
     834:	0e 94 50 39 	call	0x72a0	; 0x72a0 <puts>
		}

		break;
     838:	41 c0       	rjmp	.+130    	; 0x8bc <wifi_cb+0xe0>
	}

	case M2M_WIFI_REQ_DHCP_CONF: {
		uint8_t *pu8IPAddress = (uint8_t *)pvMsg;
     83a:	8e 81       	ldd	r24, Y+6	; 0x06
     83c:	9f 81       	ldd	r25, Y+7	; 0x07
     83e:	8b 83       	std	Y+3, r24	; 0x03
     840:	9c 83       	std	Y+4, r25	; 0x04
		wifi_connected = 1; 
     842:	81 e0       	ldi	r24, 0x01	; 1
     844:	80 93 44 28 	sts	0x2844, r24	; 0x802844 <__data_end>
		printf("Station connected\r\n");
     848:	8b ec       	ldi	r24, 0xCB	; 203
     84a:	99 eb       	ldi	r25, 0xB9	; 185
     84c:	0e 94 50 39 	call	0x72a0	; 0x72a0 <puts>
		printf("Station IP is %u.%u.%u.%u\r\n",pu8IPAddress[0], pu8IPAddress[1], pu8IPAddress[2], pu8IPAddress[3]); //pu8IPAddress[0], pu8IPAddress[1], pu8IPAddress[2], pu8IPAddress[3]);
     850:	8b 81       	ldd	r24, Y+3	; 0x03
     852:	9c 81       	ldd	r25, Y+4	; 0x04
     854:	03 96       	adiw	r24, 0x03	; 3
     856:	fc 01       	movw	r30, r24
     858:	80 81       	ld	r24, Z
     85a:	68 2f       	mov	r22, r24
     85c:	70 e0       	ldi	r23, 0x00	; 0
     85e:	8b 81       	ldd	r24, Y+3	; 0x03
     860:	9c 81       	ldd	r25, Y+4	; 0x04
     862:	02 96       	adiw	r24, 0x02	; 2
     864:	fc 01       	movw	r30, r24
     866:	80 81       	ld	r24, Z
     868:	48 2f       	mov	r20, r24
     86a:	50 e0       	ldi	r21, 0x00	; 0
     86c:	8b 81       	ldd	r24, Y+3	; 0x03
     86e:	9c 81       	ldd	r25, Y+4	; 0x04
     870:	01 96       	adiw	r24, 0x01	; 1
     872:	fc 01       	movw	r30, r24
     874:	80 81       	ld	r24, Z
     876:	28 2f       	mov	r18, r24
     878:	30 e0       	ldi	r19, 0x00	; 0
     87a:	8b 81       	ldd	r24, Y+3	; 0x03
     87c:	9c 81       	ldd	r25, Y+4	; 0x04
     87e:	fc 01       	movw	r30, r24
     880:	80 81       	ld	r24, Z
     882:	88 2f       	mov	r24, r24
     884:	90 e0       	ldi	r25, 0x00	; 0
     886:	e7 2f       	mov	r30, r23
     888:	ef 93       	push	r30
     88a:	6f 93       	push	r22
     88c:	65 2f       	mov	r22, r21
     88e:	6f 93       	push	r22
     890:	4f 93       	push	r20
     892:	43 2f       	mov	r20, r19
     894:	4f 93       	push	r20
     896:	2f 93       	push	r18
     898:	29 2f       	mov	r18, r25
     89a:	2f 93       	push	r18
     89c:	8f 93       	push	r24
     89e:	8e ed       	ldi	r24, 0xDE	; 222
     8a0:	99 eb       	ldi	r25, 0xB9	; 185
     8a2:	89 2f       	mov	r24, r25
     8a4:	8f 93       	push	r24
     8a6:	8e ed       	ldi	r24, 0xDE	; 222
     8a8:	99 eb       	ldi	r25, 0xB9	; 185
     8aa:	8f 93       	push	r24
     8ac:	0e 94 3a 39 	call	0x7274	; 0x7274 <printf>
     8b0:	8d b7       	in	r24, 0x3d	; 61
     8b2:	9e b7       	in	r25, 0x3e	; 62
     8b4:	0a 96       	adiw	r24, 0x0a	; 10
     8b6:	cd bf       	out	0x3d, r28	; 61
     8b8:	de bf       	out	0x3e, r29	; 62
		
		break;
     8ba:	01 c0       	rjmp	.+2      	; 0x8be <wifi_cb+0xe2>
		} else if (pstrWifiState->u8CurrState == M2M_WIFI_DISCONNECTED) {
			wifi_connected = 0;
			printf("Station disconnected\r\n");
		}

		break;
     8bc:	00 00       	nop

	default: {
		break;
	}
	}
}
     8be:	00 00       	nop
     8c0:	27 96       	adiw	r28, 0x07	; 7
     8c2:	cd bf       	out	0x3d, r28	; 61
     8c4:	de bf       	out	0x3e, r29	; 62
     8c6:	df 91       	pop	r29
     8c8:	cf 91       	pop	r28
     8ca:	08 95       	ret

000008cc <main>:





int main(void){
     8cc:	0f 93       	push	r16
     8ce:	1f 93       	push	r17
     8d0:	cf 93       	push	r28
     8d2:	df 93       	push	r29
     8d4:	cd b7       	in	r28, 0x3d	; 61
     8d6:	de b7       	in	r29, 0x3e	; 62
     8d8:	c7 5a       	subi	r28, 0xA7	; 167
     8da:	d1 09       	sbc	r29, r1
     8dc:	cd bf       	out	0x3d, r28	; 61
     8de:	de bf       	out	0x3e, r29	; 62
	
	tstrWifiInitParam param;
	tstrM2MAPConfig   strM2MAPConfig;
	int8_t            ret = 0;
     8e0:	19 82       	std	Y+1, r1	; 0x01
	struct sockaddr_in addr;
	
	// Redirect stream to Tera Term
	stdout = &mystdout;
     8e2:	80 e0       	ldi	r24, 0x00	; 0
     8e4:	98 e2       	ldi	r25, 0x28	; 40
     8e6:	80 93 29 2f 	sts	0x2F29, r24	; 0x802f29 <__iob+0x2>
     8ea:	90 93 2a 2f 	sts	0x2F2A, r25	; 0x802f2a <__iob+0x3>
	/* Initializes MCU, drivers and middleware */
	
	atmel_start_init();
     8ee:	0e 94 05 01 	call	0x20a	; 0x20a <atmel_start_init>
	motor_dir_port_init();
     8f2:	0e 94 0f 01 	call	0x21e	; 0x21e <motor_dir_port_init>
	LEFT_WHEEL_TCB3_PWM_init();
     8f6:	0e 94 5f 01 	call	0x2be	; 0x2be <LEFT_WHEEL_TCB3_PWM_init>
	RIGHT_WHEEL_TCB1_PWM_init();
     8fa:	0e 94 9e 01 	call	0x33c	; 0x33c <RIGHT_WHEEL_TCB1_PWM_init>
	
	
	sei();
     8fe:	78 94       	sei

	/* Initialize BSP */
	nm_bsp_init();
     900:	0e 94 2b 0f 	call	0x1e56	; 0x1e56 <nm_bsp_init>


	/* Initialize socket address structure */
	addr.sin_family = AF_INET;
     904:	ce 01       	movw	r24, r28
     906:	88 56       	subi	r24, 0x68	; 104
     908:	9f 4f       	sbci	r25, 0xFF	; 255
     90a:	22 e0       	ldi	r18, 0x02	; 2
     90c:	30 e0       	ldi	r19, 0x00	; 0
     90e:	fc 01       	movw	r30, r24
     910:	20 83       	st	Z, r18
     912:	31 83       	std	Z+1, r19	; 0x01
	addr.sin_port = _htons(MAIN_WIFI_M2M_SERVER_PORT);
     914:	ce 01       	movw	r24, r28
     916:	88 56       	subi	r24, 0x68	; 104
     918:	9f 4f       	sbci	r25, 0xFF	; 255
     91a:	2a e1       	ldi	r18, 0x1A	; 26
     91c:	3a e0       	ldi	r19, 0x0A	; 10
     91e:	fc 01       	movw	r30, r24
     920:	22 83       	std	Z+2, r18	; 0x02
     922:	33 83       	std	Z+3, r19	; 0x03
	addr.sin_addr.s_addr = _htonl(MAIN_WIFI_M2M_SERVER_IP);
     924:	9e 01       	movw	r18, r28
     926:	28 56       	subi	r18, 0x68	; 104
     928:	3f 4f       	sbci	r19, 0xFF	; 255
     92a:	8f ef       	ldi	r24, 0xFF	; 255
     92c:	9f ef       	ldi	r25, 0xFF	; 255
     92e:	dc 01       	movw	r26, r24
     930:	f9 01       	movw	r30, r18
     932:	84 83       	std	Z+4, r24	; 0x04
     934:	95 83       	std	Z+5, r25	; 0x05
     936:	a6 83       	std	Z+6, r26	; 0x06
     938:	b7 83       	std	Z+7, r27	; 0x07




	/* Initialize Wi-Fi parameters structure. */
	memset((uint8_t *)&param, 0, sizeof(tstrWifiInitParam));
     93a:	ce 01       	movw	r24, r28
     93c:	02 96       	adiw	r24, 0x02	; 2
     93e:	4e e0       	ldi	r20, 0x0E	; 14
     940:	50 e0       	ldi	r21, 0x00	; 0
     942:	60 e0       	ldi	r22, 0x00	; 0
     944:	70 e0       	ldi	r23, 0x00	; 0
     946:	0e 94 2a 39 	call	0x7254	; 0x7254 <memset>

	/* Initialize Wi-Fi driver with data and status callbacks. */
	param.pfAppWifiCb = wifi_cb;
     94a:	8e ee       	ldi	r24, 0xEE	; 238
     94c:	93 e0       	ldi	r25, 0x03	; 3
     94e:	8a 83       	std	Y+2, r24	; 0x02
     950:	9b 83       	std	Y+3, r25	; 0x03
	wifi_init(&param);
     952:	ce 01       	movw	r24, r28
     954:	02 96       	adiw	r24, 0x02	; 2
     956:	0e 94 54 02 	call	0x4a8	; 0x4a8 <wifi_init>



	/* Initialize socket module */
	socketInit();
     95a:	0e 94 4b 32 	call	0x6496	; 0x6496 <socketInit>
	registerSocketCallback(socket_cb, NULL);
     95e:	60 e0       	ldi	r22, 0x00	; 0
     960:	70 e0       	ldi	r23, 0x00	; 0
     962:	8d ec       	ldi	r24, 0xCD	; 205
     964:	92 e0       	ldi	r25, 0x02	; 2
     966:	0e 94 6c 32 	call	0x64d8	; 0x64d8 <registerSocketCallback>


	/* Initialize AP mode parameters structure with SSID, channel and OPEN security type. */
	memset(&strM2MAPConfig, 0x00, sizeof(tstrM2MAPConfig));
     96a:	ce 01       	movw	r24, r28
     96c:	40 96       	adiw	r24, 0x10	; 16
     96e:	48 e8       	ldi	r20, 0x88	; 136
     970:	50 e0       	ldi	r21, 0x00	; 0
     972:	60 e0       	ldi	r22, 0x00	; 0
     974:	70 e0       	ldi	r23, 0x00	; 0
     976:	0e 94 2a 39 	call	0x7254	; 0x7254 <memset>
	strcpy((char *)&strM2MAPConfig.au8SSID, MAIN_WLAN_SSID);
     97a:	ce 01       	movw	r24, r28
     97c:	40 96       	adiw	r24, 0x10	; 16
     97e:	29 e0       	ldi	r18, 0x09	; 9
     980:	ea ef       	ldi	r30, 0xFA	; 250
     982:	f9 eb       	ldi	r31, 0xB9	; 185
     984:	dc 01       	movw	r26, r24
     986:	01 90       	ld	r0, Z+
     988:	0d 92       	st	X+, r0
     98a:	2a 95       	dec	r18
     98c:	e1 f7       	brne	.-8      	; 0x986 <main+0xba>
	strM2MAPConfig.u8ListenChannel = MAIN_WLAN_CHANNEL;
     98e:	86 e0       	ldi	r24, 0x06	; 6
     990:	89 ab       	std	Y+49, r24	; 0x31
	strM2MAPConfig.u8SecType       = MAIN_WLAN_AUTH;
     992:	ce 01       	movw	r24, r28
     994:	81 5b       	subi	r24, 0xB1	; 177
     996:	9f 4f       	sbci	r25, 0xFF	; 255
     998:	22 e0       	ldi	r18, 0x02	; 2
     99a:	fc 01       	movw	r30, r24
     99c:	20 83       	st	Z, r18

	strM2MAPConfig.au8DHCPServerIP[0] = 192;
     99e:	ce 01       	movw	r24, r28
     9a0:	8f 5a       	subi	r24, 0xAF	; 175
     9a2:	9f 4f       	sbci	r25, 0xFF	; 255
     9a4:	20 ec       	ldi	r18, 0xC0	; 192
     9a6:	fc 01       	movw	r30, r24
     9a8:	20 83       	st	Z, r18
	strM2MAPConfig.au8DHCPServerIP[1] = 168;
     9aa:	ce 01       	movw	r24, r28
     9ac:	8e 5a       	subi	r24, 0xAE	; 174
     9ae:	9f 4f       	sbci	r25, 0xFF	; 255
     9b0:	28 ea       	ldi	r18, 0xA8	; 168
     9b2:	fc 01       	movw	r30, r24
     9b4:	20 83       	st	Z, r18
	strM2MAPConfig.au8DHCPServerIP[2] = 0;
     9b6:	ce 01       	movw	r24, r28
     9b8:	8d 5a       	subi	r24, 0xAD	; 173
     9ba:	9f 4f       	sbci	r25, 0xFF	; 255
     9bc:	fc 01       	movw	r30, r24
     9be:	10 82       	st	Z, r1
	strM2MAPConfig.au8DHCPServerIP[3] = 1;
     9c0:	ce 01       	movw	r24, r28
     9c2:	8c 5a       	subi	r24, 0xAC	; 172
     9c4:	9f 4f       	sbci	r25, 0xFF	; 255
     9c6:	21 e0       	ldi	r18, 0x01	; 1
     9c8:	fc 01       	movw	r30, r24
     9ca:	20 83       	st	Z, r18

// 	printf("AP mode started. You can connect to %s.\r\n", (char *)MAIN_WLAN_SSID);


/* Connect to router. */
	m2m_wifi_connect(
     9cc:	0f ef       	ldi	r16, 0xFF	; 255
     9ce:	10 e0       	ldi	r17, 0x00	; 0
     9d0:	23 e0       	ldi	r18, 0x03	; 3
     9d2:	3a eb       	ldi	r19, 0xBA	; 186
     9d4:	42 e0       	ldi	r20, 0x02	; 2
     9d6:	69 e0       	ldi	r22, 0x09	; 9
     9d8:	8a ef       	ldi	r24, 0xFA	; 250
     9da:	99 eb       	ldi	r25, 0xB9	; 185
     9dc:	0e 94 28 1b 	call	0x3650	; 0x3650 <m2m_wifi_connect>
	
	
	/* Handle pending events from network controller. */
	
	
	while (m2m_wifi_handle_events(NULL) == M2M_SUCCESS) {
     9e0:	23 c0       	rjmp	.+70     	; 0xa28 <main+0x15c>
		
		if (wifi_connected == M2M_WIFI_CONNECTED) {
     9e2:	80 91 44 28 	lds	r24, 0x2844	; 0x802844 <__data_end>
     9e6:	81 30       	cpi	r24, 0x01	; 1
     9e8:	f9 f4       	brne	.+62     	; 0xa28 <main+0x15c>
			
			if (tcp_server_socket < 0) {
     9ea:	80 91 0e 28 	lds	r24, 0x280E	; 0x80280e <tcp_server_socket>
     9ee:	88 23       	and	r24, r24
     9f0:	dc f4       	brge	.+54     	; 0xa28 <main+0x15c>
				/* Open TCP server socket */
				if ((tcp_server_socket = socket(AF_INET, SOCK_STREAM, 0)) < 0) {
     9f2:	40 e0       	ldi	r20, 0x00	; 0
     9f4:	61 e0       	ldi	r22, 0x01	; 1
     9f6:	82 e0       	ldi	r24, 0x02	; 2
     9f8:	90 e0       	ldi	r25, 0x00	; 0
     9fa:	0e 94 89 32 	call	0x6512	; 0x6512 <socket>
     9fe:	80 93 0e 28 	sts	0x280E, r24	; 0x80280e <tcp_server_socket>
     a02:	80 91 0e 28 	lds	r24, 0x280E	; 0x80280e <tcp_server_socket>
     a06:	88 23       	and	r24, r24
     a08:	2c f4       	brge	.+10     	; 0xa14 <main+0x148>
					printf("main: failed to create TCP server socket error!\r\n");
     a0a:	8d e0       	ldi	r24, 0x0D	; 13
     a0c:	9a eb       	ldi	r25, 0xBA	; 186
     a0e:	0e 94 50 39 	call	0x72a0	; 0x72a0 <puts>
					
					continue;
     a12:	0a c0       	rjmp	.+20     	; 0xa28 <main+0x15c>
				}

				/* Bind service*/
				bind(tcp_server_socket, (struct sockaddr *)&addr, sizeof(struct sockaddr_in));
     a14:	20 91 0e 28 	lds	r18, 0x280E	; 0x80280e <tcp_server_socket>
     a18:	ce 01       	movw	r24, r28
     a1a:	88 56       	subi	r24, 0x68	; 104
     a1c:	9f 4f       	sbci	r25, 0xFF	; 255
     a1e:	40 e1       	ldi	r20, 0x10	; 16
     a20:	bc 01       	movw	r22, r24
     a22:	82 2f       	mov	r24, r18
     a24:	0e 94 6b 33 	call	0x66d6	; 0x66d6 <bind>
	
	
	/* Handle pending events from network controller. */
	
	
	while (m2m_wifi_handle_events(NULL) == M2M_SUCCESS) {
     a28:	80 e0       	ldi	r24, 0x00	; 0
     a2a:	90 e0       	ldi	r25, 0x00	; 0
     a2c:	0e 94 1a 1b 	call	0x3634	; 0x3634 <m2m_wifi_handle_events>
     a30:	88 23       	and	r24, r24
     a32:	b9 f2       	breq	.-82     	; 0x9e2 <main+0x116>



	}

}
     a34:	d5 cf       	rjmp	.-86     	; 0x9e0 <main+0x114>

00000a36 <BOD_init>:
     a36:	cf 93       	push	r28
     a38:	df 93       	push	r29
     a3a:	cd b7       	in	r28, 0x3d	; 61
     a3c:	de b7       	in	r29, 0x3e	; 62
     a3e:	80 e0       	ldi	r24, 0x00	; 0
     a40:	df 91       	pop	r29
     a42:	cf 91       	pop	r28
     a44:	08 95       	ret

00000a46 <ccp_write_io>:
 * \note Using IAR Embedded workbench, the choice of memory model has an impact
 *       on calling convention. The memory model is not visible to the
 *       preprocessor, so it must be defined in the Assembler preprocessor directives.
 */
static inline void ccp_write_io(void *addr, uint8_t value)
{
     a46:	cf 93       	push	r28
     a48:	df 93       	push	r29
     a4a:	00 d0       	rcall	.+0      	; 0xa4c <ccp_write_io+0x6>
     a4c:	1f 92       	push	r1
     a4e:	cd b7       	in	r28, 0x3d	; 61
     a50:	de b7       	in	r29, 0x3e	; 62
     a52:	89 83       	std	Y+1, r24	; 0x01
     a54:	9a 83       	std	Y+2, r25	; 0x02
     a56:	6b 83       	std	Y+3, r22	; 0x03
	protected_write_io(addr, CCP_IOREG_gc, value);
     a58:	89 81       	ldd	r24, Y+1	; 0x01
     a5a:	9a 81       	ldd	r25, Y+2	; 0x02
     a5c:	4b 81       	ldd	r20, Y+3	; 0x03
     a5e:	68 ed       	ldi	r22, 0xD8	; 216
     a60:	0e 94 8a 0a 	call	0x1514	; 0x1514 <protected_write_io>
}
     a64:	00 00       	nop
     a66:	23 96       	adiw	r28, 0x03	; 3
     a68:	cd bf       	out	0x3d, r28	; 61
     a6a:	de bf       	out	0x3e, r29	; 62
     a6c:	df 91       	pop	r29
     a6e:	cf 91       	pop	r28
     a70:	08 95       	ret

00000a72 <CLKCTRL_init>:
 * \brief Initialize clkctrl interface
 *
 * \return Initialization status.
 */
int8_t CLKCTRL_init()
{
     a72:	cf 93       	push	r28
     a74:	df 93       	push	r29
     a76:	cd b7       	in	r28, 0x3d	; 61
     a78:	de b7       	in	r29, 0x3e	; 62
	//		 | 0 << CLKCTRL_RUNSTDBY_bp /* Run standby: disabled */
	//		 | 0 << CLKCTRL_SEL_bp /* Select: disabled */);

	// ccp_write_io((void*)&(CLKCTRL.OSC20MCTRLA),0 << CLKCTRL_RUNSTDBY_bp /* Run standby: disabled */);

	ccp_write_io((void *)&(CLKCTRL.MCLKCTRLB),
     a7a:	65 e0       	ldi	r22, 0x05	; 5
     a7c:	81 e6       	ldi	r24, 0x61	; 97
     a7e:	90 e0       	ldi	r25, 0x00	; 0
     a80:	0e 94 23 05 	call	0xa46	; 0xa46 <ccp_write_io>
	// ccp_write_io((void*)&(CLKCTRL.MCLKCTRLA),CLKCTRL_CLKSEL_OSC20M_gc /* 20MHz Internal Oscillator (OSC20M) */
	//		 | 0 << CLKCTRL_CLKOUT_bp /* System clock out: disabled */);

	// ccp_write_io((void*)&(CLKCTRL.MCLKLOCK),0 << CLKCTRL_LOCKEN_bp /* lock enable: disabled */);

	return 0;
     a84:	80 e0       	ldi	r24, 0x00	; 0
}
     a86:	df 91       	pop	r29
     a88:	cf 91       	pop	r28
     a8a:	08 95       	ret

00000a8c <CPUINT_init>:
     a8c:	cf 93       	push	r28
     a8e:	df 93       	push	r29
     a90:	cd b7       	in	r28, 0x3d	; 61
     a92:	de b7       	in	r29, 0x3e	; 62
     a94:	80 e0       	ldi	r24, 0x00	; 0
     a96:	df 91       	pop	r29
     a98:	cf 91       	pop	r28
     a9a:	08 95       	ret

00000a9c <PORTA_set_pin_pull_mode>:
	PD6_set_isc(PORT_ISC_INPUT_DISABLE_gc);
	// Disable pull-up resistor
	PD6_set_pull_mode(PORT_PULL_OFF);

	ADC_0_init();
}
     a9c:	cf 93       	push	r28
     a9e:	df 93       	push	r29
     aa0:	00 d0       	rcall	.+0      	; 0xaa2 <PORTA_set_pin_pull_mode+0x6>
     aa2:	00 d0       	rcall	.+0      	; 0xaa4 <PORTA_set_pin_pull_mode+0x8>
     aa4:	cd b7       	in	r28, 0x3d	; 61
     aa6:	de b7       	in	r29, 0x3e	; 62
     aa8:	8b 83       	std	Y+3, r24	; 0x03
     aaa:	6c 83       	std	Y+4, r22	; 0x04
     aac:	8b 81       	ldd	r24, Y+3	; 0x03
     aae:	88 2f       	mov	r24, r24
     ab0:	90 e0       	ldi	r25, 0x00	; 0
     ab2:	80 5f       	subi	r24, 0xF0	; 240
     ab4:	9b 4f       	sbci	r25, 0xFB	; 251
     ab6:	89 83       	std	Y+1, r24	; 0x01
     ab8:	9a 83       	std	Y+2, r25	; 0x02
     aba:	8c 81       	ldd	r24, Y+4	; 0x04
     abc:	81 30       	cpi	r24, 0x01	; 1
     abe:	59 f4       	brne	.+22     	; 0xad6 <PORTA_set_pin_pull_mode+0x3a>
     ac0:	89 81       	ldd	r24, Y+1	; 0x01
     ac2:	9a 81       	ldd	r25, Y+2	; 0x02
     ac4:	fc 01       	movw	r30, r24
     ac6:	80 81       	ld	r24, Z
     ac8:	28 2f       	mov	r18, r24
     aca:	28 60       	ori	r18, 0x08	; 8
     acc:	89 81       	ldd	r24, Y+1	; 0x01
     ace:	9a 81       	ldd	r25, Y+2	; 0x02
     ad0:	fc 01       	movw	r30, r24
     ad2:	20 83       	st	Z, r18
     ad4:	0d c0       	rjmp	.+26     	; 0xaf0 <PORTA_set_pin_pull_mode+0x54>
     ad6:	8c 81       	ldd	r24, Y+4	; 0x04
     ad8:	88 23       	and	r24, r24
     ada:	51 f4       	brne	.+20     	; 0xaf0 <PORTA_set_pin_pull_mode+0x54>
     adc:	89 81       	ldd	r24, Y+1	; 0x01
     ade:	9a 81       	ldd	r25, Y+2	; 0x02
     ae0:	fc 01       	movw	r30, r24
     ae2:	80 81       	ld	r24, Z
     ae4:	28 2f       	mov	r18, r24
     ae6:	27 7f       	andi	r18, 0xF7	; 247
     ae8:	89 81       	ldd	r24, Y+1	; 0x01
     aea:	9a 81       	ldd	r25, Y+2	; 0x02
     aec:	fc 01       	movw	r30, r24
     aee:	20 83       	st	Z, r18
     af0:	00 00       	nop
     af2:	24 96       	adiw	r28, 0x04	; 4
     af4:	cd bf       	out	0x3d, r28	; 61
     af6:	de bf       	out	0x3e, r29	; 62
     af8:	df 91       	pop	r29
     afa:	cf 91       	pop	r28
     afc:	08 95       	ret

00000afe <PORTA_set_pin_dir>:
     afe:	cf 93       	push	r28
     b00:	df 93       	push	r29
     b02:	00 d0       	rcall	.+0      	; 0xb04 <PORTA_set_pin_dir+0x6>
     b04:	cd b7       	in	r28, 0x3d	; 61
     b06:	de b7       	in	r29, 0x3e	; 62
     b08:	89 83       	std	Y+1, r24	; 0x01
     b0a:	6a 83       	std	Y+2, r22	; 0x02
     b0c:	8a 81       	ldd	r24, Y+2	; 0x02
     b0e:	88 2f       	mov	r24, r24
     b10:	90 e0       	ldi	r25, 0x00	; 0
     b12:	81 30       	cpi	r24, 0x01	; 1
     b14:	91 05       	cpc	r25, r1
     b16:	e1 f0       	breq	.+56     	; 0xb50 <PORTA_set_pin_dir+0x52>
     b18:	82 30       	cpi	r24, 0x02	; 2
     b1a:	91 05       	cpc	r25, r1
     b1c:	71 f1       	breq	.+92     	; 0xb7a <PORTA_set_pin_dir+0x7c>
     b1e:	89 2b       	or	r24, r25
     b20:	09 f0       	breq	.+2      	; 0xb24 <PORTA_set_pin_dir+0x26>
     b22:	3b c0       	rjmp	.+118    	; 0xb9a <PORTA_set_pin_dir+0x9c>
     b24:	20 e0       	ldi	r18, 0x00	; 0
     b26:	30 e0       	ldi	r19, 0x00	; 0
     b28:	80 e0       	ldi	r24, 0x00	; 0
     b2a:	90 e0       	ldi	r25, 0x00	; 0
     b2c:	fc 01       	movw	r30, r24
     b2e:	80 81       	ld	r24, Z
     b30:	68 2f       	mov	r22, r24
     b32:	89 81       	ldd	r24, Y+1	; 0x01
     b34:	48 2f       	mov	r20, r24
     b36:	50 e0       	ldi	r21, 0x00	; 0
     b38:	81 e0       	ldi	r24, 0x01	; 1
     b3a:	90 e0       	ldi	r25, 0x00	; 0
     b3c:	02 c0       	rjmp	.+4      	; 0xb42 <PORTA_set_pin_dir+0x44>
     b3e:	88 0f       	add	r24, r24
     b40:	99 1f       	adc	r25, r25
     b42:	4a 95       	dec	r20
     b44:	e2 f7       	brpl	.-8      	; 0xb3e <PORTA_set_pin_dir+0x40>
     b46:	80 95       	com	r24
     b48:	86 23       	and	r24, r22
     b4a:	f9 01       	movw	r30, r18
     b4c:	80 83       	st	Z, r24
     b4e:	25 c0       	rjmp	.+74     	; 0xb9a <PORTA_set_pin_dir+0x9c>
     b50:	20 e0       	ldi	r18, 0x00	; 0
     b52:	30 e0       	ldi	r19, 0x00	; 0
     b54:	80 e0       	ldi	r24, 0x00	; 0
     b56:	90 e0       	ldi	r25, 0x00	; 0
     b58:	fc 01       	movw	r30, r24
     b5a:	80 81       	ld	r24, Z
     b5c:	68 2f       	mov	r22, r24
     b5e:	89 81       	ldd	r24, Y+1	; 0x01
     b60:	48 2f       	mov	r20, r24
     b62:	50 e0       	ldi	r21, 0x00	; 0
     b64:	81 e0       	ldi	r24, 0x01	; 1
     b66:	90 e0       	ldi	r25, 0x00	; 0
     b68:	02 c0       	rjmp	.+4      	; 0xb6e <PORTA_set_pin_dir+0x70>
     b6a:	88 0f       	add	r24, r24
     b6c:	99 1f       	adc	r25, r25
     b6e:	4a 95       	dec	r20
     b70:	e2 f7       	brpl	.-8      	; 0xb6a <PORTA_set_pin_dir+0x6c>
     b72:	86 2b       	or	r24, r22
     b74:	f9 01       	movw	r30, r18
     b76:	80 83       	st	Z, r24
     b78:	10 c0       	rjmp	.+32     	; 0xb9a <PORTA_set_pin_dir+0x9c>
     b7a:	89 81       	ldd	r24, Y+1	; 0x01
     b7c:	88 2f       	mov	r24, r24
     b7e:	90 e0       	ldi	r25, 0x00	; 0
     b80:	80 5f       	subi	r24, 0xF0	; 240
     b82:	9b 4f       	sbci	r25, 0xFB	; 251
     b84:	29 81       	ldd	r18, Y+1	; 0x01
     b86:	22 2f       	mov	r18, r18
     b88:	30 e0       	ldi	r19, 0x00	; 0
     b8a:	20 5f       	subi	r18, 0xF0	; 240
     b8c:	3b 4f       	sbci	r19, 0xFB	; 251
     b8e:	f9 01       	movw	r30, r18
     b90:	20 81       	ld	r18, Z
     b92:	28 60       	ori	r18, 0x08	; 8
     b94:	fc 01       	movw	r30, r24
     b96:	20 83       	st	Z, r18
     b98:	00 00       	nop
     b9a:	00 00       	nop
     b9c:	0f 90       	pop	r0
     b9e:	0f 90       	pop	r0
     ba0:	df 91       	pop	r29
     ba2:	cf 91       	pop	r28
     ba4:	08 95       	ret

00000ba6 <PORTA_set_pin_level>:
     ba6:	cf 93       	push	r28
     ba8:	df 93       	push	r29
     baa:	00 d0       	rcall	.+0      	; 0xbac <PORTA_set_pin_level+0x6>
     bac:	cd b7       	in	r28, 0x3d	; 61
     bae:	de b7       	in	r29, 0x3e	; 62
     bb0:	89 83       	std	Y+1, r24	; 0x01
     bb2:	6a 83       	std	Y+2, r22	; 0x02
     bb4:	8a 81       	ldd	r24, Y+2	; 0x02
     bb6:	88 23       	and	r24, r24
     bb8:	a9 f0       	breq	.+42     	; 0xbe4 <PORTA_set_pin_level+0x3e>
     bba:	20 e0       	ldi	r18, 0x00	; 0
     bbc:	30 e0       	ldi	r19, 0x00	; 0
     bbe:	80 e0       	ldi	r24, 0x00	; 0
     bc0:	90 e0       	ldi	r25, 0x00	; 0
     bc2:	fc 01       	movw	r30, r24
     bc4:	81 81       	ldd	r24, Z+1	; 0x01
     bc6:	68 2f       	mov	r22, r24
     bc8:	89 81       	ldd	r24, Y+1	; 0x01
     bca:	48 2f       	mov	r20, r24
     bcc:	50 e0       	ldi	r21, 0x00	; 0
     bce:	81 e0       	ldi	r24, 0x01	; 1
     bd0:	90 e0       	ldi	r25, 0x00	; 0
     bd2:	02 c0       	rjmp	.+4      	; 0xbd8 <PORTA_set_pin_level+0x32>
     bd4:	88 0f       	add	r24, r24
     bd6:	99 1f       	adc	r25, r25
     bd8:	4a 95       	dec	r20
     bda:	e2 f7       	brpl	.-8      	; 0xbd4 <PORTA_set_pin_level+0x2e>
     bdc:	86 2b       	or	r24, r22
     bde:	f9 01       	movw	r30, r18
     be0:	81 83       	std	Z+1, r24	; 0x01
     be2:	15 c0       	rjmp	.+42     	; 0xc0e <PORTA_set_pin_level+0x68>
     be4:	20 e0       	ldi	r18, 0x00	; 0
     be6:	30 e0       	ldi	r19, 0x00	; 0
     be8:	80 e0       	ldi	r24, 0x00	; 0
     bea:	90 e0       	ldi	r25, 0x00	; 0
     bec:	fc 01       	movw	r30, r24
     bee:	81 81       	ldd	r24, Z+1	; 0x01
     bf0:	68 2f       	mov	r22, r24
     bf2:	89 81       	ldd	r24, Y+1	; 0x01
     bf4:	48 2f       	mov	r20, r24
     bf6:	50 e0       	ldi	r21, 0x00	; 0
     bf8:	81 e0       	ldi	r24, 0x01	; 1
     bfa:	90 e0       	ldi	r25, 0x00	; 0
     bfc:	02 c0       	rjmp	.+4      	; 0xc02 <PORTA_set_pin_level+0x5c>
     bfe:	88 0f       	add	r24, r24
     c00:	99 1f       	adc	r25, r25
     c02:	4a 95       	dec	r20
     c04:	e2 f7       	brpl	.-8      	; 0xbfe <PORTA_set_pin_level+0x58>
     c06:	80 95       	com	r24
     c08:	86 23       	and	r24, r22
     c0a:	f9 01       	movw	r30, r18
     c0c:	81 83       	std	Z+1, r24	; 0x01
     c0e:	00 00       	nop
     c10:	0f 90       	pop	r0
     c12:	0f 90       	pop	r0
     c14:	df 91       	pop	r29
     c16:	cf 91       	pop	r28
     c18:	08 95       	ret

00000c1a <PORTB_set_pin_pull_mode>:
     c1a:	cf 93       	push	r28
     c1c:	df 93       	push	r29
     c1e:	00 d0       	rcall	.+0      	; 0xc20 <PORTB_set_pin_pull_mode+0x6>
     c20:	00 d0       	rcall	.+0      	; 0xc22 <PORTB_set_pin_pull_mode+0x8>
     c22:	cd b7       	in	r28, 0x3d	; 61
     c24:	de b7       	in	r29, 0x3e	; 62
     c26:	8b 83       	std	Y+3, r24	; 0x03
     c28:	6c 83       	std	Y+4, r22	; 0x04
     c2a:	8b 81       	ldd	r24, Y+3	; 0x03
     c2c:	88 2f       	mov	r24, r24
     c2e:	90 e0       	ldi	r25, 0x00	; 0
     c30:	80 5d       	subi	r24, 0xD0	; 208
     c32:	9b 4f       	sbci	r25, 0xFB	; 251
     c34:	89 83       	std	Y+1, r24	; 0x01
     c36:	9a 83       	std	Y+2, r25	; 0x02
     c38:	8c 81       	ldd	r24, Y+4	; 0x04
     c3a:	81 30       	cpi	r24, 0x01	; 1
     c3c:	59 f4       	brne	.+22     	; 0xc54 <PORTB_set_pin_pull_mode+0x3a>
     c3e:	89 81       	ldd	r24, Y+1	; 0x01
     c40:	9a 81       	ldd	r25, Y+2	; 0x02
     c42:	fc 01       	movw	r30, r24
     c44:	80 81       	ld	r24, Z
     c46:	28 2f       	mov	r18, r24
     c48:	28 60       	ori	r18, 0x08	; 8
     c4a:	89 81       	ldd	r24, Y+1	; 0x01
     c4c:	9a 81       	ldd	r25, Y+2	; 0x02
     c4e:	fc 01       	movw	r30, r24
     c50:	20 83       	st	Z, r18
     c52:	0d c0       	rjmp	.+26     	; 0xc6e <PORTB_set_pin_pull_mode+0x54>
     c54:	8c 81       	ldd	r24, Y+4	; 0x04
     c56:	88 23       	and	r24, r24
     c58:	51 f4       	brne	.+20     	; 0xc6e <PORTB_set_pin_pull_mode+0x54>
     c5a:	89 81       	ldd	r24, Y+1	; 0x01
     c5c:	9a 81       	ldd	r25, Y+2	; 0x02
     c5e:	fc 01       	movw	r30, r24
     c60:	80 81       	ld	r24, Z
     c62:	28 2f       	mov	r18, r24
     c64:	27 7f       	andi	r18, 0xF7	; 247
     c66:	89 81       	ldd	r24, Y+1	; 0x01
     c68:	9a 81       	ldd	r25, Y+2	; 0x02
     c6a:	fc 01       	movw	r30, r24
     c6c:	20 83       	st	Z, r18
     c6e:	00 00       	nop
     c70:	24 96       	adiw	r28, 0x04	; 4
     c72:	cd bf       	out	0x3d, r28	; 61
     c74:	de bf       	out	0x3e, r29	; 62
     c76:	df 91       	pop	r29
     c78:	cf 91       	pop	r28
     c7a:	08 95       	ret

00000c7c <PORTB_set_pin_dir>:
     c7c:	cf 93       	push	r28
     c7e:	df 93       	push	r29
     c80:	00 d0       	rcall	.+0      	; 0xc82 <PORTB_set_pin_dir+0x6>
     c82:	cd b7       	in	r28, 0x3d	; 61
     c84:	de b7       	in	r29, 0x3e	; 62
     c86:	89 83       	std	Y+1, r24	; 0x01
     c88:	6a 83       	std	Y+2, r22	; 0x02
     c8a:	8a 81       	ldd	r24, Y+2	; 0x02
     c8c:	88 2f       	mov	r24, r24
     c8e:	90 e0       	ldi	r25, 0x00	; 0
     c90:	81 30       	cpi	r24, 0x01	; 1
     c92:	91 05       	cpc	r25, r1
     c94:	e1 f0       	breq	.+56     	; 0xcce <PORTB_set_pin_dir+0x52>
     c96:	82 30       	cpi	r24, 0x02	; 2
     c98:	91 05       	cpc	r25, r1
     c9a:	71 f1       	breq	.+92     	; 0xcf8 <PORTB_set_pin_dir+0x7c>
     c9c:	89 2b       	or	r24, r25
     c9e:	09 f0       	breq	.+2      	; 0xca2 <PORTB_set_pin_dir+0x26>
     ca0:	3b c0       	rjmp	.+118    	; 0xd18 <PORTB_set_pin_dir+0x9c>
     ca2:	84 e0       	ldi	r24, 0x04	; 4
     ca4:	90 e0       	ldi	r25, 0x00	; 0
     ca6:	24 e0       	ldi	r18, 0x04	; 4
     ca8:	30 e0       	ldi	r19, 0x00	; 0
     caa:	f9 01       	movw	r30, r18
     cac:	20 81       	ld	r18, Z
     cae:	62 2f       	mov	r22, r18
     cb0:	29 81       	ldd	r18, Y+1	; 0x01
     cb2:	42 2f       	mov	r20, r18
     cb4:	50 e0       	ldi	r21, 0x00	; 0
     cb6:	21 e0       	ldi	r18, 0x01	; 1
     cb8:	30 e0       	ldi	r19, 0x00	; 0
     cba:	02 c0       	rjmp	.+4      	; 0xcc0 <PORTB_set_pin_dir+0x44>
     cbc:	22 0f       	add	r18, r18
     cbe:	33 1f       	adc	r19, r19
     cc0:	4a 95       	dec	r20
     cc2:	e2 f7       	brpl	.-8      	; 0xcbc <PORTB_set_pin_dir+0x40>
     cc4:	20 95       	com	r18
     cc6:	26 23       	and	r18, r22
     cc8:	fc 01       	movw	r30, r24
     cca:	20 83       	st	Z, r18
     ccc:	25 c0       	rjmp	.+74     	; 0xd18 <PORTB_set_pin_dir+0x9c>
     cce:	84 e0       	ldi	r24, 0x04	; 4
     cd0:	90 e0       	ldi	r25, 0x00	; 0
     cd2:	24 e0       	ldi	r18, 0x04	; 4
     cd4:	30 e0       	ldi	r19, 0x00	; 0
     cd6:	f9 01       	movw	r30, r18
     cd8:	20 81       	ld	r18, Z
     cda:	62 2f       	mov	r22, r18
     cdc:	29 81       	ldd	r18, Y+1	; 0x01
     cde:	42 2f       	mov	r20, r18
     ce0:	50 e0       	ldi	r21, 0x00	; 0
     ce2:	21 e0       	ldi	r18, 0x01	; 1
     ce4:	30 e0       	ldi	r19, 0x00	; 0
     ce6:	02 c0       	rjmp	.+4      	; 0xcec <PORTB_set_pin_dir+0x70>
     ce8:	22 0f       	add	r18, r18
     cea:	33 1f       	adc	r19, r19
     cec:	4a 95       	dec	r20
     cee:	e2 f7       	brpl	.-8      	; 0xce8 <PORTB_set_pin_dir+0x6c>
     cf0:	26 2b       	or	r18, r22
     cf2:	fc 01       	movw	r30, r24
     cf4:	20 83       	st	Z, r18
     cf6:	10 c0       	rjmp	.+32     	; 0xd18 <PORTB_set_pin_dir+0x9c>
     cf8:	89 81       	ldd	r24, Y+1	; 0x01
     cfa:	88 2f       	mov	r24, r24
     cfc:	90 e0       	ldi	r25, 0x00	; 0
     cfe:	80 5d       	subi	r24, 0xD0	; 208
     d00:	9b 4f       	sbci	r25, 0xFB	; 251
     d02:	29 81       	ldd	r18, Y+1	; 0x01
     d04:	22 2f       	mov	r18, r18
     d06:	30 e0       	ldi	r19, 0x00	; 0
     d08:	20 5d       	subi	r18, 0xD0	; 208
     d0a:	3b 4f       	sbci	r19, 0xFB	; 251
     d0c:	f9 01       	movw	r30, r18
     d0e:	20 81       	ld	r18, Z
     d10:	28 60       	ori	r18, 0x08	; 8
     d12:	fc 01       	movw	r30, r24
     d14:	20 83       	st	Z, r18
     d16:	00 00       	nop
     d18:	00 00       	nop
     d1a:	0f 90       	pop	r0
     d1c:	0f 90       	pop	r0
     d1e:	df 91       	pop	r29
     d20:	cf 91       	pop	r28
     d22:	08 95       	ret

00000d24 <PORTB_set_pin_level>:
     d24:	cf 93       	push	r28
     d26:	df 93       	push	r29
     d28:	00 d0       	rcall	.+0      	; 0xd2a <PORTB_set_pin_level+0x6>
     d2a:	cd b7       	in	r28, 0x3d	; 61
     d2c:	de b7       	in	r29, 0x3e	; 62
     d2e:	89 83       	std	Y+1, r24	; 0x01
     d30:	6a 83       	std	Y+2, r22	; 0x02
     d32:	8a 81       	ldd	r24, Y+2	; 0x02
     d34:	88 23       	and	r24, r24
     d36:	a9 f0       	breq	.+42     	; 0xd62 <PORTB_set_pin_level+0x3e>
     d38:	84 e0       	ldi	r24, 0x04	; 4
     d3a:	90 e0       	ldi	r25, 0x00	; 0
     d3c:	24 e0       	ldi	r18, 0x04	; 4
     d3e:	30 e0       	ldi	r19, 0x00	; 0
     d40:	f9 01       	movw	r30, r18
     d42:	21 81       	ldd	r18, Z+1	; 0x01
     d44:	62 2f       	mov	r22, r18
     d46:	29 81       	ldd	r18, Y+1	; 0x01
     d48:	42 2f       	mov	r20, r18
     d4a:	50 e0       	ldi	r21, 0x00	; 0
     d4c:	21 e0       	ldi	r18, 0x01	; 1
     d4e:	30 e0       	ldi	r19, 0x00	; 0
     d50:	02 c0       	rjmp	.+4      	; 0xd56 <PORTB_set_pin_level+0x32>
     d52:	22 0f       	add	r18, r18
     d54:	33 1f       	adc	r19, r19
     d56:	4a 95       	dec	r20
     d58:	e2 f7       	brpl	.-8      	; 0xd52 <PORTB_set_pin_level+0x2e>
     d5a:	26 2b       	or	r18, r22
     d5c:	fc 01       	movw	r30, r24
     d5e:	21 83       	std	Z+1, r18	; 0x01
     d60:	15 c0       	rjmp	.+42     	; 0xd8c <PORTB_set_pin_level+0x68>
     d62:	84 e0       	ldi	r24, 0x04	; 4
     d64:	90 e0       	ldi	r25, 0x00	; 0
     d66:	24 e0       	ldi	r18, 0x04	; 4
     d68:	30 e0       	ldi	r19, 0x00	; 0
     d6a:	f9 01       	movw	r30, r18
     d6c:	21 81       	ldd	r18, Z+1	; 0x01
     d6e:	62 2f       	mov	r22, r18
     d70:	29 81       	ldd	r18, Y+1	; 0x01
     d72:	42 2f       	mov	r20, r18
     d74:	50 e0       	ldi	r21, 0x00	; 0
     d76:	21 e0       	ldi	r18, 0x01	; 1
     d78:	30 e0       	ldi	r19, 0x00	; 0
     d7a:	02 c0       	rjmp	.+4      	; 0xd80 <PORTB_set_pin_level+0x5c>
     d7c:	22 0f       	add	r18, r18
     d7e:	33 1f       	adc	r19, r19
     d80:	4a 95       	dec	r20
     d82:	e2 f7       	brpl	.-8      	; 0xd7c <PORTB_set_pin_level+0x58>
     d84:	20 95       	com	r18
     d86:	26 23       	and	r18, r22
     d88:	fc 01       	movw	r30, r24
     d8a:	21 83       	std	Z+1, r18	; 0x01
     d8c:	00 00       	nop
     d8e:	0f 90       	pop	r0
     d90:	0f 90       	pop	r0
     d92:	df 91       	pop	r29
     d94:	cf 91       	pop	r28
     d96:	08 95       	ret

00000d98 <PORTC_set_pin_pull_mode>:
     d98:	cf 93       	push	r28
     d9a:	df 93       	push	r29
     d9c:	00 d0       	rcall	.+0      	; 0xd9e <PORTC_set_pin_pull_mode+0x6>
     d9e:	00 d0       	rcall	.+0      	; 0xda0 <PORTC_set_pin_pull_mode+0x8>
     da0:	cd b7       	in	r28, 0x3d	; 61
     da2:	de b7       	in	r29, 0x3e	; 62
     da4:	8b 83       	std	Y+3, r24	; 0x03
     da6:	6c 83       	std	Y+4, r22	; 0x04
     da8:	8b 81       	ldd	r24, Y+3	; 0x03
     daa:	88 2f       	mov	r24, r24
     dac:	90 e0       	ldi	r25, 0x00	; 0
     dae:	80 5b       	subi	r24, 0xB0	; 176
     db0:	9b 4f       	sbci	r25, 0xFB	; 251
     db2:	89 83       	std	Y+1, r24	; 0x01
     db4:	9a 83       	std	Y+2, r25	; 0x02
     db6:	8c 81       	ldd	r24, Y+4	; 0x04
     db8:	81 30       	cpi	r24, 0x01	; 1
     dba:	59 f4       	brne	.+22     	; 0xdd2 <PORTC_set_pin_pull_mode+0x3a>
     dbc:	89 81       	ldd	r24, Y+1	; 0x01
     dbe:	9a 81       	ldd	r25, Y+2	; 0x02
     dc0:	fc 01       	movw	r30, r24
     dc2:	80 81       	ld	r24, Z
     dc4:	28 2f       	mov	r18, r24
     dc6:	28 60       	ori	r18, 0x08	; 8
     dc8:	89 81       	ldd	r24, Y+1	; 0x01
     dca:	9a 81       	ldd	r25, Y+2	; 0x02
     dcc:	fc 01       	movw	r30, r24
     dce:	20 83       	st	Z, r18
     dd0:	0d c0       	rjmp	.+26     	; 0xdec <PORTC_set_pin_pull_mode+0x54>
     dd2:	8c 81       	ldd	r24, Y+4	; 0x04
     dd4:	88 23       	and	r24, r24
     dd6:	51 f4       	brne	.+20     	; 0xdec <PORTC_set_pin_pull_mode+0x54>
     dd8:	89 81       	ldd	r24, Y+1	; 0x01
     dda:	9a 81       	ldd	r25, Y+2	; 0x02
     ddc:	fc 01       	movw	r30, r24
     dde:	80 81       	ld	r24, Z
     de0:	28 2f       	mov	r18, r24
     de2:	27 7f       	andi	r18, 0xF7	; 247
     de4:	89 81       	ldd	r24, Y+1	; 0x01
     de6:	9a 81       	ldd	r25, Y+2	; 0x02
     de8:	fc 01       	movw	r30, r24
     dea:	20 83       	st	Z, r18
     dec:	00 00       	nop
     dee:	24 96       	adiw	r28, 0x04	; 4
     df0:	cd bf       	out	0x3d, r28	; 61
     df2:	de bf       	out	0x3e, r29	; 62
     df4:	df 91       	pop	r29
     df6:	cf 91       	pop	r28
     df8:	08 95       	ret

00000dfa <PORTC_pin_set_inverted>:
     dfa:	cf 93       	push	r28
     dfc:	df 93       	push	r29
     dfe:	00 d0       	rcall	.+0      	; 0xe00 <PORTC_pin_set_inverted+0x6>
     e00:	00 d0       	rcall	.+0      	; 0xe02 <PORTC_pin_set_inverted+0x8>
     e02:	cd b7       	in	r28, 0x3d	; 61
     e04:	de b7       	in	r29, 0x3e	; 62
     e06:	8b 83       	std	Y+3, r24	; 0x03
     e08:	6c 83       	std	Y+4, r22	; 0x04
     e0a:	8b 81       	ldd	r24, Y+3	; 0x03
     e0c:	88 2f       	mov	r24, r24
     e0e:	90 e0       	ldi	r25, 0x00	; 0
     e10:	80 5b       	subi	r24, 0xB0	; 176
     e12:	9b 4f       	sbci	r25, 0xFB	; 251
     e14:	89 83       	std	Y+1, r24	; 0x01
     e16:	9a 83       	std	Y+2, r25	; 0x02
     e18:	8c 81       	ldd	r24, Y+4	; 0x04
     e1a:	88 23       	and	r24, r24
     e1c:	59 f0       	breq	.+22     	; 0xe34 <PORTC_pin_set_inverted+0x3a>
     e1e:	89 81       	ldd	r24, Y+1	; 0x01
     e20:	9a 81       	ldd	r25, Y+2	; 0x02
     e22:	fc 01       	movw	r30, r24
     e24:	80 81       	ld	r24, Z
     e26:	28 2f       	mov	r18, r24
     e28:	20 68       	ori	r18, 0x80	; 128
     e2a:	89 81       	ldd	r24, Y+1	; 0x01
     e2c:	9a 81       	ldd	r25, Y+2	; 0x02
     e2e:	fc 01       	movw	r30, r24
     e30:	20 83       	st	Z, r18
     e32:	0a c0       	rjmp	.+20     	; 0xe48 <PORTC_pin_set_inverted+0x4e>
     e34:	89 81       	ldd	r24, Y+1	; 0x01
     e36:	9a 81       	ldd	r25, Y+2	; 0x02
     e38:	fc 01       	movw	r30, r24
     e3a:	80 81       	ld	r24, Z
     e3c:	28 2f       	mov	r18, r24
     e3e:	2f 77       	andi	r18, 0x7F	; 127
     e40:	89 81       	ldd	r24, Y+1	; 0x01
     e42:	9a 81       	ldd	r25, Y+2	; 0x02
     e44:	fc 01       	movw	r30, r24
     e46:	20 83       	st	Z, r18
     e48:	00 00       	nop
     e4a:	24 96       	adiw	r28, 0x04	; 4
     e4c:	cd bf       	out	0x3d, r28	; 61
     e4e:	de bf       	out	0x3e, r29	; 62
     e50:	df 91       	pop	r29
     e52:	cf 91       	pop	r28
     e54:	08 95       	ret

00000e56 <PORTC_pin_set_isc>:
     e56:	cf 93       	push	r28
     e58:	df 93       	push	r29
     e5a:	00 d0       	rcall	.+0      	; 0xe5c <PORTC_pin_set_isc+0x6>
     e5c:	00 d0       	rcall	.+0      	; 0xe5e <PORTC_pin_set_isc+0x8>
     e5e:	cd b7       	in	r28, 0x3d	; 61
     e60:	de b7       	in	r29, 0x3e	; 62
     e62:	8b 83       	std	Y+3, r24	; 0x03
     e64:	6c 83       	std	Y+4, r22	; 0x04
     e66:	8b 81       	ldd	r24, Y+3	; 0x03
     e68:	88 2f       	mov	r24, r24
     e6a:	90 e0       	ldi	r25, 0x00	; 0
     e6c:	80 5b       	subi	r24, 0xB0	; 176
     e6e:	9b 4f       	sbci	r25, 0xFB	; 251
     e70:	89 83       	std	Y+1, r24	; 0x01
     e72:	9a 83       	std	Y+2, r25	; 0x02
     e74:	89 81       	ldd	r24, Y+1	; 0x01
     e76:	9a 81       	ldd	r25, Y+2	; 0x02
     e78:	fc 01       	movw	r30, r24
     e7a:	80 81       	ld	r24, Z
     e7c:	98 2f       	mov	r25, r24
     e7e:	98 7f       	andi	r25, 0xF8	; 248
     e80:	8c 81       	ldd	r24, Y+4	; 0x04
     e82:	89 2b       	or	r24, r25
     e84:	28 2f       	mov	r18, r24
     e86:	89 81       	ldd	r24, Y+1	; 0x01
     e88:	9a 81       	ldd	r25, Y+2	; 0x02
     e8a:	fc 01       	movw	r30, r24
     e8c:	20 83       	st	Z, r18
     e8e:	00 00       	nop
     e90:	24 96       	adiw	r28, 0x04	; 4
     e92:	cd bf       	out	0x3d, r28	; 61
     e94:	de bf       	out	0x3e, r29	; 62
     e96:	df 91       	pop	r29
     e98:	cf 91       	pop	r28
     e9a:	08 95       	ret

00000e9c <PORTC_set_pin_dir>:
     e9c:	cf 93       	push	r28
     e9e:	df 93       	push	r29
     ea0:	00 d0       	rcall	.+0      	; 0xea2 <PORTC_set_pin_dir+0x6>
     ea2:	cd b7       	in	r28, 0x3d	; 61
     ea4:	de b7       	in	r29, 0x3e	; 62
     ea6:	89 83       	std	Y+1, r24	; 0x01
     ea8:	6a 83       	std	Y+2, r22	; 0x02
     eaa:	8a 81       	ldd	r24, Y+2	; 0x02
     eac:	88 2f       	mov	r24, r24
     eae:	90 e0       	ldi	r25, 0x00	; 0
     eb0:	81 30       	cpi	r24, 0x01	; 1
     eb2:	91 05       	cpc	r25, r1
     eb4:	e1 f0       	breq	.+56     	; 0xeee <PORTC_set_pin_dir+0x52>
     eb6:	82 30       	cpi	r24, 0x02	; 2
     eb8:	91 05       	cpc	r25, r1
     eba:	71 f1       	breq	.+92     	; 0xf18 <PORTC_set_pin_dir+0x7c>
     ebc:	89 2b       	or	r24, r25
     ebe:	09 f0       	breq	.+2      	; 0xec2 <PORTC_set_pin_dir+0x26>
     ec0:	3b c0       	rjmp	.+118    	; 0xf38 <PORTC_set_pin_dir+0x9c>
     ec2:	88 e0       	ldi	r24, 0x08	; 8
     ec4:	90 e0       	ldi	r25, 0x00	; 0
     ec6:	28 e0       	ldi	r18, 0x08	; 8
     ec8:	30 e0       	ldi	r19, 0x00	; 0
     eca:	f9 01       	movw	r30, r18
     ecc:	20 81       	ld	r18, Z
     ece:	62 2f       	mov	r22, r18
     ed0:	29 81       	ldd	r18, Y+1	; 0x01
     ed2:	42 2f       	mov	r20, r18
     ed4:	50 e0       	ldi	r21, 0x00	; 0
     ed6:	21 e0       	ldi	r18, 0x01	; 1
     ed8:	30 e0       	ldi	r19, 0x00	; 0
     eda:	02 c0       	rjmp	.+4      	; 0xee0 <PORTC_set_pin_dir+0x44>
     edc:	22 0f       	add	r18, r18
     ede:	33 1f       	adc	r19, r19
     ee0:	4a 95       	dec	r20
     ee2:	e2 f7       	brpl	.-8      	; 0xedc <PORTC_set_pin_dir+0x40>
     ee4:	20 95       	com	r18
     ee6:	26 23       	and	r18, r22
     ee8:	fc 01       	movw	r30, r24
     eea:	20 83       	st	Z, r18
     eec:	25 c0       	rjmp	.+74     	; 0xf38 <PORTC_set_pin_dir+0x9c>
     eee:	88 e0       	ldi	r24, 0x08	; 8
     ef0:	90 e0       	ldi	r25, 0x00	; 0
     ef2:	28 e0       	ldi	r18, 0x08	; 8
     ef4:	30 e0       	ldi	r19, 0x00	; 0
     ef6:	f9 01       	movw	r30, r18
     ef8:	20 81       	ld	r18, Z
     efa:	62 2f       	mov	r22, r18
     efc:	29 81       	ldd	r18, Y+1	; 0x01
     efe:	42 2f       	mov	r20, r18
     f00:	50 e0       	ldi	r21, 0x00	; 0
     f02:	21 e0       	ldi	r18, 0x01	; 1
     f04:	30 e0       	ldi	r19, 0x00	; 0
     f06:	02 c0       	rjmp	.+4      	; 0xf0c <PORTC_set_pin_dir+0x70>
     f08:	22 0f       	add	r18, r18
     f0a:	33 1f       	adc	r19, r19
     f0c:	4a 95       	dec	r20
     f0e:	e2 f7       	brpl	.-8      	; 0xf08 <PORTC_set_pin_dir+0x6c>
     f10:	26 2b       	or	r18, r22
     f12:	fc 01       	movw	r30, r24
     f14:	20 83       	st	Z, r18
     f16:	10 c0       	rjmp	.+32     	; 0xf38 <PORTC_set_pin_dir+0x9c>
     f18:	89 81       	ldd	r24, Y+1	; 0x01
     f1a:	88 2f       	mov	r24, r24
     f1c:	90 e0       	ldi	r25, 0x00	; 0
     f1e:	80 5b       	subi	r24, 0xB0	; 176
     f20:	9b 4f       	sbci	r25, 0xFB	; 251
     f22:	29 81       	ldd	r18, Y+1	; 0x01
     f24:	22 2f       	mov	r18, r18
     f26:	30 e0       	ldi	r19, 0x00	; 0
     f28:	20 5b       	subi	r18, 0xB0	; 176
     f2a:	3b 4f       	sbci	r19, 0xFB	; 251
     f2c:	f9 01       	movw	r30, r18
     f2e:	20 81       	ld	r18, Z
     f30:	28 60       	ori	r18, 0x08	; 8
     f32:	fc 01       	movw	r30, r24
     f34:	20 83       	st	Z, r18
     f36:	00 00       	nop
     f38:	00 00       	nop
     f3a:	0f 90       	pop	r0
     f3c:	0f 90       	pop	r0
     f3e:	df 91       	pop	r29
     f40:	cf 91       	pop	r28
     f42:	08 95       	ret

00000f44 <PORTC_set_pin_level>:
     f44:	cf 93       	push	r28
     f46:	df 93       	push	r29
     f48:	00 d0       	rcall	.+0      	; 0xf4a <PORTC_set_pin_level+0x6>
     f4a:	cd b7       	in	r28, 0x3d	; 61
     f4c:	de b7       	in	r29, 0x3e	; 62
     f4e:	89 83       	std	Y+1, r24	; 0x01
     f50:	6a 83       	std	Y+2, r22	; 0x02
     f52:	8a 81       	ldd	r24, Y+2	; 0x02
     f54:	88 23       	and	r24, r24
     f56:	a9 f0       	breq	.+42     	; 0xf82 <PORTC_set_pin_level+0x3e>
     f58:	88 e0       	ldi	r24, 0x08	; 8
     f5a:	90 e0       	ldi	r25, 0x00	; 0
     f5c:	28 e0       	ldi	r18, 0x08	; 8
     f5e:	30 e0       	ldi	r19, 0x00	; 0
     f60:	f9 01       	movw	r30, r18
     f62:	21 81       	ldd	r18, Z+1	; 0x01
     f64:	62 2f       	mov	r22, r18
     f66:	29 81       	ldd	r18, Y+1	; 0x01
     f68:	42 2f       	mov	r20, r18
     f6a:	50 e0       	ldi	r21, 0x00	; 0
     f6c:	21 e0       	ldi	r18, 0x01	; 1
     f6e:	30 e0       	ldi	r19, 0x00	; 0
     f70:	02 c0       	rjmp	.+4      	; 0xf76 <PORTC_set_pin_level+0x32>
     f72:	22 0f       	add	r18, r18
     f74:	33 1f       	adc	r19, r19
     f76:	4a 95       	dec	r20
     f78:	e2 f7       	brpl	.-8      	; 0xf72 <PORTC_set_pin_level+0x2e>
     f7a:	26 2b       	or	r18, r22
     f7c:	fc 01       	movw	r30, r24
     f7e:	21 83       	std	Z+1, r18	; 0x01
     f80:	15 c0       	rjmp	.+42     	; 0xfac <PORTC_set_pin_level+0x68>
     f82:	88 e0       	ldi	r24, 0x08	; 8
     f84:	90 e0       	ldi	r25, 0x00	; 0
     f86:	28 e0       	ldi	r18, 0x08	; 8
     f88:	30 e0       	ldi	r19, 0x00	; 0
     f8a:	f9 01       	movw	r30, r18
     f8c:	21 81       	ldd	r18, Z+1	; 0x01
     f8e:	62 2f       	mov	r22, r18
     f90:	29 81       	ldd	r18, Y+1	; 0x01
     f92:	42 2f       	mov	r20, r18
     f94:	50 e0       	ldi	r21, 0x00	; 0
     f96:	21 e0       	ldi	r18, 0x01	; 1
     f98:	30 e0       	ldi	r19, 0x00	; 0
     f9a:	02 c0       	rjmp	.+4      	; 0xfa0 <PORTC_set_pin_level+0x5c>
     f9c:	22 0f       	add	r18, r18
     f9e:	33 1f       	adc	r19, r19
     fa0:	4a 95       	dec	r20
     fa2:	e2 f7       	brpl	.-8      	; 0xf9c <PORTC_set_pin_level+0x58>
     fa4:	20 95       	com	r18
     fa6:	26 23       	and	r18, r22
     fa8:	fc 01       	movw	r30, r24
     faa:	21 83       	std	Z+1, r18	; 0x01
     fac:	00 00       	nop
     fae:	0f 90       	pop	r0
     fb0:	0f 90       	pop	r0
     fb2:	df 91       	pop	r29
     fb4:	cf 91       	pop	r28
     fb6:	08 95       	ret

00000fb8 <CONF_WIFI_M2M_RESET_PIN_set_dir>:
     fb8:	cf 93       	push	r28
     fba:	df 93       	push	r29
     fbc:	1f 92       	push	r1
     fbe:	cd b7       	in	r28, 0x3d	; 61
     fc0:	de b7       	in	r29, 0x3e	; 62
     fc2:	89 83       	std	Y+1, r24	; 0x01
     fc4:	69 81       	ldd	r22, Y+1	; 0x01
     fc6:	82 e0       	ldi	r24, 0x02	; 2
     fc8:	0e 94 7f 05 	call	0xafe	; 0xafe <PORTA_set_pin_dir>
     fcc:	00 00       	nop
     fce:	0f 90       	pop	r0
     fd0:	df 91       	pop	r29
     fd2:	cf 91       	pop	r28
     fd4:	08 95       	ret

00000fd6 <CONF_WIFI_M2M_RESET_PIN_set_level>:
     fd6:	cf 93       	push	r28
     fd8:	df 93       	push	r29
     fda:	1f 92       	push	r1
     fdc:	cd b7       	in	r28, 0x3d	; 61
     fde:	de b7       	in	r29, 0x3e	; 62
     fe0:	89 83       	std	Y+1, r24	; 0x01
     fe2:	69 81       	ldd	r22, Y+1	; 0x01
     fe4:	82 e0       	ldi	r24, 0x02	; 2
     fe6:	0e 94 d3 05 	call	0xba6	; 0xba6 <PORTA_set_pin_level>
     fea:	00 00       	nop
     fec:	0f 90       	pop	r0
     fee:	df 91       	pop	r29
     ff0:	cf 91       	pop	r28
     ff2:	08 95       	ret

00000ff4 <CONF_WIFI_M2M_WAKE_PIN_set_dir>:
     ff4:	cf 93       	push	r28
     ff6:	df 93       	push	r29
     ff8:	1f 92       	push	r1
     ffa:	cd b7       	in	r28, 0x3d	; 61
     ffc:	de b7       	in	r29, 0x3e	; 62
     ffe:	89 83       	std	Y+1, r24	; 0x01
    1000:	69 81       	ldd	r22, Y+1	; 0x01
    1002:	83 e0       	ldi	r24, 0x03	; 3
    1004:	0e 94 7f 05 	call	0xafe	; 0xafe <PORTA_set_pin_dir>
    1008:	00 00       	nop
    100a:	0f 90       	pop	r0
    100c:	df 91       	pop	r29
    100e:	cf 91       	pop	r28
    1010:	08 95       	ret

00001012 <CONF_WIFI_M2M_WAKE_PIN_set_level>:
    1012:	cf 93       	push	r28
    1014:	df 93       	push	r29
    1016:	1f 92       	push	r1
    1018:	cd b7       	in	r28, 0x3d	; 61
    101a:	de b7       	in	r29, 0x3e	; 62
    101c:	89 83       	std	Y+1, r24	; 0x01
    101e:	69 81       	ldd	r22, Y+1	; 0x01
    1020:	83 e0       	ldi	r24, 0x03	; 3
    1022:	0e 94 d3 05 	call	0xba6	; 0xba6 <PORTA_set_pin_level>
    1026:	00 00       	nop
    1028:	0f 90       	pop	r0
    102a:	df 91       	pop	r29
    102c:	cf 91       	pop	r28
    102e:	08 95       	ret

00001030 <CONF_WIFI_M2M_SPI_MOSI_PIN_set_dir>:
    1030:	cf 93       	push	r28
    1032:	df 93       	push	r29
    1034:	1f 92       	push	r1
    1036:	cd b7       	in	r28, 0x3d	; 61
    1038:	de b7       	in	r29, 0x3e	; 62
    103a:	89 83       	std	Y+1, r24	; 0x01
    103c:	69 81       	ldd	r22, Y+1	; 0x01
    103e:	84 e0       	ldi	r24, 0x04	; 4
    1040:	0e 94 7f 05 	call	0xafe	; 0xafe <PORTA_set_pin_dir>
    1044:	00 00       	nop
    1046:	0f 90       	pop	r0
    1048:	df 91       	pop	r29
    104a:	cf 91       	pop	r28
    104c:	08 95       	ret

0000104e <CONF_WIFI_M2M_SPI_MOSI_PIN_set_level>:
    104e:	cf 93       	push	r28
    1050:	df 93       	push	r29
    1052:	1f 92       	push	r1
    1054:	cd b7       	in	r28, 0x3d	; 61
    1056:	de b7       	in	r29, 0x3e	; 62
    1058:	89 83       	std	Y+1, r24	; 0x01
    105a:	69 81       	ldd	r22, Y+1	; 0x01
    105c:	84 e0       	ldi	r24, 0x04	; 4
    105e:	0e 94 d3 05 	call	0xba6	; 0xba6 <PORTA_set_pin_level>
    1062:	00 00       	nop
    1064:	0f 90       	pop	r0
    1066:	df 91       	pop	r29
    1068:	cf 91       	pop	r28
    106a:	08 95       	ret

0000106c <CONF_WIFI_M2M_SPI_MISO_PIN_set_pull_mode>:
    106c:	cf 93       	push	r28
    106e:	df 93       	push	r29
    1070:	1f 92       	push	r1
    1072:	cd b7       	in	r28, 0x3d	; 61
    1074:	de b7       	in	r29, 0x3e	; 62
    1076:	89 83       	std	Y+1, r24	; 0x01
    1078:	69 81       	ldd	r22, Y+1	; 0x01
    107a:	85 e0       	ldi	r24, 0x05	; 5
    107c:	0e 94 4e 05 	call	0xa9c	; 0xa9c <PORTA_set_pin_pull_mode>
    1080:	00 00       	nop
    1082:	0f 90       	pop	r0
    1084:	df 91       	pop	r29
    1086:	cf 91       	pop	r28
    1088:	08 95       	ret

0000108a <CONF_WIFI_M2M_SPI_MISO_PIN_set_dir>:
    108a:	cf 93       	push	r28
    108c:	df 93       	push	r29
    108e:	1f 92       	push	r1
    1090:	cd b7       	in	r28, 0x3d	; 61
    1092:	de b7       	in	r29, 0x3e	; 62
    1094:	89 83       	std	Y+1, r24	; 0x01
    1096:	69 81       	ldd	r22, Y+1	; 0x01
    1098:	85 e0       	ldi	r24, 0x05	; 5
    109a:	0e 94 7f 05 	call	0xafe	; 0xafe <PORTA_set_pin_dir>
    109e:	00 00       	nop
    10a0:	0f 90       	pop	r0
    10a2:	df 91       	pop	r29
    10a4:	cf 91       	pop	r28
    10a6:	08 95       	ret

000010a8 <CONF_WIFI_M2M_SPI_SCK_PIN_set_dir>:
    10a8:	cf 93       	push	r28
    10aa:	df 93       	push	r29
    10ac:	1f 92       	push	r1
    10ae:	cd b7       	in	r28, 0x3d	; 61
    10b0:	de b7       	in	r29, 0x3e	; 62
    10b2:	89 83       	std	Y+1, r24	; 0x01
    10b4:	69 81       	ldd	r22, Y+1	; 0x01
    10b6:	86 e0       	ldi	r24, 0x06	; 6
    10b8:	0e 94 7f 05 	call	0xafe	; 0xafe <PORTA_set_pin_dir>
    10bc:	00 00       	nop
    10be:	0f 90       	pop	r0
    10c0:	df 91       	pop	r29
    10c2:	cf 91       	pop	r28
    10c4:	08 95       	ret

000010c6 <CONF_WIFI_M2M_SPI_SCK_PIN_set_level>:
    10c6:	cf 93       	push	r28
    10c8:	df 93       	push	r29
    10ca:	1f 92       	push	r1
    10cc:	cd b7       	in	r28, 0x3d	; 61
    10ce:	de b7       	in	r29, 0x3e	; 62
    10d0:	89 83       	std	Y+1, r24	; 0x01
    10d2:	69 81       	ldd	r22, Y+1	; 0x01
    10d4:	86 e0       	ldi	r24, 0x06	; 6
    10d6:	0e 94 d3 05 	call	0xba6	; 0xba6 <PORTA_set_pin_level>
    10da:	00 00       	nop
    10dc:	0f 90       	pop	r0
    10de:	df 91       	pop	r29
    10e0:	cf 91       	pop	r28
    10e2:	08 95       	ret

000010e4 <CONF_WIFI_M2M_SPI_CS_PIN_set_dir>:
    10e4:	cf 93       	push	r28
    10e6:	df 93       	push	r29
    10e8:	1f 92       	push	r1
    10ea:	cd b7       	in	r28, 0x3d	; 61
    10ec:	de b7       	in	r29, 0x3e	; 62
    10ee:	89 83       	std	Y+1, r24	; 0x01
    10f0:	69 81       	ldd	r22, Y+1	; 0x01
    10f2:	87 e0       	ldi	r24, 0x07	; 7
    10f4:	0e 94 7f 05 	call	0xafe	; 0xafe <PORTA_set_pin_dir>
    10f8:	00 00       	nop
    10fa:	0f 90       	pop	r0
    10fc:	df 91       	pop	r29
    10fe:	cf 91       	pop	r28
    1100:	08 95       	ret

00001102 <CONF_WIFI_M2M_SPI_CS_PIN_set_level>:
    1102:	cf 93       	push	r28
    1104:	df 93       	push	r29
    1106:	1f 92       	push	r1
    1108:	cd b7       	in	r28, 0x3d	; 61
    110a:	de b7       	in	r29, 0x3e	; 62
    110c:	89 83       	std	Y+1, r24	; 0x01
    110e:	69 81       	ldd	r22, Y+1	; 0x01
    1110:	87 e0       	ldi	r24, 0x07	; 7
    1112:	0e 94 d3 05 	call	0xba6	; 0xba6 <PORTA_set_pin_level>
    1116:	00 00       	nop
    1118:	0f 90       	pop	r0
    111a:	df 91       	pop	r29
    111c:	cf 91       	pop	r28
    111e:	08 95       	ret

00001120 <SW0_set_pull_mode>:
    1120:	cf 93       	push	r28
    1122:	df 93       	push	r29
    1124:	1f 92       	push	r1
    1126:	cd b7       	in	r28, 0x3d	; 61
    1128:	de b7       	in	r29, 0x3e	; 62
    112a:	89 83       	std	Y+1, r24	; 0x01
    112c:	69 81       	ldd	r22, Y+1	; 0x01
    112e:	82 e0       	ldi	r24, 0x02	; 2
    1130:	0e 94 0d 06 	call	0xc1a	; 0xc1a <PORTB_set_pin_pull_mode>
    1134:	00 00       	nop
    1136:	0f 90       	pop	r0
    1138:	df 91       	pop	r29
    113a:	cf 91       	pop	r28
    113c:	08 95       	ret

0000113e <SW0_set_dir>:
    113e:	cf 93       	push	r28
    1140:	df 93       	push	r29
    1142:	1f 92       	push	r1
    1144:	cd b7       	in	r28, 0x3d	; 61
    1146:	de b7       	in	r29, 0x3e	; 62
    1148:	89 83       	std	Y+1, r24	; 0x01
    114a:	69 81       	ldd	r22, Y+1	; 0x01
    114c:	82 e0       	ldi	r24, 0x02	; 2
    114e:	0e 94 3e 06 	call	0xc7c	; 0xc7c <PORTB_set_pin_dir>
    1152:	00 00       	nop
    1154:	0f 90       	pop	r0
    1156:	df 91       	pop	r29
    1158:	cf 91       	pop	r28
    115a:	08 95       	ret

0000115c <LED0_set_dir>:
    115c:	cf 93       	push	r28
    115e:	df 93       	push	r29
    1160:	1f 92       	push	r1
    1162:	cd b7       	in	r28, 0x3d	; 61
    1164:	de b7       	in	r29, 0x3e	; 62
    1166:	89 83       	std	Y+1, r24	; 0x01
    1168:	69 81       	ldd	r22, Y+1	; 0x01
    116a:	85 e0       	ldi	r24, 0x05	; 5
    116c:	0e 94 3e 06 	call	0xc7c	; 0xc7c <PORTB_set_pin_dir>
    1170:	00 00       	nop
    1172:	0f 90       	pop	r0
    1174:	df 91       	pop	r29
    1176:	cf 91       	pop	r28
    1178:	08 95       	ret

0000117a <LED0_set_level>:
    117a:	cf 93       	push	r28
    117c:	df 93       	push	r29
    117e:	1f 92       	push	r1
    1180:	cd b7       	in	r28, 0x3d	; 61
    1182:	de b7       	in	r29, 0x3e	; 62
    1184:	89 83       	std	Y+1, r24	; 0x01
    1186:	69 81       	ldd	r22, Y+1	; 0x01
    1188:	85 e0       	ldi	r24, 0x05	; 5
    118a:	0e 94 92 06 	call	0xd24	; 0xd24 <PORTB_set_pin_level>
    118e:	00 00       	nop
    1190:	0f 90       	pop	r0
    1192:	df 91       	pop	r29
    1194:	cf 91       	pop	r28
    1196:	08 95       	ret

00001198 <PC0_set_dir>:
    1198:	cf 93       	push	r28
    119a:	df 93       	push	r29
    119c:	1f 92       	push	r1
    119e:	cd b7       	in	r28, 0x3d	; 61
    11a0:	de b7       	in	r29, 0x3e	; 62
    11a2:	89 83       	std	Y+1, r24	; 0x01
    11a4:	69 81       	ldd	r22, Y+1	; 0x01
    11a6:	80 e0       	ldi	r24, 0x00	; 0
    11a8:	0e 94 4e 07 	call	0xe9c	; 0xe9c <PORTC_set_pin_dir>
    11ac:	00 00       	nop
    11ae:	0f 90       	pop	r0
    11b0:	df 91       	pop	r29
    11b2:	cf 91       	pop	r28
    11b4:	08 95       	ret

000011b6 <PC0_set_level>:
    11b6:	cf 93       	push	r28
    11b8:	df 93       	push	r29
    11ba:	1f 92       	push	r1
    11bc:	cd b7       	in	r28, 0x3d	; 61
    11be:	de b7       	in	r29, 0x3e	; 62
    11c0:	89 83       	std	Y+1, r24	; 0x01
    11c2:	69 81       	ldd	r22, Y+1	; 0x01
    11c4:	80 e0       	ldi	r24, 0x00	; 0
    11c6:	0e 94 a2 07 	call	0xf44	; 0xf44 <PORTC_set_pin_level>
    11ca:	00 00       	nop
    11cc:	0f 90       	pop	r0
    11ce:	df 91       	pop	r29
    11d0:	cf 91       	pop	r28
    11d2:	08 95       	ret

000011d4 <PC1_set_pull_mode>:
    11d4:	cf 93       	push	r28
    11d6:	df 93       	push	r29
    11d8:	1f 92       	push	r1
    11da:	cd b7       	in	r28, 0x3d	; 61
    11dc:	de b7       	in	r29, 0x3e	; 62
    11de:	89 83       	std	Y+1, r24	; 0x01
    11e0:	69 81       	ldd	r22, Y+1	; 0x01
    11e2:	81 e0       	ldi	r24, 0x01	; 1
    11e4:	0e 94 cc 06 	call	0xd98	; 0xd98 <PORTC_set_pin_pull_mode>
    11e8:	00 00       	nop
    11ea:	0f 90       	pop	r0
    11ec:	df 91       	pop	r29
    11ee:	cf 91       	pop	r28
    11f0:	08 95       	ret

000011f2 <PC1_set_dir>:
    11f2:	cf 93       	push	r28
    11f4:	df 93       	push	r29
    11f6:	1f 92       	push	r1
    11f8:	cd b7       	in	r28, 0x3d	; 61
    11fa:	de b7       	in	r29, 0x3e	; 62
    11fc:	89 83       	std	Y+1, r24	; 0x01
    11fe:	69 81       	ldd	r22, Y+1	; 0x01
    1200:	81 e0       	ldi	r24, 0x01	; 1
    1202:	0e 94 4e 07 	call	0xe9c	; 0xe9c <PORTC_set_pin_dir>
    1206:	00 00       	nop
    1208:	0f 90       	pop	r0
    120a:	df 91       	pop	r29
    120c:	cf 91       	pop	r28
    120e:	08 95       	ret

00001210 <CONF_WIFI_M2M_INT_PIN_set_pull_mode>:
    1210:	cf 93       	push	r28
    1212:	df 93       	push	r29
    1214:	1f 92       	push	r1
    1216:	cd b7       	in	r28, 0x3d	; 61
    1218:	de b7       	in	r29, 0x3e	; 62
    121a:	89 83       	std	Y+1, r24	; 0x01
    121c:	69 81       	ldd	r22, Y+1	; 0x01
    121e:	86 e0       	ldi	r24, 0x06	; 6
    1220:	0e 94 cc 06 	call	0xd98	; 0xd98 <PORTC_set_pin_pull_mode>
    1224:	00 00       	nop
    1226:	0f 90       	pop	r0
    1228:	df 91       	pop	r29
    122a:	cf 91       	pop	r28
    122c:	08 95       	ret

0000122e <CONF_WIFI_M2M_INT_PIN_set_dir>:
    122e:	cf 93       	push	r28
    1230:	df 93       	push	r29
    1232:	1f 92       	push	r1
    1234:	cd b7       	in	r28, 0x3d	; 61
    1236:	de b7       	in	r29, 0x3e	; 62
    1238:	89 83       	std	Y+1, r24	; 0x01
    123a:	69 81       	ldd	r22, Y+1	; 0x01
    123c:	86 e0       	ldi	r24, 0x06	; 6
    123e:	0e 94 4e 07 	call	0xe9c	; 0xe9c <PORTC_set_pin_dir>
    1242:	00 00       	nop
    1244:	0f 90       	pop	r0
    1246:	df 91       	pop	r29
    1248:	cf 91       	pop	r28
    124a:	08 95       	ret

0000124c <CONF_WIFI_M2M_INT_PIN_set_isc>:
    124c:	cf 93       	push	r28
    124e:	df 93       	push	r29
    1250:	1f 92       	push	r1
    1252:	cd b7       	in	r28, 0x3d	; 61
    1254:	de b7       	in	r29, 0x3e	; 62
    1256:	89 83       	std	Y+1, r24	; 0x01
    1258:	69 81       	ldd	r22, Y+1	; 0x01
    125a:	86 e0       	ldi	r24, 0x06	; 6
    125c:	0e 94 2b 07 	call	0xe56	; 0xe56 <PORTC_pin_set_isc>
    1260:	00 00       	nop
    1262:	0f 90       	pop	r0
    1264:	df 91       	pop	r29
    1266:	cf 91       	pop	r28
    1268:	08 95       	ret

0000126a <CONF_WIFI_M2M_INT_PIN_set_inverted>:
    126a:	cf 93       	push	r28
    126c:	df 93       	push	r29
    126e:	1f 92       	push	r1
    1270:	cd b7       	in	r28, 0x3d	; 61
    1272:	de b7       	in	r29, 0x3e	; 62
    1274:	89 83       	std	Y+1, r24	; 0x01
    1276:	69 81       	ldd	r22, Y+1	; 0x01
    1278:	86 e0       	ldi	r24, 0x06	; 6
    127a:	0e 94 fd 06 	call	0xdfa	; 0xdfa <PORTC_pin_set_inverted>
    127e:	00 00       	nop
    1280:	0f 90       	pop	r0
    1282:	df 91       	pop	r29
    1284:	cf 91       	pop	r28
    1286:	08 95       	ret

00001288 <CONF_WIFI_M2M_INT_PIN_set_level>:
    1288:	cf 93       	push	r28
    128a:	df 93       	push	r29
    128c:	1f 92       	push	r1
    128e:	cd b7       	in	r28, 0x3d	; 61
    1290:	de b7       	in	r29, 0x3e	; 62
    1292:	89 83       	std	Y+1, r24	; 0x01
    1294:	69 81       	ldd	r22, Y+1	; 0x01
    1296:	86 e0       	ldi	r24, 0x06	; 6
    1298:	0e 94 a2 07 	call	0xf44	; 0xf44 <PORTC_set_pin_level>
    129c:	00 00       	nop
    129e:	0f 90       	pop	r0
    12a0:	df 91       	pop	r29
    12a2:	cf 91       	pop	r28
    12a4:	08 95       	ret

000012a6 <CONF_WIFI_M2M_CHIP_ENABLE_PIN_set_dir>:
    12a6:	cf 93       	push	r28
    12a8:	df 93       	push	r29
    12aa:	1f 92       	push	r1
    12ac:	cd b7       	in	r28, 0x3d	; 61
    12ae:	de b7       	in	r29, 0x3e	; 62
    12b0:	89 83       	std	Y+1, r24	; 0x01
    12b2:	69 81       	ldd	r22, Y+1	; 0x01
    12b4:	87 e0       	ldi	r24, 0x07	; 7
    12b6:	0e 94 4e 07 	call	0xe9c	; 0xe9c <PORTC_set_pin_dir>
    12ba:	00 00       	nop
    12bc:	0f 90       	pop	r0
    12be:	df 91       	pop	r29
    12c0:	cf 91       	pop	r28
    12c2:	08 95       	ret

000012c4 <CONF_WIFI_M2M_CHIP_ENABLE_PIN_set_level>:
    12c4:	cf 93       	push	r28
    12c6:	df 93       	push	r29
    12c8:	1f 92       	push	r1
    12ca:	cd b7       	in	r28, 0x3d	; 61
    12cc:	de b7       	in	r29, 0x3e	; 62
    12ce:	89 83       	std	Y+1, r24	; 0x01
    12d0:	69 81       	ldd	r22, Y+1	; 0x01
    12d2:	87 e0       	ldi	r24, 0x07	; 7
    12d4:	0e 94 a2 07 	call	0xf44	; 0xf44 <PORTC_set_pin_level>
    12d8:	00 00       	nop
    12da:	0f 90       	pop	r0
    12dc:	df 91       	pop	r29
    12de:	cf 91       	pop	r28
    12e0:	08 95       	ret

000012e2 <mcu_init>:
    12e2:	cf 93       	push	r28
    12e4:	df 93       	push	r29
    12e6:	cd b7       	in	r28, 0x3d	; 61
    12e8:	de b7       	in	r29, 0x3e	; 62
    12ea:	26 97       	sbiw	r28, 0x06	; 6
    12ec:	cd bf       	out	0x3d, r28	; 61
    12ee:	de bf       	out	0x3e, r29	; 62
    12f0:	19 82       	std	Y+1, r1	; 0x01
    12f2:	12 c0       	rjmp	.+36     	; 0x1318 <mcu_init+0x36>
    12f4:	89 81       	ldd	r24, Y+1	; 0x01
    12f6:	88 2f       	mov	r24, r24
    12f8:	90 e0       	ldi	r25, 0x00	; 0
    12fa:	80 5f       	subi	r24, 0xF0	; 240
    12fc:	9b 4f       	sbci	r25, 0xFB	; 251
    12fe:	29 81       	ldd	r18, Y+1	; 0x01
    1300:	22 2f       	mov	r18, r18
    1302:	30 e0       	ldi	r19, 0x00	; 0
    1304:	20 5f       	subi	r18, 0xF0	; 240
    1306:	3b 4f       	sbci	r19, 0xFB	; 251
    1308:	f9 01       	movw	r30, r18
    130a:	20 81       	ld	r18, Z
    130c:	28 60       	ori	r18, 0x08	; 8
    130e:	fc 01       	movw	r30, r24
    1310:	20 83       	st	Z, r18
    1312:	89 81       	ldd	r24, Y+1	; 0x01
    1314:	8f 5f       	subi	r24, 0xFF	; 255
    1316:	89 83       	std	Y+1, r24	; 0x01
    1318:	89 81       	ldd	r24, Y+1	; 0x01
    131a:	88 30       	cpi	r24, 0x08	; 8
    131c:	58 f3       	brcs	.-42     	; 0x12f4 <mcu_init+0x12>
    131e:	1a 82       	std	Y+2, r1	; 0x02
    1320:	12 c0       	rjmp	.+36     	; 0x1346 <mcu_init+0x64>
    1322:	8a 81       	ldd	r24, Y+2	; 0x02
    1324:	88 2f       	mov	r24, r24
    1326:	90 e0       	ldi	r25, 0x00	; 0
    1328:	80 5d       	subi	r24, 0xD0	; 208
    132a:	9b 4f       	sbci	r25, 0xFB	; 251
    132c:	2a 81       	ldd	r18, Y+2	; 0x02
    132e:	22 2f       	mov	r18, r18
    1330:	30 e0       	ldi	r19, 0x00	; 0
    1332:	20 5d       	subi	r18, 0xD0	; 208
    1334:	3b 4f       	sbci	r19, 0xFB	; 251
    1336:	f9 01       	movw	r30, r18
    1338:	20 81       	ld	r18, Z
    133a:	28 60       	ori	r18, 0x08	; 8
    133c:	fc 01       	movw	r30, r24
    133e:	20 83       	st	Z, r18
    1340:	8a 81       	ldd	r24, Y+2	; 0x02
    1342:	8f 5f       	subi	r24, 0xFF	; 255
    1344:	8a 83       	std	Y+2, r24	; 0x02
    1346:	8a 81       	ldd	r24, Y+2	; 0x02
    1348:	88 30       	cpi	r24, 0x08	; 8
    134a:	58 f3       	brcs	.-42     	; 0x1322 <mcu_init+0x40>
    134c:	1b 82       	std	Y+3, r1	; 0x03
    134e:	12 c0       	rjmp	.+36     	; 0x1374 <mcu_init+0x92>
    1350:	8b 81       	ldd	r24, Y+3	; 0x03
    1352:	88 2f       	mov	r24, r24
    1354:	90 e0       	ldi	r25, 0x00	; 0
    1356:	80 5b       	subi	r24, 0xB0	; 176
    1358:	9b 4f       	sbci	r25, 0xFB	; 251
    135a:	2b 81       	ldd	r18, Y+3	; 0x03
    135c:	22 2f       	mov	r18, r18
    135e:	30 e0       	ldi	r19, 0x00	; 0
    1360:	20 5b       	subi	r18, 0xB0	; 176
    1362:	3b 4f       	sbci	r19, 0xFB	; 251
    1364:	f9 01       	movw	r30, r18
    1366:	20 81       	ld	r18, Z
    1368:	28 60       	ori	r18, 0x08	; 8
    136a:	fc 01       	movw	r30, r24
    136c:	20 83       	st	Z, r18
    136e:	8b 81       	ldd	r24, Y+3	; 0x03
    1370:	8f 5f       	subi	r24, 0xFF	; 255
    1372:	8b 83       	std	Y+3, r24	; 0x03
    1374:	8b 81       	ldd	r24, Y+3	; 0x03
    1376:	88 30       	cpi	r24, 0x08	; 8
    1378:	58 f3       	brcs	.-42     	; 0x1350 <mcu_init+0x6e>
    137a:	1c 82       	std	Y+4, r1	; 0x04
    137c:	12 c0       	rjmp	.+36     	; 0x13a2 <mcu_init+0xc0>
    137e:	8c 81       	ldd	r24, Y+4	; 0x04
    1380:	88 2f       	mov	r24, r24
    1382:	90 e0       	ldi	r25, 0x00	; 0
    1384:	80 59       	subi	r24, 0x90	; 144
    1386:	9b 4f       	sbci	r25, 0xFB	; 251
    1388:	2c 81       	ldd	r18, Y+4	; 0x04
    138a:	22 2f       	mov	r18, r18
    138c:	30 e0       	ldi	r19, 0x00	; 0
    138e:	20 59       	subi	r18, 0x90	; 144
    1390:	3b 4f       	sbci	r19, 0xFB	; 251
    1392:	f9 01       	movw	r30, r18
    1394:	20 81       	ld	r18, Z
    1396:	28 60       	ori	r18, 0x08	; 8
    1398:	fc 01       	movw	r30, r24
    139a:	20 83       	st	Z, r18
    139c:	8c 81       	ldd	r24, Y+4	; 0x04
    139e:	8f 5f       	subi	r24, 0xFF	; 255
    13a0:	8c 83       	std	Y+4, r24	; 0x04
    13a2:	8c 81       	ldd	r24, Y+4	; 0x04
    13a4:	88 30       	cpi	r24, 0x08	; 8
    13a6:	58 f3       	brcs	.-42     	; 0x137e <mcu_init+0x9c>
    13a8:	1d 82       	std	Y+5, r1	; 0x05
    13aa:	12 c0       	rjmp	.+36     	; 0x13d0 <mcu_init+0xee>
    13ac:	8d 81       	ldd	r24, Y+5	; 0x05
    13ae:	88 2f       	mov	r24, r24
    13b0:	90 e0       	ldi	r25, 0x00	; 0
    13b2:	80 57       	subi	r24, 0x70	; 112
    13b4:	9b 4f       	sbci	r25, 0xFB	; 251
    13b6:	2d 81       	ldd	r18, Y+5	; 0x05
    13b8:	22 2f       	mov	r18, r18
    13ba:	30 e0       	ldi	r19, 0x00	; 0
    13bc:	20 57       	subi	r18, 0x70	; 112
    13be:	3b 4f       	sbci	r19, 0xFB	; 251
    13c0:	f9 01       	movw	r30, r18
    13c2:	20 81       	ld	r18, Z
    13c4:	28 60       	ori	r18, 0x08	; 8
    13c6:	fc 01       	movw	r30, r24
    13c8:	20 83       	st	Z, r18
    13ca:	8d 81       	ldd	r24, Y+5	; 0x05
    13cc:	8f 5f       	subi	r24, 0xFF	; 255
    13ce:	8d 83       	std	Y+5, r24	; 0x05
    13d0:	8d 81       	ldd	r24, Y+5	; 0x05
    13d2:	88 30       	cpi	r24, 0x08	; 8
    13d4:	58 f3       	brcs	.-42     	; 0x13ac <mcu_init+0xca>
    13d6:	1e 82       	std	Y+6, r1	; 0x06
    13d8:	12 c0       	rjmp	.+36     	; 0x13fe <mcu_init+0x11c>
    13da:	8e 81       	ldd	r24, Y+6	; 0x06
    13dc:	88 2f       	mov	r24, r24
    13de:	90 e0       	ldi	r25, 0x00	; 0
    13e0:	80 55       	subi	r24, 0x50	; 80
    13e2:	9b 4f       	sbci	r25, 0xFB	; 251
    13e4:	2e 81       	ldd	r18, Y+6	; 0x06
    13e6:	22 2f       	mov	r18, r18
    13e8:	30 e0       	ldi	r19, 0x00	; 0
    13ea:	20 55       	subi	r18, 0x50	; 80
    13ec:	3b 4f       	sbci	r19, 0xFB	; 251
    13ee:	f9 01       	movw	r30, r18
    13f0:	20 81       	ld	r18, Z
    13f2:	28 60       	ori	r18, 0x08	; 8
    13f4:	fc 01       	movw	r30, r24
    13f6:	20 83       	st	Z, r18
    13f8:	8e 81       	ldd	r24, Y+6	; 0x06
    13fa:	8f 5f       	subi	r24, 0xFF	; 255
    13fc:	8e 83       	std	Y+6, r24	; 0x06
    13fe:	8e 81       	ldd	r24, Y+6	; 0x06
    1400:	88 30       	cpi	r24, 0x08	; 8
    1402:	58 f3       	brcs	.-42     	; 0x13da <mcu_init+0xf8>
    1404:	00 00       	nop
    1406:	26 96       	adiw	r28, 0x06	; 6
    1408:	cd bf       	out	0x3d, r28	; 61
    140a:	de bf       	out	0x3e, r29	; 62
    140c:	df 91       	pop	r29
    140e:	cf 91       	pop	r28
    1410:	08 95       	ret

00001412 <USART_0_initialization>:
    1412:	cf 93       	push	r28
    1414:	df 93       	push	r29
    1416:	cd b7       	in	r28, 0x3d	; 61
    1418:	de b7       	in	r29, 0x3e	; 62
    141a:	80 e0       	ldi	r24, 0x00	; 0
    141c:	0e 94 f9 08 	call	0x11f2	; 0x11f2 <PC1_set_dir>
    1420:	80 e0       	ldi	r24, 0x00	; 0
    1422:	0e 94 ea 08 	call	0x11d4	; 0x11d4 <PC1_set_pull_mode>
    1426:	81 e0       	ldi	r24, 0x01	; 1
    1428:	0e 94 cc 08 	call	0x1198	; 0x1198 <PC0_set_dir>
    142c:	81 e0       	ldi	r24, 0x01	; 1
    142e:	0e 94 db 08 	call	0x11b6	; 0x11b6 <PC0_set_level>
    1432:	0e 94 95 0c 	call	0x192a	; 0x192a <USART_0_init>
    1436:	00 00       	nop
    1438:	df 91       	pop	r29
    143a:	cf 91       	pop	r28
    143c:	08 95       	ret

0000143e <SPI_0_initialization>:
    143e:	cf 93       	push	r28
    1440:	df 93       	push	r29
    1442:	cd b7       	in	r28, 0x3d	; 61
    1444:	de b7       	in	r29, 0x3e	; 62
    1446:	80 e0       	ldi	r24, 0x00	; 0
    1448:	0e 94 45 08 	call	0x108a	; 0x108a <CONF_WIFI_M2M_SPI_MISO_PIN_set_dir>
    144c:	80 e0       	ldi	r24, 0x00	; 0
    144e:	0e 94 36 08 	call	0x106c	; 0x106c <CONF_WIFI_M2M_SPI_MISO_PIN_set_pull_mode>
    1452:	81 e0       	ldi	r24, 0x01	; 1
    1454:	0e 94 18 08 	call	0x1030	; 0x1030 <CONF_WIFI_M2M_SPI_MOSI_PIN_set_dir>
    1458:	80 e0       	ldi	r24, 0x00	; 0
    145a:	0e 94 27 08 	call	0x104e	; 0x104e <CONF_WIFI_M2M_SPI_MOSI_PIN_set_level>
    145e:	81 e0       	ldi	r24, 0x01	; 1
    1460:	0e 94 54 08 	call	0x10a8	; 0x10a8 <CONF_WIFI_M2M_SPI_SCK_PIN_set_dir>
    1464:	80 e0       	ldi	r24, 0x00	; 0
    1466:	0e 94 63 08 	call	0x10c6	; 0x10c6 <CONF_WIFI_M2M_SPI_SCK_PIN_set_level>
    146a:	0e 94 97 0a 	call	0x152e	; 0x152e <SPI_0_init>
    146e:	00 00       	nop
    1470:	df 91       	pop	r29
    1472:	cf 91       	pop	r28
    1474:	08 95       	ret

00001476 <system_init>:

/**
 * \brief System initialization
 */
void system_init()
{
    1476:	cf 93       	push	r28
    1478:	df 93       	push	r29
    147a:	cd b7       	in	r28, 0x3d	; 61
    147c:	de b7       	in	r29, 0x3e	; 62
	mcu_init();
    147e:	0e 94 71 09 	call	0x12e2	; 0x12e2 <mcu_init>
//	ADC_0_initialization();


	CLKCTRL_init();
    1482:	0e 94 39 05 	call	0xa72	; 0xa72 <CLKCTRL_init>

//	scheduler_timeout_init();

	USART_0_initialization();
    1486:	0e 94 09 0a 	call	0x1412	; 0x1412 <USART_0_initialization>
	//return;
	/* PORT setting on PA2 */

	// Set pin direction to output
	CONF_WIFI_M2M_RESET_PIN_set_dir(PORT_DIR_OUT);
    148a:	81 e0       	ldi	r24, 0x01	; 1
    148c:	0e 94 dc 07 	call	0xfb8	; 0xfb8 <CONF_WIFI_M2M_RESET_PIN_set_dir>

	CONF_WIFI_M2M_RESET_PIN_set_level(
    1490:	80 e0       	ldi	r24, 0x00	; 0
    1492:	0e 94 eb 07 	call	0xfd6	; 0xfd6 <CONF_WIFI_M2M_RESET_PIN_set_level>
	    false);

	/* PORT setting on PA3 */

	// Set pin direction to output
	CONF_WIFI_M2M_WAKE_PIN_set_dir(PORT_DIR_OUT);
    1496:	81 e0       	ldi	r24, 0x01	; 1
    1498:	0e 94 fa 07 	call	0xff4	; 0xff4 <CONF_WIFI_M2M_WAKE_PIN_set_dir>

	CONF_WIFI_M2M_WAKE_PIN_set_level(
    149c:	80 e0       	ldi	r24, 0x00	; 0
    149e:	0e 94 09 08 	call	0x1012	; 0x1012 <CONF_WIFI_M2M_WAKE_PIN_set_level>
	    false);

	/* PORT setting on PA7 */

	// Set pin direction to output
	CONF_WIFI_M2M_SPI_CS_PIN_set_dir(PORT_DIR_OUT);
    14a2:	81 e0       	ldi	r24, 0x01	; 1
    14a4:	0e 94 72 08 	call	0x10e4	; 0x10e4 <CONF_WIFI_M2M_SPI_CS_PIN_set_dir>

	CONF_WIFI_M2M_SPI_CS_PIN_set_level(
    14a8:	81 e0       	ldi	r24, 0x01	; 1
    14aa:	0e 94 81 08 	call	0x1102	; 0x1102 <CONF_WIFI_M2M_SPI_CS_PIN_set_level>
	    true);

	/* PORT setting on PB2 */

	// Set pin direction to input
	SW0_set_dir(PORT_DIR_IN);
    14ae:	80 e0       	ldi	r24, 0x00	; 0
    14b0:	0e 94 9f 08 	call	0x113e	; 0x113e <SW0_set_dir>

	SW0_set_pull_mode(
    14b4:	81 e0       	ldi	r24, 0x01	; 1
    14b6:	0e 94 90 08 	call	0x1120	; 0x1120 <SW0_set_pull_mode>
	    PORT_PULL_UP);

	/* PORT setting on PB5 */

	// Set pin direction to output
	LED0_set_dir(PORT_DIR_OUT);
    14ba:	81 e0       	ldi	r24, 0x01	; 1
    14bc:	0e 94 ae 08 	call	0x115c	; 0x115c <LED0_set_dir>

	LED0_set_level(
    14c0:	80 e0       	ldi	r24, 0x00	; 0
    14c2:	0e 94 bd 08 	call	0x117a	; 0x117a <LED0_set_level>
	    // <true"> High
	    false);

	/* PORT setting on PC6 */

	CONF_WIFI_M2M_INT_PIN_set_dir(
    14c6:	80 e0       	ldi	r24, 0x00	; 0
    14c8:	0e 94 17 09 	call	0x122e	; 0x122e <CONF_WIFI_M2M_INT_PIN_set_dir>
	    // <PORT_DIR_OFF"> Off
	    // <PORT_DIR_IN"> In
	    // <PORT_DIR_OUT"> Out
	    PORT_DIR_IN);

	CONF_WIFI_M2M_INT_PIN_set_level(
    14cc:	80 e0       	ldi	r24, 0x00	; 0
    14ce:	0e 94 44 09 	call	0x1288	; 0x1288 <CONF_WIFI_M2M_INT_PIN_set_level>
	    // <id> pad_initial_level
	    // <false"> Low
	    // <true"> High
	    false);

	CONF_WIFI_M2M_INT_PIN_set_pull_mode(
    14d2:	81 e0       	ldi	r24, 0x01	; 1
    14d4:	0e 94 08 09 	call	0x1210	; 0x1210 <CONF_WIFI_M2M_INT_PIN_set_pull_mode>
	    // <id> pad_pull_config
	    // <PORT_PULL_OFF"> Off
	    // <PORT_PULL_UP"> Pull-up
	    PORT_PULL_UP);

	CONF_WIFI_M2M_INT_PIN_set_inverted(
    14d8:	80 e0       	ldi	r24, 0x00	; 0
    14da:	0e 94 35 09 	call	0x126a	; 0x126a <CONF_WIFI_M2M_INT_PIN_set_inverted>
	    // <id> pad_invert
	    // <false"> Not inverted
	    // <true"> Inverted
	    false);

	CONF_WIFI_M2M_INT_PIN_set_isc(
    14de:	83 e0       	ldi	r24, 0x03	; 3
    14e0:	0e 94 26 09 	call	0x124c	; 0x124c <CONF_WIFI_M2M_INT_PIN_set_isc>
	    PORT_ISC_FALLING_gc);

	/* PORT setting on PC7 */

	// Set pin direction to output
	CONF_WIFI_M2M_CHIP_ENABLE_PIN_set_dir(PORT_DIR_OUT);
    14e4:	81 e0       	ldi	r24, 0x01	; 1
    14e6:	0e 94 53 09 	call	0x12a6	; 0x12a6 <CONF_WIFI_M2M_CHIP_ENABLE_PIN_set_dir>

	CONF_WIFI_M2M_CHIP_ENABLE_PIN_set_level(
    14ea:	80 e0       	ldi	r24, 0x00	; 0
    14ec:	0e 94 62 09 	call	0x12c4	; 0x12c4 <CONF_WIFI_M2M_CHIP_ENABLE_PIN_set_level>
	    // <id> pad_initial_level
	    // <false"> Low
	    // <true"> High
	    false);

	CLKCTRL_init();
    14f0:	0e 94 39 05 	call	0xa72	; 0xa72 <CLKCTRL_init>

	scheduler_timeout_init();
    14f4:	0e 94 e7 0a 	call	0x15ce	; 0x15ce <scheduler_timeout_init>

	USART_0_initialization();
    14f8:	0e 94 09 0a 	call	0x1412	; 0x1412 <USART_0_initialization>

	SPI_0_initialization();
    14fc:	0e 94 1f 0a 	call	0x143e	; 0x143e <SPI_0_initialization>

	CPUINT_init();
    1500:	0e 94 46 05 	call	0xa8c	; 0xa8c <CPUINT_init>

	SLPCTRL_init();
    1504:	0e 94 8f 0a 	call	0x151e	; 0x151e <SLPCTRL_init>

	BOD_init();
    1508:	0e 94 1b 05 	call	0xa36	; 0xa36 <BOD_init>
}
    150c:	00 00       	nop
    150e:	df 91       	pop	r29
    1510:	cf 91       	pop	r28
    1512:	08 95       	ret

00001514 <protected_write_io>:
    1514:	1b be       	out	0x3b, r1	; 59
    1516:	fc 01       	movw	r30, r24
    1518:	64 bf       	out	0x34, r22	; 52
    151a:	40 83       	st	Z, r20
    151c:	08 95       	ret

0000151e <SLPCTRL_init>:
    151e:	cf 93       	push	r28
    1520:	df 93       	push	r29
    1522:	cd b7       	in	r28, 0x3d	; 61
    1524:	de b7       	in	r29, 0x3e	; 62
    1526:	80 e0       	ldi	r24, 0x00	; 0
    1528:	df 91       	pop	r29
    152a:	cf 91       	pop	r28
    152c:	08 95       	ret

0000152e <SPI_0_init>:
    152e:	cf 93       	push	r28
    1530:	df 93       	push	r29
    1532:	cd b7       	in	r28, 0x3d	; 61
    1534:	de b7       	in	r29, 0x3e	; 62
    1536:	80 ec       	ldi	r24, 0xC0	; 192
    1538:	98 e0       	ldi	r25, 0x08	; 8
    153a:	21 e3       	ldi	r18, 0x31	; 49
    153c:	fc 01       	movw	r30, r24
    153e:	20 83       	st	Z, r18
    1540:	10 92 f9 2d 	sts	0x2DF9, r1	; 0x802df9 <SPI_0_desc>
    1544:	00 00       	nop
    1546:	df 91       	pop	r29
    1548:	cf 91       	pop	r28
    154a:	08 95       	ret

0000154c <SPI_0_enable>:
    154c:	cf 93       	push	r28
    154e:	df 93       	push	r29
    1550:	cd b7       	in	r28, 0x3d	; 61
    1552:	de b7       	in	r29, 0x3e	; 62
    1554:	80 ec       	ldi	r24, 0xC0	; 192
    1556:	98 e0       	ldi	r25, 0x08	; 8
    1558:	20 ec       	ldi	r18, 0xC0	; 192
    155a:	38 e0       	ldi	r19, 0x08	; 8
    155c:	f9 01       	movw	r30, r18
    155e:	20 81       	ld	r18, Z
    1560:	21 60       	ori	r18, 0x01	; 1
    1562:	fc 01       	movw	r30, r24
    1564:	20 83       	st	Z, r18
    1566:	00 00       	nop
    1568:	df 91       	pop	r29
    156a:	cf 91       	pop	r28
    156c:	08 95       	ret

0000156e <SPI_0_exchange_byte>:
    156e:	cf 93       	push	r28
    1570:	df 93       	push	r29
    1572:	1f 92       	push	r1
    1574:	cd b7       	in	r28, 0x3d	; 61
    1576:	de b7       	in	r29, 0x3e	; 62
    1578:	89 83       	std	Y+1, r24	; 0x01
    157a:	00 00       	nop
    157c:	80 91 f9 2d 	lds	r24, 0x2DF9	; 0x802df9 <SPI_0_desc>
    1580:	82 30       	cpi	r24, 0x02	; 2
    1582:	e1 f3       	breq	.-8      	; 0x157c <SPI_0_exchange_byte+0xe>
    1584:	80 ec       	ldi	r24, 0xC0	; 192
    1586:	98 e0       	ldi	r25, 0x08	; 8
    1588:	29 81       	ldd	r18, Y+1	; 0x01
    158a:	fc 01       	movw	r30, r24
    158c:	24 83       	std	Z+4, r18	; 0x04
    158e:	00 00       	nop
    1590:	80 ec       	ldi	r24, 0xC0	; 192
    1592:	98 e0       	ldi	r25, 0x08	; 8
    1594:	fc 01       	movw	r30, r24
    1596:	83 81       	ldd	r24, Z+3	; 0x03
    1598:	88 23       	and	r24, r24
    159a:	d4 f7       	brge	.-12     	; 0x1590 <SPI_0_exchange_byte+0x22>
    159c:	80 ec       	ldi	r24, 0xC0	; 192
    159e:	98 e0       	ldi	r25, 0x08	; 8
    15a0:	fc 01       	movw	r30, r24
    15a2:	84 81       	ldd	r24, Z+4	; 0x04
    15a4:	0f 90       	pop	r0
    15a6:	df 91       	pop	r29
    15a8:	cf 91       	pop	r28
    15aa:	08 95       	ret

000015ac <scheduler_dummy_handler>:
    15ac:	cf 93       	push	r28
    15ae:	df 93       	push	r29
    15b0:	00 d0       	rcall	.+0      	; 0x15b2 <scheduler_dummy_handler+0x6>
    15b2:	cd b7       	in	r28, 0x3d	; 61
    15b4:	de b7       	in	r29, 0x3e	; 62
    15b6:	89 83       	std	Y+1, r24	; 0x01
    15b8:	9a 83       	std	Y+2, r25	; 0x02
    15ba:	80 e0       	ldi	r24, 0x00	; 0
    15bc:	90 e0       	ldi	r25, 0x00	; 0
    15be:	dc 01       	movw	r26, r24
    15c0:	bc 01       	movw	r22, r24
    15c2:	cd 01       	movw	r24, r26
    15c4:	0f 90       	pop	r0
    15c6:	0f 90       	pop	r0
    15c8:	df 91       	pop	r29
    15ca:	cf 91       	pop	r28
    15cc:	08 95       	ret

000015ce <scheduler_timeout_init>:
    15ce:	cf 93       	push	r28
    15d0:	df 93       	push	r29
    15d2:	cd b7       	in	r28, 0x3d	; 61
    15d4:	de b7       	in	r29, 0x3e	; 62
    15d6:	00 00       	nop
    15d8:	80 e4       	ldi	r24, 0x40	; 64
    15da:	91 e0       	ldi	r25, 0x01	; 1
    15dc:	fc 01       	movw	r30, r24
    15de:	81 81       	ldd	r24, Z+1	; 0x01
    15e0:	88 23       	and	r24, r24
    15e2:	d1 f7       	brne	.-12     	; 0x15d8 <scheduler_timeout_init+0xa>
    15e4:	80 e4       	ldi	r24, 0x40	; 64
    15e6:	91 e0       	ldi	r25, 0x01	; 1
    15e8:	21 e0       	ldi	r18, 0x01	; 1
    15ea:	fc 01       	movw	r30, r24
    15ec:	20 83       	st	Z, r18
    15ee:	80 e4       	ldi	r24, 0x40	; 64
    15f0:	91 e0       	ldi	r25, 0x01	; 1
    15f2:	21 e0       	ldi	r18, 0x01	; 1
    15f4:	fc 01       	movw	r30, r24
    15f6:	27 83       	std	Z+7, r18	; 0x07
    15f8:	80 e4       	ldi	r24, 0x40	; 64
    15fa:	91 e0       	ldi	r25, 0x01	; 1
    15fc:	21 e0       	ldi	r18, 0x01	; 1
    15fe:	fc 01       	movw	r30, r24
    1600:	22 83       	std	Z+2, r18	; 0x02
    1602:	00 00       	nop
    1604:	df 91       	pop	r29
    1606:	cf 91       	pop	r28
    1608:	08 95       	ret

0000160a <scheduler_stop_timeouts>:
    160a:	cf 93       	push	r28
    160c:	df 93       	push	r29
    160e:	cd b7       	in	r28, 0x3d	; 61
    1610:	de b7       	in	r29, 0x3e	; 62
    1612:	80 e4       	ldi	r24, 0x40	; 64
    1614:	91 e0       	ldi	r25, 0x01	; 1
    1616:	20 e4       	ldi	r18, 0x40	; 64
    1618:	31 e0       	ldi	r19, 0x01	; 1
    161a:	f9 01       	movw	r30, r18
    161c:	22 81       	ldd	r18, Z+2	; 0x02
    161e:	2e 7f       	andi	r18, 0xFE	; 254
    1620:	fc 01       	movw	r30, r24
    1622:	22 83       	std	Z+2, r18	; 0x02
    1624:	10 92 fe 2d 	sts	0x2DFE, r1	; 0x802dfe <scheduler_absolute_time_of_last_timeout>
    1628:	10 92 ff 2d 	sts	0x2DFF, r1	; 0x802dff <scheduler_absolute_time_of_last_timeout+0x1>
    162c:	10 92 00 2e 	sts	0x2E00, r1	; 0x802e00 <scheduler_absolute_time_of_last_timeout+0x2>
    1630:	10 92 01 2e 	sts	0x2E01, r1	; 0x802e01 <scheduler_absolute_time_of_last_timeout+0x3>
    1634:	10 92 06 2e 	sts	0x2E06, r1	; 0x802e06 <scheduler_is_running>
    1638:	00 00       	nop
    163a:	df 91       	pop	r29
    163c:	cf 91       	pop	r28
    163e:	08 95       	ret

00001640 <scheduler_set_timer_duration>:
    1640:	ef 92       	push	r14
    1642:	ff 92       	push	r15
    1644:	0f 93       	push	r16
    1646:	1f 93       	push	r17
    1648:	cf 93       	push	r28
    164a:	df 93       	push	r29
    164c:	00 d0       	rcall	.+0      	; 0x164e <scheduler_set_timer_duration+0xe>
    164e:	00 d0       	rcall	.+0      	; 0x1650 <scheduler_set_timer_duration+0x10>
    1650:	cd b7       	in	r28, 0x3d	; 61
    1652:	de b7       	in	r29, 0x3e	; 62
    1654:	69 83       	std	Y+1, r22	; 0x01
    1656:	7a 83       	std	Y+2, r23	; 0x02
    1658:	8b 83       	std	Y+3, r24	; 0x03
    165a:	9c 83       	std	Y+4, r25	; 0x04
    165c:	2f ef       	ldi	r18, 0xFF	; 255
    165e:	3f ef       	ldi	r19, 0xFF	; 255
    1660:	40 e0       	ldi	r20, 0x00	; 0
    1662:	50 e0       	ldi	r21, 0x00	; 0
    1664:	89 81       	ldd	r24, Y+1	; 0x01
    1666:	9a 81       	ldd	r25, Y+2	; 0x02
    1668:	ab 81       	ldd	r26, Y+3	; 0x03
    166a:	bc 81       	ldd	r27, Y+4	; 0x04
    166c:	79 01       	movw	r14, r18
    166e:	8a 01       	movw	r16, r20
    1670:	e8 1a       	sub	r14, r24
    1672:	f9 0a       	sbc	r15, r25
    1674:	0a 0b       	sbc	r16, r26
    1676:	1b 0b       	sbc	r17, r27
    1678:	d8 01       	movw	r26, r16
    167a:	c7 01       	movw	r24, r14
    167c:	80 93 02 2e 	sts	0x2E02, r24	; 0x802e02 <scheduler_last_timer_load>
    1680:	90 93 03 2e 	sts	0x2E03, r25	; 0x802e03 <scheduler_last_timer_load+0x1>
    1684:	a0 93 04 2e 	sts	0x2E04, r26	; 0x802e04 <scheduler_last_timer_load+0x2>
    1688:	b0 93 05 2e 	sts	0x2E05, r27	; 0x802e05 <scheduler_last_timer_load+0x3>
    168c:	20 e4       	ldi	r18, 0x40	; 64
    168e:	31 e0       	ldi	r19, 0x01	; 1
    1690:	80 91 02 2e 	lds	r24, 0x2E02	; 0x802e02 <scheduler_last_timer_load>
    1694:	90 91 03 2e 	lds	r25, 0x2E03	; 0x802e03 <scheduler_last_timer_load+0x1>
    1698:	a0 91 04 2e 	lds	r26, 0x2E04	; 0x802e04 <scheduler_last_timer_load+0x2>
    169c:	b0 91 05 2e 	lds	r27, 0x2E05	; 0x802e05 <scheduler_last_timer_load+0x3>
    16a0:	f9 01       	movw	r30, r18
    16a2:	80 87       	std	Z+8, r24	; 0x08
    16a4:	91 87       	std	Z+9, r25	; 0x09
    16a6:	00 00       	nop
    16a8:	80 e4       	ldi	r24, 0x40	; 64
    16aa:	91 e0       	ldi	r25, 0x01	; 1
    16ac:	fc 01       	movw	r30, r24
    16ae:	81 81       	ldd	r24, Z+1	; 0x01
    16b0:	88 2f       	mov	r24, r24
    16b2:	90 e0       	ldi	r25, 0x00	; 0
    16b4:	82 70       	andi	r24, 0x02	; 2
    16b6:	99 27       	eor	r25, r25
    16b8:	89 2b       	or	r24, r25
    16ba:	b1 f7       	brne	.-20     	; 0x16a8 <scheduler_set_timer_duration+0x68>
    16bc:	00 00       	nop
    16be:	24 96       	adiw	r28, 0x04	; 4
    16c0:	cd bf       	out	0x3d, r28	; 61
    16c2:	de bf       	out	0x3e, r29	; 62
    16c4:	df 91       	pop	r29
    16c6:	cf 91       	pop	r28
    16c8:	1f 91       	pop	r17
    16ca:	0f 91       	pop	r16
    16cc:	ff 90       	pop	r15
    16ce:	ef 90       	pop	r14
    16d0:	08 95       	ret

000016d2 <scheduler_start_timer_at_head>:
    16d2:	cf 93       	push	r28
    16d4:	df 93       	push	r29
    16d6:	00 d0       	rcall	.+0      	; 0x16d8 <scheduler_start_timer_at_head+0x6>
    16d8:	00 d0       	rcall	.+0      	; 0x16da <scheduler_start_timer_at_head+0x8>
    16da:	cd b7       	in	r28, 0x3d	; 61
    16dc:	de b7       	in	r29, 0x3e	; 62
    16de:	80 e4       	ldi	r24, 0x40	; 64
    16e0:	91 e0       	ldi	r25, 0x01	; 1
    16e2:	20 e4       	ldi	r18, 0x40	; 64
    16e4:	31 e0       	ldi	r19, 0x01	; 1
    16e6:	f9 01       	movw	r30, r18
    16e8:	22 81       	ldd	r18, Z+2	; 0x02
    16ea:	2e 7f       	andi	r18, 0xFE	; 254
    16ec:	fc 01       	movw	r30, r24
    16ee:	22 83       	std	Z+2, r18	; 0x02
    16f0:	80 91 fa 2d 	lds	r24, 0x2DFA	; 0x802dfa <scheduler_list_head>
    16f4:	90 91 fb 2d 	lds	r25, 0x2DFB	; 0x802dfb <scheduler_list_head+0x1>
    16f8:	89 2b       	or	r24, r25
    16fa:	19 f4       	brne	.+6      	; 0x1702 <scheduler_start_timer_at_head+0x30>
    16fc:	0e 94 05 0b 	call	0x160a	; 0x160a <scheduler_stop_timeouts>
    1700:	68 c0       	rjmp	.+208    	; 0x17d2 <scheduler_start_timer_at_head+0x100>
    1702:	80 91 fa 2d 	lds	r24, 0x2DFA	; 0x802dfa <scheduler_list_head>
    1706:	90 91 fb 2d 	lds	r25, 0x2DFB	; 0x802dfb <scheduler_list_head+0x1>
    170a:	89 2b       	or	r24, r25
    170c:	51 f0       	breq	.+20     	; 0x1722 <scheduler_start_timer_at_head+0x50>
    170e:	80 91 fa 2d 	lds	r24, 0x2DFA	; 0x802dfa <scheduler_list_head>
    1712:	90 91 fb 2d 	lds	r25, 0x2DFB	; 0x802dfb <scheduler_list_head+0x1>
    1716:	fc 01       	movw	r30, r24
    1718:	86 81       	ldd	r24, Z+6	; 0x06
    171a:	97 81       	ldd	r25, Z+7	; 0x07
    171c:	a0 85       	ldd	r26, Z+8	; 0x08
    171e:	b1 85       	ldd	r27, Z+9	; 0x09
    1720:	03 c0       	rjmp	.+6      	; 0x1728 <scheduler_start_timer_at_head+0x56>
    1722:	80 e0       	ldi	r24, 0x00	; 0
    1724:	90 e0       	ldi	r25, 0x00	; 0
    1726:	dc 01       	movw	r26, r24
    1728:	20 91 fe 2d 	lds	r18, 0x2DFE	; 0x802dfe <scheduler_absolute_time_of_last_timeout>
    172c:	30 91 ff 2d 	lds	r19, 0x2DFF	; 0x802dff <scheduler_absolute_time_of_last_timeout+0x1>
    1730:	40 91 00 2e 	lds	r20, 0x2E00	; 0x802e00 <scheduler_absolute_time_of_last_timeout+0x2>
    1734:	50 91 01 2e 	lds	r21, 0x2E01	; 0x802e01 <scheduler_absolute_time_of_last_timeout+0x3>
    1738:	82 1b       	sub	r24, r18
    173a:	93 0b       	sbc	r25, r19
    173c:	a4 0b       	sbc	r26, r20
    173e:	b5 0b       	sbc	r27, r21
    1740:	89 83       	std	Y+1, r24	; 0x01
    1742:	9a 83       	std	Y+2, r25	; 0x02
    1744:	ab 83       	std	Y+3, r26	; 0x03
    1746:	bc 83       	std	Y+4, r27	; 0x04
    1748:	89 81       	ldd	r24, Y+1	; 0x01
    174a:	9a 81       	ldd	r25, Y+2	; 0x02
    174c:	ab 81       	ldd	r26, Y+3	; 0x03
    174e:	bc 81       	ldd	r27, Y+4	; 0x04
    1750:	00 97       	sbiw	r24, 0x00	; 0
    1752:	a1 40       	sbci	r26, 0x01	; 1
    1754:	b1 05       	cpc	r27, r1
    1756:	48 f1       	brcs	.+82     	; 0x17aa <scheduler_start_timer_at_head+0xd8>
    1758:	80 91 fe 2d 	lds	r24, 0x2DFE	; 0x802dfe <scheduler_absolute_time_of_last_timeout>
    175c:	90 91 ff 2d 	lds	r25, 0x2DFF	; 0x802dff <scheduler_absolute_time_of_last_timeout+0x1>
    1760:	a0 91 00 2e 	lds	r26, 0x2E00	; 0x802e00 <scheduler_absolute_time_of_last_timeout+0x2>
    1764:	b0 91 01 2e 	lds	r27, 0x2E01	; 0x802e01 <scheduler_absolute_time_of_last_timeout+0x3>
    1768:	01 97       	sbiw	r24, 0x01	; 1
    176a:	af 4f       	sbci	r26, 0xFF	; 255
    176c:	bf 4f       	sbci	r27, 0xFF	; 255
    176e:	80 93 3e 28 	sts	0x283E, r24	; 0x80283e <scheduler_dummy+0x6>
    1772:	90 93 3f 28 	sts	0x283F, r25	; 0x80283f <scheduler_dummy+0x7>
    1776:	a0 93 40 28 	sts	0x2840, r26	; 0x802840 <scheduler_dummy+0x8>
    177a:	b0 93 41 28 	sts	0x2841, r27	; 0x802841 <scheduler_dummy+0x9>
    177e:	80 91 fa 2d 	lds	r24, 0x2DFA	; 0x802dfa <scheduler_list_head>
    1782:	90 91 fb 2d 	lds	r25, 0x2DFB	; 0x802dfb <scheduler_list_head+0x1>
    1786:	80 93 3c 28 	sts	0x283C, r24	; 0x80283c <scheduler_dummy+0x4>
    178a:	90 93 3d 28 	sts	0x283D, r25	; 0x80283d <scheduler_dummy+0x5>
    178e:	88 e3       	ldi	r24, 0x38	; 56
    1790:	98 e2       	ldi	r25, 0x28	; 40
    1792:	80 93 fa 2d 	sts	0x2DFA, r24	; 0x802dfa <scheduler_list_head>
    1796:	90 93 fb 2d 	sts	0x2DFB, r25	; 0x802dfb <scheduler_list_head+0x1>
    179a:	8f ef       	ldi	r24, 0xFF	; 255
    179c:	9f ef       	ldi	r25, 0xFF	; 255
    179e:	a0 e0       	ldi	r26, 0x00	; 0
    17a0:	b0 e0       	ldi	r27, 0x00	; 0
    17a2:	89 83       	std	Y+1, r24	; 0x01
    17a4:	9a 83       	std	Y+2, r25	; 0x02
    17a6:	ab 83       	std	Y+3, r26	; 0x03
    17a8:	bc 83       	std	Y+4, r27	; 0x04
    17aa:	89 81       	ldd	r24, Y+1	; 0x01
    17ac:	9a 81       	ldd	r25, Y+2	; 0x02
    17ae:	ab 81       	ldd	r26, Y+3	; 0x03
    17b0:	bc 81       	ldd	r27, Y+4	; 0x04
    17b2:	bc 01       	movw	r22, r24
    17b4:	cd 01       	movw	r24, r26
    17b6:	0e 94 20 0b 	call	0x1640	; 0x1640 <scheduler_set_timer_duration>
    17ba:	80 e4       	ldi	r24, 0x40	; 64
    17bc:	91 e0       	ldi	r25, 0x01	; 1
    17be:	20 e4       	ldi	r18, 0x40	; 64
    17c0:	31 e0       	ldi	r19, 0x01	; 1
    17c2:	f9 01       	movw	r30, r18
    17c4:	22 81       	ldd	r18, Z+2	; 0x02
    17c6:	21 60       	ori	r18, 0x01	; 1
    17c8:	fc 01       	movw	r30, r24
    17ca:	22 83       	std	Z+2, r18	; 0x02
    17cc:	81 e0       	ldi	r24, 0x01	; 1
    17ce:	80 93 06 2e 	sts	0x2E06, r24	; 0x802e06 <scheduler_is_running>
    17d2:	24 96       	adiw	r28, 0x04	; 4
    17d4:	cd bf       	out	0x3d, r28	; 61
    17d6:	de bf       	out	0x3e, r29	; 62
    17d8:	df 91       	pop	r29
    17da:	cf 91       	pop	r28
    17dc:	08 95       	ret

000017de <scheduler_enqueue_callback>:
    17de:	cf 93       	push	r28
    17e0:	df 93       	push	r29
    17e2:	00 d0       	rcall	.+0      	; 0x17e4 <scheduler_enqueue_callback+0x6>
    17e4:	00 d0       	rcall	.+0      	; 0x17e6 <scheduler_enqueue_callback+0x8>
    17e6:	cd b7       	in	r28, 0x3d	; 61
    17e8:	de b7       	in	r29, 0x3e	; 62
    17ea:	8b 83       	std	Y+3, r24	; 0x03
    17ec:	9c 83       	std	Y+4, r25	; 0x04
    17ee:	8b 81       	ldd	r24, Y+3	; 0x03
    17f0:	9c 81       	ldd	r25, Y+4	; 0x04
    17f2:	fc 01       	movw	r30, r24
    17f4:	14 82       	std	Z+4, r1	; 0x04
    17f6:	15 82       	std	Z+5, r1	; 0x05
    17f8:	80 91 fc 2d 	lds	r24, 0x2DFC	; 0x802dfc <scheduler_execute_queue_head>
    17fc:	90 91 fd 2d 	lds	r25, 0x2DFD	; 0x802dfd <scheduler_execute_queue_head+0x1>
    1800:	89 2b       	or	r24, r25
    1802:	39 f4       	brne	.+14     	; 0x1812 <scheduler_enqueue_callback+0x34>
    1804:	8b 81       	ldd	r24, Y+3	; 0x03
    1806:	9c 81       	ldd	r25, Y+4	; 0x04
    1808:	80 93 fc 2d 	sts	0x2DFC, r24	; 0x802dfc <scheduler_execute_queue_head>
    180c:	90 93 fd 2d 	sts	0x2DFD, r25	; 0x802dfd <scheduler_execute_queue_head+0x1>
    1810:	1c c0       	rjmp	.+56     	; 0x184a <scheduler_enqueue_callback+0x6c>
    1812:	80 91 fc 2d 	lds	r24, 0x2DFC	; 0x802dfc <scheduler_execute_queue_head>
    1816:	90 91 fd 2d 	lds	r25, 0x2DFD	; 0x802dfd <scheduler_execute_queue_head+0x1>
    181a:	89 83       	std	Y+1, r24	; 0x01
    181c:	9a 83       	std	Y+2, r25	; 0x02
    181e:	07 c0       	rjmp	.+14     	; 0x182e <scheduler_enqueue_callback+0x50>
    1820:	89 81       	ldd	r24, Y+1	; 0x01
    1822:	9a 81       	ldd	r25, Y+2	; 0x02
    1824:	fc 01       	movw	r30, r24
    1826:	84 81       	ldd	r24, Z+4	; 0x04
    1828:	95 81       	ldd	r25, Z+5	; 0x05
    182a:	89 83       	std	Y+1, r24	; 0x01
    182c:	9a 83       	std	Y+2, r25	; 0x02
    182e:	89 81       	ldd	r24, Y+1	; 0x01
    1830:	9a 81       	ldd	r25, Y+2	; 0x02
    1832:	fc 01       	movw	r30, r24
    1834:	84 81       	ldd	r24, Z+4	; 0x04
    1836:	95 81       	ldd	r25, Z+5	; 0x05
    1838:	89 2b       	or	r24, r25
    183a:	91 f7       	brne	.-28     	; 0x1820 <scheduler_enqueue_callback+0x42>
    183c:	89 81       	ldd	r24, Y+1	; 0x01
    183e:	9a 81       	ldd	r25, Y+2	; 0x02
    1840:	2b 81       	ldd	r18, Y+3	; 0x03
    1842:	3c 81       	ldd	r19, Y+4	; 0x04
    1844:	fc 01       	movw	r30, r24
    1846:	24 83       	std	Z+4, r18	; 0x04
    1848:	35 83       	std	Z+5, r19	; 0x05
    184a:	24 96       	adiw	r28, 0x04	; 4
    184c:	cd bf       	out	0x3d, r28	; 61
    184e:	de bf       	out	0x3e, r29	; 62
    1850:	df 91       	pop	r29
    1852:	cf 91       	pop	r28
    1854:	08 95       	ret

00001856 <__vector_3>:
    1856:	1f 92       	push	r1
    1858:	0f 92       	push	r0
    185a:	00 90 3f 00 	lds	r0, 0x003F	; 0x80003f <__TEXT_REGION_LENGTH__+0x70003f>
    185e:	0f 92       	push	r0
    1860:	11 24       	eor	r1, r1
    1862:	2f 93       	push	r18
    1864:	3f 93       	push	r19
    1866:	4f 93       	push	r20
    1868:	5f 93       	push	r21
    186a:	6f 93       	push	r22
    186c:	7f 93       	push	r23
    186e:	8f 93       	push	r24
    1870:	9f 93       	push	r25
    1872:	af 93       	push	r26
    1874:	bf 93       	push	r27
    1876:	ef 93       	push	r30
    1878:	ff 93       	push	r31
    187a:	cf 93       	push	r28
    187c:	df 93       	push	r29
    187e:	00 d0       	rcall	.+0      	; 0x1880 <__vector_3+0x2a>
    1880:	cd b7       	in	r28, 0x3d	; 61
    1882:	de b7       	in	r29, 0x3e	; 62
    1884:	80 91 fa 2d 	lds	r24, 0x2DFA	; 0x802dfa <scheduler_list_head>
    1888:	90 91 fb 2d 	lds	r25, 0x2DFB	; 0x802dfb <scheduler_list_head+0x1>
    188c:	fc 01       	movw	r30, r24
    188e:	84 81       	ldd	r24, Z+4	; 0x04
    1890:	95 81       	ldd	r25, Z+5	; 0x05
    1892:	89 83       	std	Y+1, r24	; 0x01
    1894:	9a 83       	std	Y+2, r25	; 0x02
    1896:	80 91 fa 2d 	lds	r24, 0x2DFA	; 0x802dfa <scheduler_list_head>
    189a:	90 91 fb 2d 	lds	r25, 0x2DFB	; 0x802dfb <scheduler_list_head+0x1>
    189e:	fc 01       	movw	r30, r24
    18a0:	86 81       	ldd	r24, Z+6	; 0x06
    18a2:	97 81       	ldd	r25, Z+7	; 0x07
    18a4:	a0 85       	ldd	r26, Z+8	; 0x08
    18a6:	b1 85       	ldd	r27, Z+9	; 0x09
    18a8:	80 93 fe 2d 	sts	0x2DFE, r24	; 0x802dfe <scheduler_absolute_time_of_last_timeout>
    18ac:	90 93 ff 2d 	sts	0x2DFF, r25	; 0x802dff <scheduler_absolute_time_of_last_timeout+0x1>
    18b0:	a0 93 00 2e 	sts	0x2E00, r26	; 0x802e00 <scheduler_absolute_time_of_last_timeout+0x2>
    18b4:	b0 93 01 2e 	sts	0x2E01, r27	; 0x802e01 <scheduler_absolute_time_of_last_timeout+0x3>
    18b8:	10 92 02 2e 	sts	0x2E02, r1	; 0x802e02 <scheduler_last_timer_load>
    18bc:	10 92 03 2e 	sts	0x2E03, r1	; 0x802e03 <scheduler_last_timer_load+0x1>
    18c0:	10 92 04 2e 	sts	0x2E04, r1	; 0x802e04 <scheduler_last_timer_load+0x2>
    18c4:	10 92 05 2e 	sts	0x2E05, r1	; 0x802e05 <scheduler_last_timer_load+0x3>
    18c8:	80 91 fa 2d 	lds	r24, 0x2DFA	; 0x802dfa <scheduler_list_head>
    18cc:	90 91 fb 2d 	lds	r25, 0x2DFB	; 0x802dfb <scheduler_list_head+0x1>
    18d0:	88 53       	subi	r24, 0x38	; 56
    18d2:	98 42       	sbci	r25, 0x28	; 40
    18d4:	31 f0       	breq	.+12     	; 0x18e2 <__vector_3+0x8c>
    18d6:	80 91 fa 2d 	lds	r24, 0x2DFA	; 0x802dfa <scheduler_list_head>
    18da:	90 91 fb 2d 	lds	r25, 0x2DFB	; 0x802dfb <scheduler_list_head+0x1>
    18de:	0e 94 ef 0b 	call	0x17de	; 0x17de <scheduler_enqueue_callback>
    18e2:	89 81       	ldd	r24, Y+1	; 0x01
    18e4:	9a 81       	ldd	r25, Y+2	; 0x02
    18e6:	80 93 fa 2d 	sts	0x2DFA, r24	; 0x802dfa <scheduler_list_head>
    18ea:	90 93 fb 2d 	sts	0x2DFB, r25	; 0x802dfb <scheduler_list_head+0x1>
    18ee:	0e 94 69 0b 	call	0x16d2	; 0x16d2 <scheduler_start_timer_at_head>
    18f2:	80 e4       	ldi	r24, 0x40	; 64
    18f4:	91 e0       	ldi	r25, 0x01	; 1
    18f6:	21 e0       	ldi	r18, 0x01	; 1
    18f8:	fc 01       	movw	r30, r24
    18fa:	23 83       	std	Z+3, r18	; 0x03
    18fc:	00 00       	nop
    18fe:	0f 90       	pop	r0
    1900:	0f 90       	pop	r0
    1902:	df 91       	pop	r29
    1904:	cf 91       	pop	r28
    1906:	ff 91       	pop	r31
    1908:	ef 91       	pop	r30
    190a:	bf 91       	pop	r27
    190c:	af 91       	pop	r26
    190e:	9f 91       	pop	r25
    1910:	8f 91       	pop	r24
    1912:	7f 91       	pop	r23
    1914:	6f 91       	pop	r22
    1916:	5f 91       	pop	r21
    1918:	4f 91       	pop	r20
    191a:	3f 91       	pop	r19
    191c:	2f 91       	pop	r18
    191e:	0f 90       	pop	r0
    1920:	00 92 3f 00 	sts	0x003F, r0	; 0x80003f <__TEXT_REGION_LENGTH__+0x70003f>
    1924:	0f 90       	pop	r0
    1926:	1f 90       	pop	r1
    1928:	18 95       	reti

0000192a <USART_0_init>:
uint8_t USART_0_read()
{
	while (!(USART1.STATUS & USART_RXCIF_bm))
		;
	return USART1.RXDATAL;
}
    192a:	cf 93       	push	r28
    192c:	df 93       	push	r29
    192e:	cd b7       	in	r28, 0x3d	; 61
    1930:	de b7       	in	r29, 0x3e	; 62
    1932:	80 e2       	ldi	r24, 0x20	; 32
    1934:	98 e0       	ldi	r25, 0x08	; 8
    1936:	2e ea       	ldi	r18, 0xAE	; 174
    1938:	30 e0       	ldi	r19, 0x00	; 0
    193a:	fc 01       	movw	r30, r24
    193c:	20 87       	std	Z+8, r18	; 0x08
    193e:	31 87       	std	Z+9, r19	; 0x09
    1940:	80 e2       	ldi	r24, 0x20	; 32
    1942:	98 e0       	ldi	r25, 0x08	; 8
    1944:	20 ec       	ldi	r18, 0xC0	; 192
    1946:	fc 01       	movw	r30, r24
    1948:	26 83       	std	Z+6, r18	; 0x06
    194a:	80 e0       	ldi	r24, 0x00	; 0
    194c:	df 91       	pop	r29
    194e:	cf 91       	pop	r28
    1950:	08 95       	ret

00001952 <USART_1_write>:
 * \param[in] data The character to write to the USART
 *
 * \return Nothing
 */
void USART_1_write(const uint8_t data)
{
    1952:	cf 93       	push	r28
    1954:	df 93       	push	r29
    1956:	1f 92       	push	r1
    1958:	cd b7       	in	r28, 0x3d	; 61
    195a:	de b7       	in	r29, 0x3e	; 62
    195c:	89 83       	std	Y+1, r24	; 0x01
	while (!(USART1.STATUS & USART_DREIF_bm))
    195e:	00 00       	nop
    1960:	80 e2       	ldi	r24, 0x20	; 32
    1962:	98 e0       	ldi	r25, 0x08	; 8
    1964:	fc 01       	movw	r30, r24
    1966:	84 81       	ldd	r24, Z+4	; 0x04
    1968:	88 2f       	mov	r24, r24
    196a:	90 e0       	ldi	r25, 0x00	; 0
    196c:	80 72       	andi	r24, 0x20	; 32
    196e:	99 27       	eor	r25, r25
    1970:	89 2b       	or	r24, r25
    1972:	b1 f3       	breq	.-20     	; 0x1960 <USART_1_write+0xe>
		;
	USART1.TXDATAL = data;
    1974:	80 e2       	ldi	r24, 0x20	; 32
    1976:	98 e0       	ldi	r25, 0x08	; 8
    1978:	29 81       	ldd	r18, Y+1	; 0x01
    197a:	fc 01       	movw	r30, r24
    197c:	22 83       	std	Z+2, r18	; 0x02
}
    197e:	00 00       	nop
    1980:	0f 90       	pop	r0
    1982:	df 91       	pop	r29
    1984:	cf 91       	pop	r28
    1986:	08 95       	ret

00001988 <PORTA_set_pin_dir>:
    1988:	cf 93       	push	r28
    198a:	df 93       	push	r29
    198c:	00 d0       	rcall	.+0      	; 0x198e <PORTA_set_pin_dir+0x6>
    198e:	cd b7       	in	r28, 0x3d	; 61
    1990:	de b7       	in	r29, 0x3e	; 62
    1992:	89 83       	std	Y+1, r24	; 0x01
    1994:	6a 83       	std	Y+2, r22	; 0x02
    1996:	8a 81       	ldd	r24, Y+2	; 0x02
    1998:	88 2f       	mov	r24, r24
    199a:	90 e0       	ldi	r25, 0x00	; 0
    199c:	81 30       	cpi	r24, 0x01	; 1
    199e:	91 05       	cpc	r25, r1
    19a0:	e1 f0       	breq	.+56     	; 0x19da <PORTA_set_pin_dir+0x52>
    19a2:	82 30       	cpi	r24, 0x02	; 2
    19a4:	91 05       	cpc	r25, r1
    19a6:	71 f1       	breq	.+92     	; 0x1a04 <PORTA_set_pin_dir+0x7c>
    19a8:	89 2b       	or	r24, r25
    19aa:	09 f0       	breq	.+2      	; 0x19ae <PORTA_set_pin_dir+0x26>
    19ac:	3b c0       	rjmp	.+118    	; 0x1a24 <PORTA_set_pin_dir+0x9c>
    19ae:	20 e0       	ldi	r18, 0x00	; 0
    19b0:	30 e0       	ldi	r19, 0x00	; 0
    19b2:	80 e0       	ldi	r24, 0x00	; 0
    19b4:	90 e0       	ldi	r25, 0x00	; 0
    19b6:	fc 01       	movw	r30, r24
    19b8:	80 81       	ld	r24, Z
    19ba:	68 2f       	mov	r22, r24
    19bc:	89 81       	ldd	r24, Y+1	; 0x01
    19be:	48 2f       	mov	r20, r24
    19c0:	50 e0       	ldi	r21, 0x00	; 0
    19c2:	81 e0       	ldi	r24, 0x01	; 1
    19c4:	90 e0       	ldi	r25, 0x00	; 0
    19c6:	02 c0       	rjmp	.+4      	; 0x19cc <PORTA_set_pin_dir+0x44>
    19c8:	88 0f       	add	r24, r24
    19ca:	99 1f       	adc	r25, r25
    19cc:	4a 95       	dec	r20
    19ce:	e2 f7       	brpl	.-8      	; 0x19c8 <PORTA_set_pin_dir+0x40>
    19d0:	80 95       	com	r24
    19d2:	86 23       	and	r24, r22
    19d4:	f9 01       	movw	r30, r18
    19d6:	80 83       	st	Z, r24
    19d8:	25 c0       	rjmp	.+74     	; 0x1a24 <PORTA_set_pin_dir+0x9c>
    19da:	20 e0       	ldi	r18, 0x00	; 0
    19dc:	30 e0       	ldi	r19, 0x00	; 0
    19de:	80 e0       	ldi	r24, 0x00	; 0
    19e0:	90 e0       	ldi	r25, 0x00	; 0
    19e2:	fc 01       	movw	r30, r24
    19e4:	80 81       	ld	r24, Z
    19e6:	68 2f       	mov	r22, r24
    19e8:	89 81       	ldd	r24, Y+1	; 0x01
    19ea:	48 2f       	mov	r20, r24
    19ec:	50 e0       	ldi	r21, 0x00	; 0
    19ee:	81 e0       	ldi	r24, 0x01	; 1
    19f0:	90 e0       	ldi	r25, 0x00	; 0
    19f2:	02 c0       	rjmp	.+4      	; 0x19f8 <PORTA_set_pin_dir+0x70>
    19f4:	88 0f       	add	r24, r24
    19f6:	99 1f       	adc	r25, r25
    19f8:	4a 95       	dec	r20
    19fa:	e2 f7       	brpl	.-8      	; 0x19f4 <PORTA_set_pin_dir+0x6c>
    19fc:	86 2b       	or	r24, r22
    19fe:	f9 01       	movw	r30, r18
    1a00:	80 83       	st	Z, r24
    1a02:	10 c0       	rjmp	.+32     	; 0x1a24 <PORTA_set_pin_dir+0x9c>
    1a04:	89 81       	ldd	r24, Y+1	; 0x01
    1a06:	88 2f       	mov	r24, r24
    1a08:	90 e0       	ldi	r25, 0x00	; 0
    1a0a:	80 5f       	subi	r24, 0xF0	; 240
    1a0c:	9b 4f       	sbci	r25, 0xFB	; 251
    1a0e:	29 81       	ldd	r18, Y+1	; 0x01
    1a10:	22 2f       	mov	r18, r18
    1a12:	30 e0       	ldi	r19, 0x00	; 0
    1a14:	20 5f       	subi	r18, 0xF0	; 240
    1a16:	3b 4f       	sbci	r19, 0xFB	; 251
    1a18:	f9 01       	movw	r30, r18
    1a1a:	20 81       	ld	r18, Z
    1a1c:	28 60       	ori	r18, 0x08	; 8
    1a1e:	fc 01       	movw	r30, r24
    1a20:	20 83       	st	Z, r18
    1a22:	00 00       	nop
    1a24:	00 00       	nop
    1a26:	0f 90       	pop	r0
    1a28:	0f 90       	pop	r0
    1a2a:	df 91       	pop	r29
    1a2c:	cf 91       	pop	r28
    1a2e:	08 95       	ret

00001a30 <PORTA_set_pin_level>:
    1a30:	cf 93       	push	r28
    1a32:	df 93       	push	r29
    1a34:	00 d0       	rcall	.+0      	; 0x1a36 <PORTA_set_pin_level+0x6>
    1a36:	cd b7       	in	r28, 0x3d	; 61
    1a38:	de b7       	in	r29, 0x3e	; 62
    1a3a:	89 83       	std	Y+1, r24	; 0x01
    1a3c:	6a 83       	std	Y+2, r22	; 0x02
    1a3e:	8a 81       	ldd	r24, Y+2	; 0x02
    1a40:	88 23       	and	r24, r24
    1a42:	a9 f0       	breq	.+42     	; 0x1a6e <PORTA_set_pin_level+0x3e>
    1a44:	20 e0       	ldi	r18, 0x00	; 0
    1a46:	30 e0       	ldi	r19, 0x00	; 0
    1a48:	80 e0       	ldi	r24, 0x00	; 0
    1a4a:	90 e0       	ldi	r25, 0x00	; 0
    1a4c:	fc 01       	movw	r30, r24
    1a4e:	81 81       	ldd	r24, Z+1	; 0x01
    1a50:	68 2f       	mov	r22, r24
    1a52:	89 81       	ldd	r24, Y+1	; 0x01
    1a54:	48 2f       	mov	r20, r24
    1a56:	50 e0       	ldi	r21, 0x00	; 0
    1a58:	81 e0       	ldi	r24, 0x01	; 1
    1a5a:	90 e0       	ldi	r25, 0x00	; 0
    1a5c:	02 c0       	rjmp	.+4      	; 0x1a62 <PORTA_set_pin_level+0x32>
    1a5e:	88 0f       	add	r24, r24
    1a60:	99 1f       	adc	r25, r25
    1a62:	4a 95       	dec	r20
    1a64:	e2 f7       	brpl	.-8      	; 0x1a5e <PORTA_set_pin_level+0x2e>
    1a66:	86 2b       	or	r24, r22
    1a68:	f9 01       	movw	r30, r18
    1a6a:	81 83       	std	Z+1, r24	; 0x01
    1a6c:	15 c0       	rjmp	.+42     	; 0x1a98 <PORTA_set_pin_level+0x68>
    1a6e:	20 e0       	ldi	r18, 0x00	; 0
    1a70:	30 e0       	ldi	r19, 0x00	; 0
    1a72:	80 e0       	ldi	r24, 0x00	; 0
    1a74:	90 e0       	ldi	r25, 0x00	; 0
    1a76:	fc 01       	movw	r30, r24
    1a78:	81 81       	ldd	r24, Z+1	; 0x01
    1a7a:	68 2f       	mov	r22, r24
    1a7c:	89 81       	ldd	r24, Y+1	; 0x01
    1a7e:	48 2f       	mov	r20, r24
    1a80:	50 e0       	ldi	r21, 0x00	; 0
    1a82:	81 e0       	ldi	r24, 0x01	; 1
    1a84:	90 e0       	ldi	r25, 0x00	; 0
    1a86:	02 c0       	rjmp	.+4      	; 0x1a8c <PORTA_set_pin_level+0x5c>
    1a88:	88 0f       	add	r24, r24
    1a8a:	99 1f       	adc	r25, r25
    1a8c:	4a 95       	dec	r20
    1a8e:	e2 f7       	brpl	.-8      	; 0x1a88 <PORTA_set_pin_level+0x58>
    1a90:	80 95       	com	r24
    1a92:	86 23       	and	r24, r22
    1a94:	f9 01       	movw	r30, r18
    1a96:	81 83       	std	Z+1, r24	; 0x01
    1a98:	00 00       	nop
    1a9a:	0f 90       	pop	r0
    1a9c:	0f 90       	pop	r0
    1a9e:	df 91       	pop	r29
    1aa0:	cf 91       	pop	r28
    1aa2:	08 95       	ret

00001aa4 <PORTC_set_pin_pull_mode>:
    1aa4:	cf 93       	push	r28
    1aa6:	df 93       	push	r29
    1aa8:	00 d0       	rcall	.+0      	; 0x1aaa <PORTC_set_pin_pull_mode+0x6>
    1aaa:	00 d0       	rcall	.+0      	; 0x1aac <PORTC_set_pin_pull_mode+0x8>
    1aac:	cd b7       	in	r28, 0x3d	; 61
    1aae:	de b7       	in	r29, 0x3e	; 62
    1ab0:	8b 83       	std	Y+3, r24	; 0x03
    1ab2:	6c 83       	std	Y+4, r22	; 0x04
    1ab4:	8b 81       	ldd	r24, Y+3	; 0x03
    1ab6:	88 2f       	mov	r24, r24
    1ab8:	90 e0       	ldi	r25, 0x00	; 0
    1aba:	80 5b       	subi	r24, 0xB0	; 176
    1abc:	9b 4f       	sbci	r25, 0xFB	; 251
    1abe:	89 83       	std	Y+1, r24	; 0x01
    1ac0:	9a 83       	std	Y+2, r25	; 0x02
    1ac2:	8c 81       	ldd	r24, Y+4	; 0x04
    1ac4:	81 30       	cpi	r24, 0x01	; 1
    1ac6:	59 f4       	brne	.+22     	; 0x1ade <PORTC_set_pin_pull_mode+0x3a>
    1ac8:	89 81       	ldd	r24, Y+1	; 0x01
    1aca:	9a 81       	ldd	r25, Y+2	; 0x02
    1acc:	fc 01       	movw	r30, r24
    1ace:	80 81       	ld	r24, Z
    1ad0:	28 2f       	mov	r18, r24
    1ad2:	28 60       	ori	r18, 0x08	; 8
    1ad4:	89 81       	ldd	r24, Y+1	; 0x01
    1ad6:	9a 81       	ldd	r25, Y+2	; 0x02
    1ad8:	fc 01       	movw	r30, r24
    1ada:	20 83       	st	Z, r18
    1adc:	0d c0       	rjmp	.+26     	; 0x1af8 <PORTC_set_pin_pull_mode+0x54>
    1ade:	8c 81       	ldd	r24, Y+4	; 0x04
    1ae0:	88 23       	and	r24, r24
    1ae2:	51 f4       	brne	.+20     	; 0x1af8 <PORTC_set_pin_pull_mode+0x54>
    1ae4:	89 81       	ldd	r24, Y+1	; 0x01
    1ae6:	9a 81       	ldd	r25, Y+2	; 0x02
    1ae8:	fc 01       	movw	r30, r24
    1aea:	80 81       	ld	r24, Z
    1aec:	28 2f       	mov	r18, r24
    1aee:	27 7f       	andi	r18, 0xF7	; 247
    1af0:	89 81       	ldd	r24, Y+1	; 0x01
    1af2:	9a 81       	ldd	r25, Y+2	; 0x02
    1af4:	fc 01       	movw	r30, r24
    1af6:	20 83       	st	Z, r18
    1af8:	00 00       	nop
    1afa:	24 96       	adiw	r28, 0x04	; 4
    1afc:	cd bf       	out	0x3d, r28	; 61
    1afe:	de bf       	out	0x3e, r29	; 62
    1b00:	df 91       	pop	r29
    1b02:	cf 91       	pop	r28
    1b04:	08 95       	ret

00001b06 <PORTC_pin_set_isc>:
    1b06:	cf 93       	push	r28
    1b08:	df 93       	push	r29
    1b0a:	00 d0       	rcall	.+0      	; 0x1b0c <PORTC_pin_set_isc+0x6>
    1b0c:	00 d0       	rcall	.+0      	; 0x1b0e <PORTC_pin_set_isc+0x8>
    1b0e:	cd b7       	in	r28, 0x3d	; 61
    1b10:	de b7       	in	r29, 0x3e	; 62
    1b12:	8b 83       	std	Y+3, r24	; 0x03
    1b14:	6c 83       	std	Y+4, r22	; 0x04
    1b16:	8b 81       	ldd	r24, Y+3	; 0x03
    1b18:	88 2f       	mov	r24, r24
    1b1a:	90 e0       	ldi	r25, 0x00	; 0
    1b1c:	80 5b       	subi	r24, 0xB0	; 176
    1b1e:	9b 4f       	sbci	r25, 0xFB	; 251
    1b20:	89 83       	std	Y+1, r24	; 0x01
    1b22:	9a 83       	std	Y+2, r25	; 0x02
    1b24:	89 81       	ldd	r24, Y+1	; 0x01
    1b26:	9a 81       	ldd	r25, Y+2	; 0x02
    1b28:	fc 01       	movw	r30, r24
    1b2a:	80 81       	ld	r24, Z
    1b2c:	98 2f       	mov	r25, r24
    1b2e:	98 7f       	andi	r25, 0xF8	; 248
    1b30:	8c 81       	ldd	r24, Y+4	; 0x04
    1b32:	89 2b       	or	r24, r25
    1b34:	28 2f       	mov	r18, r24
    1b36:	89 81       	ldd	r24, Y+1	; 0x01
    1b38:	9a 81       	ldd	r25, Y+2	; 0x02
    1b3a:	fc 01       	movw	r30, r24
    1b3c:	20 83       	st	Z, r18
    1b3e:	00 00       	nop
    1b40:	24 96       	adiw	r28, 0x04	; 4
    1b42:	cd bf       	out	0x3d, r28	; 61
    1b44:	de bf       	out	0x3e, r29	; 62
    1b46:	df 91       	pop	r29
    1b48:	cf 91       	pop	r28
    1b4a:	08 95       	ret

00001b4c <PORTC_set_pin_dir>:
    1b4c:	cf 93       	push	r28
    1b4e:	df 93       	push	r29
    1b50:	00 d0       	rcall	.+0      	; 0x1b52 <PORTC_set_pin_dir+0x6>
    1b52:	cd b7       	in	r28, 0x3d	; 61
    1b54:	de b7       	in	r29, 0x3e	; 62
    1b56:	89 83       	std	Y+1, r24	; 0x01
    1b58:	6a 83       	std	Y+2, r22	; 0x02
    1b5a:	8a 81       	ldd	r24, Y+2	; 0x02
    1b5c:	88 2f       	mov	r24, r24
    1b5e:	90 e0       	ldi	r25, 0x00	; 0
    1b60:	81 30       	cpi	r24, 0x01	; 1
    1b62:	91 05       	cpc	r25, r1
    1b64:	e1 f0       	breq	.+56     	; 0x1b9e <PORTC_set_pin_dir+0x52>
    1b66:	82 30       	cpi	r24, 0x02	; 2
    1b68:	91 05       	cpc	r25, r1
    1b6a:	71 f1       	breq	.+92     	; 0x1bc8 <PORTC_set_pin_dir+0x7c>
    1b6c:	89 2b       	or	r24, r25
    1b6e:	09 f0       	breq	.+2      	; 0x1b72 <PORTC_set_pin_dir+0x26>
    1b70:	3b c0       	rjmp	.+118    	; 0x1be8 <PORTC_set_pin_dir+0x9c>
    1b72:	88 e0       	ldi	r24, 0x08	; 8
    1b74:	90 e0       	ldi	r25, 0x00	; 0
    1b76:	28 e0       	ldi	r18, 0x08	; 8
    1b78:	30 e0       	ldi	r19, 0x00	; 0
    1b7a:	f9 01       	movw	r30, r18
    1b7c:	20 81       	ld	r18, Z
    1b7e:	62 2f       	mov	r22, r18
    1b80:	29 81       	ldd	r18, Y+1	; 0x01
    1b82:	42 2f       	mov	r20, r18
    1b84:	50 e0       	ldi	r21, 0x00	; 0
    1b86:	21 e0       	ldi	r18, 0x01	; 1
    1b88:	30 e0       	ldi	r19, 0x00	; 0
    1b8a:	02 c0       	rjmp	.+4      	; 0x1b90 <PORTC_set_pin_dir+0x44>
    1b8c:	22 0f       	add	r18, r18
    1b8e:	33 1f       	adc	r19, r19
    1b90:	4a 95       	dec	r20
    1b92:	e2 f7       	brpl	.-8      	; 0x1b8c <PORTC_set_pin_dir+0x40>
    1b94:	20 95       	com	r18
    1b96:	26 23       	and	r18, r22
    1b98:	fc 01       	movw	r30, r24
    1b9a:	20 83       	st	Z, r18
    1b9c:	25 c0       	rjmp	.+74     	; 0x1be8 <PORTC_set_pin_dir+0x9c>
    1b9e:	88 e0       	ldi	r24, 0x08	; 8
    1ba0:	90 e0       	ldi	r25, 0x00	; 0
    1ba2:	28 e0       	ldi	r18, 0x08	; 8
    1ba4:	30 e0       	ldi	r19, 0x00	; 0
    1ba6:	f9 01       	movw	r30, r18
    1ba8:	20 81       	ld	r18, Z
    1baa:	62 2f       	mov	r22, r18
    1bac:	29 81       	ldd	r18, Y+1	; 0x01
    1bae:	42 2f       	mov	r20, r18
    1bb0:	50 e0       	ldi	r21, 0x00	; 0
    1bb2:	21 e0       	ldi	r18, 0x01	; 1
    1bb4:	30 e0       	ldi	r19, 0x00	; 0
    1bb6:	02 c0       	rjmp	.+4      	; 0x1bbc <PORTC_set_pin_dir+0x70>
    1bb8:	22 0f       	add	r18, r18
    1bba:	33 1f       	adc	r19, r19
    1bbc:	4a 95       	dec	r20
    1bbe:	e2 f7       	brpl	.-8      	; 0x1bb8 <PORTC_set_pin_dir+0x6c>
    1bc0:	26 2b       	or	r18, r22
    1bc2:	fc 01       	movw	r30, r24
    1bc4:	20 83       	st	Z, r18
    1bc6:	10 c0       	rjmp	.+32     	; 0x1be8 <PORTC_set_pin_dir+0x9c>
    1bc8:	89 81       	ldd	r24, Y+1	; 0x01
    1bca:	88 2f       	mov	r24, r24
    1bcc:	90 e0       	ldi	r25, 0x00	; 0
    1bce:	80 5b       	subi	r24, 0xB0	; 176
    1bd0:	9b 4f       	sbci	r25, 0xFB	; 251
    1bd2:	29 81       	ldd	r18, Y+1	; 0x01
    1bd4:	22 2f       	mov	r18, r18
    1bd6:	30 e0       	ldi	r19, 0x00	; 0
    1bd8:	20 5b       	subi	r18, 0xB0	; 176
    1bda:	3b 4f       	sbci	r19, 0xFB	; 251
    1bdc:	f9 01       	movw	r30, r18
    1bde:	20 81       	ld	r18, Z
    1be0:	28 60       	ori	r18, 0x08	; 8
    1be2:	fc 01       	movw	r30, r24
    1be4:	20 83       	st	Z, r18
    1be6:	00 00       	nop
    1be8:	00 00       	nop
    1bea:	0f 90       	pop	r0
    1bec:	0f 90       	pop	r0
    1bee:	df 91       	pop	r29
    1bf0:	cf 91       	pop	r28
    1bf2:	08 95       	ret

00001bf4 <PORTC_set_pin_level>:
    1bf4:	cf 93       	push	r28
    1bf6:	df 93       	push	r29
    1bf8:	00 d0       	rcall	.+0      	; 0x1bfa <PORTC_set_pin_level+0x6>
    1bfa:	cd b7       	in	r28, 0x3d	; 61
    1bfc:	de b7       	in	r29, 0x3e	; 62
    1bfe:	89 83       	std	Y+1, r24	; 0x01
    1c00:	6a 83       	std	Y+2, r22	; 0x02
    1c02:	8a 81       	ldd	r24, Y+2	; 0x02
    1c04:	88 23       	and	r24, r24
    1c06:	a9 f0       	breq	.+42     	; 0x1c32 <PORTC_set_pin_level+0x3e>
    1c08:	88 e0       	ldi	r24, 0x08	; 8
    1c0a:	90 e0       	ldi	r25, 0x00	; 0
    1c0c:	28 e0       	ldi	r18, 0x08	; 8
    1c0e:	30 e0       	ldi	r19, 0x00	; 0
    1c10:	f9 01       	movw	r30, r18
    1c12:	21 81       	ldd	r18, Z+1	; 0x01
    1c14:	62 2f       	mov	r22, r18
    1c16:	29 81       	ldd	r18, Y+1	; 0x01
    1c18:	42 2f       	mov	r20, r18
    1c1a:	50 e0       	ldi	r21, 0x00	; 0
    1c1c:	21 e0       	ldi	r18, 0x01	; 1
    1c1e:	30 e0       	ldi	r19, 0x00	; 0
    1c20:	02 c0       	rjmp	.+4      	; 0x1c26 <PORTC_set_pin_level+0x32>
    1c22:	22 0f       	add	r18, r18
    1c24:	33 1f       	adc	r19, r19
    1c26:	4a 95       	dec	r20
    1c28:	e2 f7       	brpl	.-8      	; 0x1c22 <PORTC_set_pin_level+0x2e>
    1c2a:	26 2b       	or	r18, r22
    1c2c:	fc 01       	movw	r30, r24
    1c2e:	21 83       	std	Z+1, r18	; 0x01
    1c30:	15 c0       	rjmp	.+42     	; 0x1c5c <PORTC_set_pin_level+0x68>
    1c32:	88 e0       	ldi	r24, 0x08	; 8
    1c34:	90 e0       	ldi	r25, 0x00	; 0
    1c36:	28 e0       	ldi	r18, 0x08	; 8
    1c38:	30 e0       	ldi	r19, 0x00	; 0
    1c3a:	f9 01       	movw	r30, r18
    1c3c:	21 81       	ldd	r18, Z+1	; 0x01
    1c3e:	62 2f       	mov	r22, r18
    1c40:	29 81       	ldd	r18, Y+1	; 0x01
    1c42:	42 2f       	mov	r20, r18
    1c44:	50 e0       	ldi	r21, 0x00	; 0
    1c46:	21 e0       	ldi	r18, 0x01	; 1
    1c48:	30 e0       	ldi	r19, 0x00	; 0
    1c4a:	02 c0       	rjmp	.+4      	; 0x1c50 <PORTC_set_pin_level+0x5c>
    1c4c:	22 0f       	add	r18, r18
    1c4e:	33 1f       	adc	r19, r19
    1c50:	4a 95       	dec	r20
    1c52:	e2 f7       	brpl	.-8      	; 0x1c4c <PORTC_set_pin_level+0x58>
    1c54:	20 95       	com	r18
    1c56:	26 23       	and	r18, r22
    1c58:	fc 01       	movw	r30, r24
    1c5a:	21 83       	std	Z+1, r18	; 0x01
    1c5c:	00 00       	nop
    1c5e:	0f 90       	pop	r0
    1c60:	0f 90       	pop	r0
    1c62:	df 91       	pop	r29
    1c64:	cf 91       	pop	r28
    1c66:	08 95       	ret

00001c68 <PORTC_get_pin_level>:
    1c68:	cf 93       	push	r28
    1c6a:	df 93       	push	r29
    1c6c:	1f 92       	push	r1
    1c6e:	cd b7       	in	r28, 0x3d	; 61
    1c70:	de b7       	in	r29, 0x3e	; 62
    1c72:	89 83       	std	Y+1, r24	; 0x01
    1c74:	88 e0       	ldi	r24, 0x08	; 8
    1c76:	90 e0       	ldi	r25, 0x00	; 0
    1c78:	fc 01       	movw	r30, r24
    1c7a:	82 81       	ldd	r24, Z+2	; 0x02
    1c7c:	28 2f       	mov	r18, r24
    1c7e:	30 e0       	ldi	r19, 0x00	; 0
    1c80:	89 81       	ldd	r24, Y+1	; 0x01
    1c82:	48 2f       	mov	r20, r24
    1c84:	50 e0       	ldi	r21, 0x00	; 0
    1c86:	81 e0       	ldi	r24, 0x01	; 1
    1c88:	90 e0       	ldi	r25, 0x00	; 0
    1c8a:	02 c0       	rjmp	.+4      	; 0x1c90 <PORTC_get_pin_level+0x28>
    1c8c:	88 0f       	add	r24, r24
    1c8e:	99 1f       	adc	r25, r25
    1c90:	4a 95       	dec	r20
    1c92:	e2 f7       	brpl	.-8      	; 0x1c8c <PORTC_get_pin_level+0x24>
    1c94:	82 23       	and	r24, r18
    1c96:	93 23       	and	r25, r19
    1c98:	21 e0       	ldi	r18, 0x01	; 1
    1c9a:	89 2b       	or	r24, r25
    1c9c:	09 f4       	brne	.+2      	; 0x1ca0 <PORTC_get_pin_level+0x38>
    1c9e:	20 e0       	ldi	r18, 0x00	; 0
    1ca0:	82 2f       	mov	r24, r18
    1ca2:	0f 90       	pop	r0
    1ca4:	df 91       	pop	r29
    1ca6:	cf 91       	pop	r28
    1ca8:	08 95       	ret

00001caa <CONF_WIFI_M2M_RESET_PIN_set_dir>:
    1caa:	cf 93       	push	r28
    1cac:	df 93       	push	r29
    1cae:	1f 92       	push	r1
    1cb0:	cd b7       	in	r28, 0x3d	; 61
    1cb2:	de b7       	in	r29, 0x3e	; 62
    1cb4:	89 83       	std	Y+1, r24	; 0x01
    1cb6:	69 81       	ldd	r22, Y+1	; 0x01
    1cb8:	82 e0       	ldi	r24, 0x02	; 2
    1cba:	0e 94 c4 0c 	call	0x1988	; 0x1988 <PORTA_set_pin_dir>
    1cbe:	00 00       	nop
    1cc0:	0f 90       	pop	r0
    1cc2:	df 91       	pop	r29
    1cc4:	cf 91       	pop	r28
    1cc6:	08 95       	ret

00001cc8 <CONF_WIFI_M2M_RESET_PIN_set_level>:
    1cc8:	cf 93       	push	r28
    1cca:	df 93       	push	r29
    1ccc:	1f 92       	push	r1
    1cce:	cd b7       	in	r28, 0x3d	; 61
    1cd0:	de b7       	in	r29, 0x3e	; 62
    1cd2:	89 83       	std	Y+1, r24	; 0x01
    1cd4:	69 81       	ldd	r22, Y+1	; 0x01
    1cd6:	82 e0       	ldi	r24, 0x02	; 2
    1cd8:	0e 94 18 0d 	call	0x1a30	; 0x1a30 <PORTA_set_pin_level>
    1cdc:	00 00       	nop
    1cde:	0f 90       	pop	r0
    1ce0:	df 91       	pop	r29
    1ce2:	cf 91       	pop	r28
    1ce4:	08 95       	ret

00001ce6 <CONF_WIFI_M2M_WAKE_PIN_set_dir>:
    1ce6:	cf 93       	push	r28
    1ce8:	df 93       	push	r29
    1cea:	1f 92       	push	r1
    1cec:	cd b7       	in	r28, 0x3d	; 61
    1cee:	de b7       	in	r29, 0x3e	; 62
    1cf0:	89 83       	std	Y+1, r24	; 0x01
    1cf2:	69 81       	ldd	r22, Y+1	; 0x01
    1cf4:	83 e0       	ldi	r24, 0x03	; 3
    1cf6:	0e 94 c4 0c 	call	0x1988	; 0x1988 <PORTA_set_pin_dir>
    1cfa:	00 00       	nop
    1cfc:	0f 90       	pop	r0
    1cfe:	df 91       	pop	r29
    1d00:	cf 91       	pop	r28
    1d02:	08 95       	ret

00001d04 <CONF_WIFI_M2M_INT_PIN_set_pull_mode>:
    1d04:	cf 93       	push	r28
    1d06:	df 93       	push	r29
    1d08:	1f 92       	push	r1
    1d0a:	cd b7       	in	r28, 0x3d	; 61
    1d0c:	de b7       	in	r29, 0x3e	; 62
    1d0e:	89 83       	std	Y+1, r24	; 0x01
    1d10:	69 81       	ldd	r22, Y+1	; 0x01
    1d12:	86 e0       	ldi	r24, 0x06	; 6
    1d14:	0e 94 52 0d 	call	0x1aa4	; 0x1aa4 <PORTC_set_pin_pull_mode>
    1d18:	00 00       	nop
    1d1a:	0f 90       	pop	r0
    1d1c:	df 91       	pop	r29
    1d1e:	cf 91       	pop	r28
    1d20:	08 95       	ret

00001d22 <CONF_WIFI_M2M_INT_PIN_set_dir>:
    1d22:	cf 93       	push	r28
    1d24:	df 93       	push	r29
    1d26:	1f 92       	push	r1
    1d28:	cd b7       	in	r28, 0x3d	; 61
    1d2a:	de b7       	in	r29, 0x3e	; 62
    1d2c:	89 83       	std	Y+1, r24	; 0x01
    1d2e:	69 81       	ldd	r22, Y+1	; 0x01
    1d30:	86 e0       	ldi	r24, 0x06	; 6
    1d32:	0e 94 a6 0d 	call	0x1b4c	; 0x1b4c <PORTC_set_pin_dir>
    1d36:	00 00       	nop
    1d38:	0f 90       	pop	r0
    1d3a:	df 91       	pop	r29
    1d3c:	cf 91       	pop	r28
    1d3e:	08 95       	ret

00001d40 <CONF_WIFI_M2M_INT_PIN_set_isc>:
    1d40:	cf 93       	push	r28
    1d42:	df 93       	push	r29
    1d44:	1f 92       	push	r1
    1d46:	cd b7       	in	r28, 0x3d	; 61
    1d48:	de b7       	in	r29, 0x3e	; 62
    1d4a:	89 83       	std	Y+1, r24	; 0x01
    1d4c:	69 81       	ldd	r22, Y+1	; 0x01
    1d4e:	86 e0       	ldi	r24, 0x06	; 6
    1d50:	0e 94 83 0d 	call	0x1b06	; 0x1b06 <PORTC_pin_set_isc>
    1d54:	00 00       	nop
    1d56:	0f 90       	pop	r0
    1d58:	df 91       	pop	r29
    1d5a:	cf 91       	pop	r28
    1d5c:	08 95       	ret

00001d5e <CONF_WIFI_M2M_INT_PIN_get_level>:
    1d5e:	cf 93       	push	r28
    1d60:	df 93       	push	r29
    1d62:	cd b7       	in	r28, 0x3d	; 61
    1d64:	de b7       	in	r29, 0x3e	; 62
    1d66:	86 e0       	ldi	r24, 0x06	; 6
    1d68:	0e 94 34 0e 	call	0x1c68	; 0x1c68 <PORTC_get_pin_level>
    1d6c:	df 91       	pop	r29
    1d6e:	cf 91       	pop	r28
    1d70:	08 95       	ret

00001d72 <CONF_WIFI_M2M_CHIP_ENABLE_PIN_set_dir>:
    1d72:	cf 93       	push	r28
    1d74:	df 93       	push	r29
    1d76:	1f 92       	push	r1
    1d78:	cd b7       	in	r28, 0x3d	; 61
    1d7a:	de b7       	in	r29, 0x3e	; 62
    1d7c:	89 83       	std	Y+1, r24	; 0x01
    1d7e:	69 81       	ldd	r22, Y+1	; 0x01
    1d80:	87 e0       	ldi	r24, 0x07	; 7
    1d82:	0e 94 a6 0d 	call	0x1b4c	; 0x1b4c <PORTC_set_pin_dir>
    1d86:	00 00       	nop
    1d88:	0f 90       	pop	r0
    1d8a:	df 91       	pop	r29
    1d8c:	cf 91       	pop	r28
    1d8e:	08 95       	ret

00001d90 <CONF_WIFI_M2M_CHIP_ENABLE_PIN_set_level>:
    1d90:	cf 93       	push	r28
    1d92:	df 93       	push	r29
    1d94:	1f 92       	push	r1
    1d96:	cd b7       	in	r28, 0x3d	; 61
    1d98:	de b7       	in	r29, 0x3e	; 62
    1d9a:	89 83       	std	Y+1, r24	; 0x01
    1d9c:	69 81       	ldd	r22, Y+1	; 0x01
    1d9e:	87 e0       	ldi	r24, 0x07	; 7
    1da0:	0e 94 fa 0d 	call	0x1bf4	; 0x1bf4 <PORTC_set_pin_level>
    1da4:	00 00       	nop
    1da6:	0f 90       	pop	r0
    1da8:	df 91       	pop	r29
    1daa:	cf 91       	pop	r28
    1dac:	08 95       	ret

00001dae <__vector_24>:
    1dae:	1f 92       	push	r1
    1db0:	0f 92       	push	r0
    1db2:	00 90 3f 00 	lds	r0, 0x003F	; 0x80003f <__TEXT_REGION_LENGTH__+0x70003f>
    1db6:	0f 92       	push	r0
    1db8:	11 24       	eor	r1, r1
    1dba:	2f 93       	push	r18
    1dbc:	3f 93       	push	r19
    1dbe:	4f 93       	push	r20
    1dc0:	5f 93       	push	r21
    1dc2:	6f 93       	push	r22
    1dc4:	7f 93       	push	r23
    1dc6:	8f 93       	push	r24
    1dc8:	9f 93       	push	r25
    1dca:	af 93       	push	r26
    1dcc:	bf 93       	push	r27
    1dce:	ef 93       	push	r30
    1dd0:	ff 93       	push	r31
    1dd2:	cf 93       	push	r28
    1dd4:	df 93       	push	r29
    1dd6:	cd b7       	in	r28, 0x3d	; 61
    1dd8:	de b7       	in	r29, 0x3e	; 62
    1dda:	0e 94 af 0e 	call	0x1d5e	; 0x1d5e <CONF_WIFI_M2M_INT_PIN_get_level>
    1dde:	98 2f       	mov	r25, r24
    1de0:	81 e0       	ldi	r24, 0x01	; 1
    1de2:	89 27       	eor	r24, r25
    1de4:	88 23       	and	r24, r24
    1de6:	61 f0       	breq	.+24     	; 0x1e00 <__vector_24+0x52>
    1de8:	80 91 07 2e 	lds	r24, 0x2E07	; 0x802e07 <gpfIsr>
    1dec:	90 91 08 2e 	lds	r25, 0x2E08	; 0x802e08 <gpfIsr+0x1>
    1df0:	89 2b       	or	r24, r25
    1df2:	31 f0       	breq	.+12     	; 0x1e00 <__vector_24+0x52>
    1df4:	80 91 07 2e 	lds	r24, 0x2E07	; 0x802e07 <gpfIsr>
    1df8:	90 91 08 2e 	lds	r25, 0x2E08	; 0x802e08 <gpfIsr+0x1>
    1dfc:	fc 01       	movw	r30, r24
    1dfe:	09 95       	icall
    1e00:	8b e0       	ldi	r24, 0x0B	; 11
    1e02:	90 e0       	ldi	r25, 0x00	; 0
    1e04:	20 ec       	ldi	r18, 0xC0	; 192
    1e06:	fc 01       	movw	r30, r24
    1e08:	20 83       	st	Z, r18
    1e0a:	00 00       	nop
    1e0c:	df 91       	pop	r29
    1e0e:	cf 91       	pop	r28
    1e10:	ff 91       	pop	r31
    1e12:	ef 91       	pop	r30
    1e14:	bf 91       	pop	r27
    1e16:	af 91       	pop	r26
    1e18:	9f 91       	pop	r25
    1e1a:	8f 91       	pop	r24
    1e1c:	7f 91       	pop	r23
    1e1e:	6f 91       	pop	r22
    1e20:	5f 91       	pop	r21
    1e22:	4f 91       	pop	r20
    1e24:	3f 91       	pop	r19
    1e26:	2f 91       	pop	r18
    1e28:	0f 90       	pop	r0
    1e2a:	00 92 3f 00 	sts	0x003F, r0	; 0x80003f <__TEXT_REGION_LENGTH__+0x70003f>
    1e2e:	0f 90       	pop	r0
    1e30:	1f 90       	pop	r1
    1e32:	18 95       	reti

00001e34 <init_chip_pins>:
    1e34:	cf 93       	push	r28
    1e36:	df 93       	push	r29
    1e38:	cd b7       	in	r28, 0x3d	; 61
    1e3a:	de b7       	in	r29, 0x3e	; 62
    1e3c:	81 e0       	ldi	r24, 0x01	; 1
    1e3e:	0e 94 55 0e 	call	0x1caa	; 0x1caa <CONF_WIFI_M2M_RESET_PIN_set_dir>
    1e42:	81 e0       	ldi	r24, 0x01	; 1
    1e44:	0e 94 b9 0e 	call	0x1d72	; 0x1d72 <CONF_WIFI_M2M_CHIP_ENABLE_PIN_set_dir>
    1e48:	81 e0       	ldi	r24, 0x01	; 1
    1e4a:	0e 94 73 0e 	call	0x1ce6	; 0x1ce6 <CONF_WIFI_M2M_WAKE_PIN_set_dir>
    1e4e:	00 00       	nop
    1e50:	df 91       	pop	r29
    1e52:	cf 91       	pop	r28
    1e54:	08 95       	ret

00001e56 <nm_bsp_init>:
    1e56:	cf 93       	push	r28
    1e58:	df 93       	push	r29
    1e5a:	cd b7       	in	r28, 0x3d	; 61
    1e5c:	de b7       	in	r29, 0x3e	; 62
    1e5e:	10 92 07 2e 	sts	0x2E07, r1	; 0x802e07 <gpfIsr>
    1e62:	10 92 08 2e 	sts	0x2E08, r1	; 0x802e08 <gpfIsr+0x1>
    1e66:	0e 94 1a 0f 	call	0x1e34	; 0x1e34 <init_chip_pins>
    1e6a:	0e 94 3c 0f 	call	0x1e78	; 0x1e78 <nm_bsp_reset>
    1e6e:	78 94       	sei
    1e70:	80 e0       	ldi	r24, 0x00	; 0
    1e72:	df 91       	pop	r29
    1e74:	cf 91       	pop	r28
    1e76:	08 95       	ret

00001e78 <nm_bsp_reset>:
    1e78:	cf 93       	push	r28
    1e7a:	df 93       	push	r29
    1e7c:	cd b7       	in	r28, 0x3d	; 61
    1e7e:	de b7       	in	r29, 0x3e	; 62
    1e80:	80 e0       	ldi	r24, 0x00	; 0
    1e82:	0e 94 c8 0e 	call	0x1d90	; 0x1d90 <CONF_WIFI_M2M_CHIP_ENABLE_PIN_set_level>
    1e86:	80 e0       	ldi	r24, 0x00	; 0
    1e88:	0e 94 64 0e 	call	0x1cc8	; 0x1cc8 <CONF_WIFI_M2M_RESET_PIN_set_level>
    1e8c:	61 e0       	ldi	r22, 0x01	; 1
    1e8e:	70 e0       	ldi	r23, 0x00	; 0
    1e90:	80 e0       	ldi	r24, 0x00	; 0
    1e92:	90 e0       	ldi	r25, 0x00	; 0
    1e94:	0e 94 5c 0f 	call	0x1eb8	; 0x1eb8 <nm_bsp_sleep>
    1e98:	81 e0       	ldi	r24, 0x01	; 1
    1e9a:	0e 94 c8 0e 	call	0x1d90	; 0x1d90 <CONF_WIFI_M2M_CHIP_ENABLE_PIN_set_level>
    1e9e:	6a e0       	ldi	r22, 0x0A	; 10
    1ea0:	70 e0       	ldi	r23, 0x00	; 0
    1ea2:	80 e0       	ldi	r24, 0x00	; 0
    1ea4:	90 e0       	ldi	r25, 0x00	; 0
    1ea6:	0e 94 5c 0f 	call	0x1eb8	; 0x1eb8 <nm_bsp_sleep>
    1eaa:	81 e0       	ldi	r24, 0x01	; 1
    1eac:	0e 94 64 0e 	call	0x1cc8	; 0x1cc8 <CONF_WIFI_M2M_RESET_PIN_set_level>
    1eb0:	00 00       	nop
    1eb2:	df 91       	pop	r29
    1eb4:	cf 91       	pop	r28
    1eb6:	08 95       	ret

00001eb8 <nm_bsp_sleep>:
    1eb8:	cf 93       	push	r28
    1eba:	df 93       	push	r29
    1ebc:	cd b7       	in	r28, 0x3d	; 61
    1ebe:	de b7       	in	r29, 0x3e	; 62
    1ec0:	62 97       	sbiw	r28, 0x12	; 18
    1ec2:	cd bf       	out	0x3d, r28	; 61
    1ec4:	de bf       	out	0x3e, r29	; 62
    1ec6:	6f 87       	std	Y+15, r22	; 0x0f
    1ec8:	78 8b       	std	Y+16, r23	; 0x10
    1eca:	89 8b       	std	Y+17, r24	; 0x11
    1ecc:	9a 8b       	std	Y+18, r25	; 0x12
    1ece:	72 c0       	rjmp	.+228    	; 0x1fb4 <nm_bsp_sleep+0xfc>
    1ed0:	80 e0       	ldi	r24, 0x00	; 0
    1ed2:	90 e0       	ldi	r25, 0x00	; 0
    1ed4:	a0 e8       	ldi	r26, 0x80	; 128
    1ed6:	bf e3       	ldi	r27, 0x3F	; 63
    1ed8:	89 83       	std	Y+1, r24	; 0x01
    1eda:	9a 83       	std	Y+2, r25	; 0x02
    1edc:	ab 83       	std	Y+3, r26	; 0x03
    1ede:	bc 83       	std	Y+4, r27	; 0x04

	__builtin_avr_delay_cycles(__ticks_dc);

#else
	uint16_t __ticks;
	__tmp = ((F_CPU) / 4e3) * __ms;
    1ee0:	20 e0       	ldi	r18, 0x00	; 0
    1ee2:	30 e4       	ldi	r19, 0x40	; 64
    1ee4:	4c e1       	ldi	r20, 0x1C	; 28
    1ee6:	55 e4       	ldi	r21, 0x45	; 69
    1ee8:	69 81       	ldd	r22, Y+1	; 0x01
    1eea:	7a 81       	ldd	r23, Y+2	; 0x02
    1eec:	8b 81       	ldd	r24, Y+3	; 0x03
    1eee:	9c 81       	ldd	r25, Y+4	; 0x04
    1ef0:	0e 94 67 38 	call	0x70ce	; 0x70ce <__mulsf3>
    1ef4:	dc 01       	movw	r26, r24
    1ef6:	cb 01       	movw	r24, r22
    1ef8:	8d 83       	std	Y+5, r24	; 0x05
    1efa:	9e 83       	std	Y+6, r25	; 0x06
    1efc:	af 83       	std	Y+7, r26	; 0x07
    1efe:	b8 87       	std	Y+8, r27	; 0x08
	if (__tmp < 1.0)
    1f00:	20 e0       	ldi	r18, 0x00	; 0
    1f02:	30 e0       	ldi	r19, 0x00	; 0
    1f04:	40 e8       	ldi	r20, 0x80	; 128
    1f06:	5f e3       	ldi	r21, 0x3F	; 63
    1f08:	6d 81       	ldd	r22, Y+5	; 0x05
    1f0a:	7e 81       	ldd	r23, Y+6	; 0x06
    1f0c:	8f 81       	ldd	r24, Y+7	; 0x07
    1f0e:	98 85       	ldd	r25, Y+8	; 0x08
    1f10:	0e 94 e1 37 	call	0x6fc2	; 0x6fc2 <__cmpsf2>
    1f14:	88 23       	and	r24, r24
    1f16:	2c f4       	brge	.+10     	; 0x1f22 <nm_bsp_sleep+0x6a>
		__ticks = 1;
    1f18:	81 e0       	ldi	r24, 0x01	; 1
    1f1a:	90 e0       	ldi	r25, 0x00	; 0
    1f1c:	89 87       	std	Y+9, r24	; 0x09
    1f1e:	9a 87       	std	Y+10, r25	; 0x0a
    1f20:	3f c0       	rjmp	.+126    	; 0x1fa0 <nm_bsp_sleep+0xe8>
	else if (__tmp > 65535)
    1f22:	20 e0       	ldi	r18, 0x00	; 0
    1f24:	3f ef       	ldi	r19, 0xFF	; 255
    1f26:	4f e7       	ldi	r20, 0x7F	; 127
    1f28:	57 e4       	ldi	r21, 0x47	; 71
    1f2a:	6d 81       	ldd	r22, Y+5	; 0x05
    1f2c:	7e 81       	ldd	r23, Y+6	; 0x06
    1f2e:	8f 81       	ldd	r24, Y+7	; 0x07
    1f30:	98 85       	ldd	r25, Y+8	; 0x08
    1f32:	0e 94 62 38 	call	0x70c4	; 0x70c4 <__gesf2>
    1f36:	18 16       	cp	r1, r24
    1f38:	4c f5       	brge	.+82     	; 0x1f8c <nm_bsp_sleep+0xd4>
	{
		//	__ticks = requested delay in 1/10 ms
		__ticks = (uint16_t) (__ms * 10.0);
    1f3a:	20 e0       	ldi	r18, 0x00	; 0
    1f3c:	30 e0       	ldi	r19, 0x00	; 0
    1f3e:	40 e2       	ldi	r20, 0x20	; 32
    1f40:	51 e4       	ldi	r21, 0x41	; 65
    1f42:	69 81       	ldd	r22, Y+1	; 0x01
    1f44:	7a 81       	ldd	r23, Y+2	; 0x02
    1f46:	8b 81       	ldd	r24, Y+3	; 0x03
    1f48:	9c 81       	ldd	r25, Y+4	; 0x04
    1f4a:	0e 94 67 38 	call	0x70ce	; 0x70ce <__mulsf3>
    1f4e:	dc 01       	movw	r26, r24
    1f50:	cb 01       	movw	r24, r22
    1f52:	bc 01       	movw	r22, r24
    1f54:	cd 01       	movw	r24, r26
    1f56:	0e 94 e6 37 	call	0x6fcc	; 0x6fcc <__fixunssfsi>
    1f5a:	dc 01       	movw	r26, r24
    1f5c:	cb 01       	movw	r24, r22
    1f5e:	89 87       	std	Y+9, r24	; 0x09
    1f60:	9a 87       	std	Y+10, r25	; 0x0a
    1f62:	0f c0       	rjmp	.+30     	; 0x1f82 <nm_bsp_sleep+0xca>
    1f64:	8a ef       	ldi	r24, 0xFA	; 250
    1f66:	90 e0       	ldi	r25, 0x00	; 0
    1f68:	8b 87       	std	Y+11, r24	; 0x0b
    1f6a:	9c 87       	std	Y+12, r25	; 0x0c
    milliseconds can be achieved.
 */
void
_delay_loop_2(uint16_t __count)
{
	__asm__ volatile (
    1f6c:	8b 85       	ldd	r24, Y+11	; 0x0b
    1f6e:	9c 85       	ldd	r25, Y+12	; 0x0c
    1f70:	01 97       	sbiw	r24, 0x01	; 1
    1f72:	f1 f7       	brne	.-4      	; 0x1f70 <nm_bsp_sleep+0xb8>
    1f74:	8b 87       	std	Y+11, r24	; 0x0b
    1f76:	9c 87       	std	Y+12, r25	; 0x0c
		while(__ticks)
		{
			// wait 1/10 ms
			_delay_loop_2(((F_CPU) / 4e3) / 10);
			__ticks --;
    1f78:	89 85       	ldd	r24, Y+9	; 0x09
    1f7a:	9a 85       	ldd	r25, Y+10	; 0x0a
    1f7c:	01 97       	sbiw	r24, 0x01	; 1
    1f7e:	89 87       	std	Y+9, r24	; 0x09
    1f80:	9a 87       	std	Y+10, r25	; 0x0a
		__ticks = 1;
	else if (__tmp > 65535)
	{
		//	__ticks = requested delay in 1/10 ms
		__ticks = (uint16_t) (__ms * 10.0);
		while(__ticks)
    1f82:	89 85       	ldd	r24, Y+9	; 0x09
    1f84:	9a 85       	ldd	r25, Y+10	; 0x0a
    1f86:	89 2b       	or	r24, r25
    1f88:	69 f7       	brne	.-38     	; 0x1f64 <nm_bsp_sleep+0xac>
    1f8a:	14 c0       	rjmp	.+40     	; 0x1fb4 <nm_bsp_sleep+0xfc>
			__ticks --;
		}
		return;
	}
	else
		__ticks = (uint16_t)__tmp;
    1f8c:	6d 81       	ldd	r22, Y+5	; 0x05
    1f8e:	7e 81       	ldd	r23, Y+6	; 0x06
    1f90:	8f 81       	ldd	r24, Y+7	; 0x07
    1f92:	98 85       	ldd	r25, Y+8	; 0x08
    1f94:	0e 94 e6 37 	call	0x6fcc	; 0x6fcc <__fixunssfsi>
    1f98:	dc 01       	movw	r26, r24
    1f9a:	cb 01       	movw	r24, r22
    1f9c:	89 87       	std	Y+9, r24	; 0x09
    1f9e:	9a 87       	std	Y+10, r25	; 0x0a
    1fa0:	89 85       	ldd	r24, Y+9	; 0x09
    1fa2:	9a 85       	ldd	r25, Y+10	; 0x0a
    1fa4:	8d 87       	std	Y+13, r24	; 0x0d
    1fa6:	9e 87       	std	Y+14, r25	; 0x0e
    1fa8:	8d 85       	ldd	r24, Y+13	; 0x0d
    1faa:	9e 85       	ldd	r25, Y+14	; 0x0e
    1fac:	01 97       	sbiw	r24, 0x01	; 1
    1fae:	f1 f7       	brne	.-4      	; 0x1fac <nm_bsp_sleep+0xf4>
    1fb0:	8d 87       	std	Y+13, r24	; 0x0d
    1fb2:	9e 87       	std	Y+14, r25	; 0x0e
    1fb4:	8f 85       	ldd	r24, Y+15	; 0x0f
    1fb6:	98 89       	ldd	r25, Y+16	; 0x10
    1fb8:	a9 89       	ldd	r26, Y+17	; 0x11
    1fba:	ba 89       	ldd	r27, Y+18	; 0x12
    1fbc:	9c 01       	movw	r18, r24
    1fbe:	ad 01       	movw	r20, r26
    1fc0:	21 50       	subi	r18, 0x01	; 1
    1fc2:	31 09       	sbc	r19, r1
    1fc4:	41 09       	sbc	r20, r1
    1fc6:	51 09       	sbc	r21, r1
    1fc8:	2f 87       	std	Y+15, r18	; 0x0f
    1fca:	38 8b       	std	Y+16, r19	; 0x10
    1fcc:	49 8b       	std	Y+17, r20	; 0x11
    1fce:	5a 8b       	std	Y+18, r21	; 0x12
    1fd0:	89 2b       	or	r24, r25
    1fd2:	8a 2b       	or	r24, r26
    1fd4:	8b 2b       	or	r24, r27
    1fd6:	09 f0       	breq	.+2      	; 0x1fda <nm_bsp_sleep+0x122>
    1fd8:	7b cf       	rjmp	.-266    	; 0x1ed0 <nm_bsp_sleep+0x18>
    1fda:	00 00       	nop
    1fdc:	62 96       	adiw	r28, 0x12	; 18
    1fde:	cd bf       	out	0x3d, r28	; 61
    1fe0:	de bf       	out	0x3e, r29	; 62
    1fe2:	df 91       	pop	r29
    1fe4:	cf 91       	pop	r28
    1fe6:	08 95       	ret

00001fe8 <nm_bsp_register_isr>:
    1fe8:	cf 93       	push	r28
    1fea:	df 93       	push	r29
    1fec:	00 d0       	rcall	.+0      	; 0x1fee <nm_bsp_register_isr+0x6>
    1fee:	cd b7       	in	r28, 0x3d	; 61
    1ff0:	de b7       	in	r29, 0x3e	; 62
    1ff2:	89 83       	std	Y+1, r24	; 0x01
    1ff4:	9a 83       	std	Y+2, r25	; 0x02
    1ff6:	89 81       	ldd	r24, Y+1	; 0x01
    1ff8:	9a 81       	ldd	r25, Y+2	; 0x02
    1ffa:	80 93 07 2e 	sts	0x2E07, r24	; 0x802e07 <gpfIsr>
    1ffe:	90 93 08 2e 	sts	0x2E08, r25	; 0x802e08 <gpfIsr+0x1>
    2002:	80 e0       	ldi	r24, 0x00	; 0
    2004:	0e 94 91 0e 	call	0x1d22	; 0x1d22 <CONF_WIFI_M2M_INT_PIN_set_dir>
    2008:	81 e0       	ldi	r24, 0x01	; 1
    200a:	0e 94 82 0e 	call	0x1d04	; 0x1d04 <CONF_WIFI_M2M_INT_PIN_set_pull_mode>
    200e:	83 e0       	ldi	r24, 0x03	; 3
    2010:	0e 94 a0 0e 	call	0x1d40	; 0x1d40 <CONF_WIFI_M2M_INT_PIN_set_isc>
    2014:	83 e0       	ldi	r24, 0x03	; 3
    2016:	0e 94 a0 0e 	call	0x1d40	; 0x1d40 <CONF_WIFI_M2M_INT_PIN_set_isc>
    201a:	78 94       	sei
    201c:	00 00       	nop
    201e:	0f 90       	pop	r0
    2020:	0f 90       	pop	r0
    2022:	df 91       	pop	r29
    2024:	cf 91       	pop	r28
    2026:	08 95       	ret

00002028 <nm_bsp_interrupt_ctrl>:
    2028:	cf 93       	push	r28
    202a:	df 93       	push	r29
    202c:	1f 92       	push	r1
    202e:	cd b7       	in	r28, 0x3d	; 61
    2030:	de b7       	in	r29, 0x3e	; 62
    2032:	89 83       	std	Y+1, r24	; 0x01
    2034:	89 81       	ldd	r24, Y+1	; 0x01
    2036:	88 23       	and	r24, r24
    2038:	21 f0       	breq	.+8      	; 0x2042 <nm_bsp_interrupt_ctrl+0x1a>
    203a:	83 e0       	ldi	r24, 0x03	; 3
    203c:	0e 94 a0 0e 	call	0x1d40	; 0x1d40 <CONF_WIFI_M2M_INT_PIN_set_isc>
    2040:	03 c0       	rjmp	.+6      	; 0x2048 <nm_bsp_interrupt_ctrl+0x20>
    2042:	80 e0       	ldi	r24, 0x00	; 0
    2044:	0e 94 a0 0e 	call	0x1d40	; 0x1d40 <CONF_WIFI_M2M_INT_PIN_set_isc>
    2048:	00 00       	nop
    204a:	0f 90       	pop	r0
    204c:	df 91       	pop	r29
    204e:	cf 91       	pop	r28
    2050:	08 95       	ret

00002052 <PORTA_set_pin_dir>:
    2052:	cf 93       	push	r28
    2054:	df 93       	push	r29
    2056:	00 d0       	rcall	.+0      	; 0x2058 <PORTA_set_pin_dir+0x6>
    2058:	cd b7       	in	r28, 0x3d	; 61
    205a:	de b7       	in	r29, 0x3e	; 62
    205c:	89 83       	std	Y+1, r24	; 0x01
    205e:	6a 83       	std	Y+2, r22	; 0x02
    2060:	8a 81       	ldd	r24, Y+2	; 0x02
    2062:	88 2f       	mov	r24, r24
    2064:	90 e0       	ldi	r25, 0x00	; 0
    2066:	81 30       	cpi	r24, 0x01	; 1
    2068:	91 05       	cpc	r25, r1
    206a:	e1 f0       	breq	.+56     	; 0x20a4 <PORTA_set_pin_dir+0x52>
    206c:	82 30       	cpi	r24, 0x02	; 2
    206e:	91 05       	cpc	r25, r1
    2070:	71 f1       	breq	.+92     	; 0x20ce <PORTA_set_pin_dir+0x7c>
    2072:	89 2b       	or	r24, r25
    2074:	09 f0       	breq	.+2      	; 0x2078 <PORTA_set_pin_dir+0x26>
    2076:	3b c0       	rjmp	.+118    	; 0x20ee <PORTA_set_pin_dir+0x9c>
    2078:	20 e0       	ldi	r18, 0x00	; 0
    207a:	30 e0       	ldi	r19, 0x00	; 0
    207c:	80 e0       	ldi	r24, 0x00	; 0
    207e:	90 e0       	ldi	r25, 0x00	; 0
    2080:	fc 01       	movw	r30, r24
    2082:	80 81       	ld	r24, Z
    2084:	68 2f       	mov	r22, r24
    2086:	89 81       	ldd	r24, Y+1	; 0x01
    2088:	48 2f       	mov	r20, r24
    208a:	50 e0       	ldi	r21, 0x00	; 0
    208c:	81 e0       	ldi	r24, 0x01	; 1
    208e:	90 e0       	ldi	r25, 0x00	; 0
    2090:	02 c0       	rjmp	.+4      	; 0x2096 <PORTA_set_pin_dir+0x44>
    2092:	88 0f       	add	r24, r24
    2094:	99 1f       	adc	r25, r25
    2096:	4a 95       	dec	r20
    2098:	e2 f7       	brpl	.-8      	; 0x2092 <PORTA_set_pin_dir+0x40>
    209a:	80 95       	com	r24
    209c:	86 23       	and	r24, r22
    209e:	f9 01       	movw	r30, r18
    20a0:	80 83       	st	Z, r24
    20a2:	25 c0       	rjmp	.+74     	; 0x20ee <PORTA_set_pin_dir+0x9c>
    20a4:	20 e0       	ldi	r18, 0x00	; 0
    20a6:	30 e0       	ldi	r19, 0x00	; 0
    20a8:	80 e0       	ldi	r24, 0x00	; 0
    20aa:	90 e0       	ldi	r25, 0x00	; 0
    20ac:	fc 01       	movw	r30, r24
    20ae:	80 81       	ld	r24, Z
    20b0:	68 2f       	mov	r22, r24
    20b2:	89 81       	ldd	r24, Y+1	; 0x01
    20b4:	48 2f       	mov	r20, r24
    20b6:	50 e0       	ldi	r21, 0x00	; 0
    20b8:	81 e0       	ldi	r24, 0x01	; 1
    20ba:	90 e0       	ldi	r25, 0x00	; 0
    20bc:	02 c0       	rjmp	.+4      	; 0x20c2 <PORTA_set_pin_dir+0x70>
    20be:	88 0f       	add	r24, r24
    20c0:	99 1f       	adc	r25, r25
    20c2:	4a 95       	dec	r20
    20c4:	e2 f7       	brpl	.-8      	; 0x20be <PORTA_set_pin_dir+0x6c>
    20c6:	86 2b       	or	r24, r22
    20c8:	f9 01       	movw	r30, r18
    20ca:	80 83       	st	Z, r24
    20cc:	10 c0       	rjmp	.+32     	; 0x20ee <PORTA_set_pin_dir+0x9c>
    20ce:	89 81       	ldd	r24, Y+1	; 0x01
    20d0:	88 2f       	mov	r24, r24
    20d2:	90 e0       	ldi	r25, 0x00	; 0
    20d4:	80 5f       	subi	r24, 0xF0	; 240
    20d6:	9b 4f       	sbci	r25, 0xFB	; 251
    20d8:	29 81       	ldd	r18, Y+1	; 0x01
    20da:	22 2f       	mov	r18, r18
    20dc:	30 e0       	ldi	r19, 0x00	; 0
    20de:	20 5f       	subi	r18, 0xF0	; 240
    20e0:	3b 4f       	sbci	r19, 0xFB	; 251
    20e2:	f9 01       	movw	r30, r18
    20e4:	20 81       	ld	r18, Z
    20e6:	28 60       	ori	r18, 0x08	; 8
    20e8:	fc 01       	movw	r30, r24
    20ea:	20 83       	st	Z, r18
    20ec:	00 00       	nop
    20ee:	00 00       	nop
    20f0:	0f 90       	pop	r0
    20f2:	0f 90       	pop	r0
    20f4:	df 91       	pop	r29
    20f6:	cf 91       	pop	r28
    20f8:	08 95       	ret

000020fa <PORTA_set_pin_level>:
    20fa:	cf 93       	push	r28
    20fc:	df 93       	push	r29
    20fe:	00 d0       	rcall	.+0      	; 0x2100 <PORTA_set_pin_level+0x6>
    2100:	cd b7       	in	r28, 0x3d	; 61
    2102:	de b7       	in	r29, 0x3e	; 62
    2104:	89 83       	std	Y+1, r24	; 0x01
    2106:	6a 83       	std	Y+2, r22	; 0x02
    2108:	8a 81       	ldd	r24, Y+2	; 0x02
    210a:	88 23       	and	r24, r24
    210c:	a9 f0       	breq	.+42     	; 0x2138 <PORTA_set_pin_level+0x3e>
    210e:	20 e0       	ldi	r18, 0x00	; 0
    2110:	30 e0       	ldi	r19, 0x00	; 0
    2112:	80 e0       	ldi	r24, 0x00	; 0
    2114:	90 e0       	ldi	r25, 0x00	; 0
    2116:	fc 01       	movw	r30, r24
    2118:	81 81       	ldd	r24, Z+1	; 0x01
    211a:	68 2f       	mov	r22, r24
    211c:	89 81       	ldd	r24, Y+1	; 0x01
    211e:	48 2f       	mov	r20, r24
    2120:	50 e0       	ldi	r21, 0x00	; 0
    2122:	81 e0       	ldi	r24, 0x01	; 1
    2124:	90 e0       	ldi	r25, 0x00	; 0
    2126:	02 c0       	rjmp	.+4      	; 0x212c <PORTA_set_pin_level+0x32>
    2128:	88 0f       	add	r24, r24
    212a:	99 1f       	adc	r25, r25
    212c:	4a 95       	dec	r20
    212e:	e2 f7       	brpl	.-8      	; 0x2128 <PORTA_set_pin_level+0x2e>
    2130:	86 2b       	or	r24, r22
    2132:	f9 01       	movw	r30, r18
    2134:	81 83       	std	Z+1, r24	; 0x01
    2136:	15 c0       	rjmp	.+42     	; 0x2162 <PORTA_set_pin_level+0x68>
    2138:	20 e0       	ldi	r18, 0x00	; 0
    213a:	30 e0       	ldi	r19, 0x00	; 0
    213c:	80 e0       	ldi	r24, 0x00	; 0
    213e:	90 e0       	ldi	r25, 0x00	; 0
    2140:	fc 01       	movw	r30, r24
    2142:	81 81       	ldd	r24, Z+1	; 0x01
    2144:	68 2f       	mov	r22, r24
    2146:	89 81       	ldd	r24, Y+1	; 0x01
    2148:	48 2f       	mov	r20, r24
    214a:	50 e0       	ldi	r21, 0x00	; 0
    214c:	81 e0       	ldi	r24, 0x01	; 1
    214e:	90 e0       	ldi	r25, 0x00	; 0
    2150:	02 c0       	rjmp	.+4      	; 0x2156 <PORTA_set_pin_level+0x5c>
    2152:	88 0f       	add	r24, r24
    2154:	99 1f       	adc	r25, r25
    2156:	4a 95       	dec	r20
    2158:	e2 f7       	brpl	.-8      	; 0x2152 <PORTA_set_pin_level+0x58>
    215a:	80 95       	com	r24
    215c:	86 23       	and	r24, r22
    215e:	f9 01       	movw	r30, r18
    2160:	81 83       	std	Z+1, r24	; 0x01
    2162:	00 00       	nop
    2164:	0f 90       	pop	r0
    2166:	0f 90       	pop	r0
    2168:	df 91       	pop	r29
    216a:	cf 91       	pop	r28
    216c:	08 95       	ret

0000216e <CONF_WIFI_M2M_SPI_MOSI_PIN_set_dir>:
    216e:	cf 93       	push	r28
    2170:	df 93       	push	r29
    2172:	1f 92       	push	r1
    2174:	cd b7       	in	r28, 0x3d	; 61
    2176:	de b7       	in	r29, 0x3e	; 62
    2178:	89 83       	std	Y+1, r24	; 0x01
    217a:	69 81       	ldd	r22, Y+1	; 0x01
    217c:	84 e0       	ldi	r24, 0x04	; 4
    217e:	0e 94 29 10 	call	0x2052	; 0x2052 <PORTA_set_pin_dir>
    2182:	00 00       	nop
    2184:	0f 90       	pop	r0
    2186:	df 91       	pop	r29
    2188:	cf 91       	pop	r28
    218a:	08 95       	ret

0000218c <CONF_WIFI_M2M_SPI_MOSI_PIN_set_level>:
    218c:	cf 93       	push	r28
    218e:	df 93       	push	r29
    2190:	1f 92       	push	r1
    2192:	cd b7       	in	r28, 0x3d	; 61
    2194:	de b7       	in	r29, 0x3e	; 62
    2196:	89 83       	std	Y+1, r24	; 0x01
    2198:	69 81       	ldd	r22, Y+1	; 0x01
    219a:	84 e0       	ldi	r24, 0x04	; 4
    219c:	0e 94 7d 10 	call	0x20fa	; 0x20fa <PORTA_set_pin_level>
    21a0:	00 00       	nop
    21a2:	0f 90       	pop	r0
    21a4:	df 91       	pop	r29
    21a6:	cf 91       	pop	r28
    21a8:	08 95       	ret

000021aa <CONF_WIFI_M2M_SPI_MISO_PIN_set_dir>:
    21aa:	cf 93       	push	r28
    21ac:	df 93       	push	r29
    21ae:	1f 92       	push	r1
    21b0:	cd b7       	in	r28, 0x3d	; 61
    21b2:	de b7       	in	r29, 0x3e	; 62
    21b4:	89 83       	std	Y+1, r24	; 0x01
    21b6:	69 81       	ldd	r22, Y+1	; 0x01
    21b8:	85 e0       	ldi	r24, 0x05	; 5
    21ba:	0e 94 29 10 	call	0x2052	; 0x2052 <PORTA_set_pin_dir>
    21be:	00 00       	nop
    21c0:	0f 90       	pop	r0
    21c2:	df 91       	pop	r29
    21c4:	cf 91       	pop	r28
    21c6:	08 95       	ret

000021c8 <CONF_WIFI_M2M_SPI_SCK_PIN_set_dir>:
    21c8:	cf 93       	push	r28
    21ca:	df 93       	push	r29
    21cc:	1f 92       	push	r1
    21ce:	cd b7       	in	r28, 0x3d	; 61
    21d0:	de b7       	in	r29, 0x3e	; 62
    21d2:	89 83       	std	Y+1, r24	; 0x01
    21d4:	69 81       	ldd	r22, Y+1	; 0x01
    21d6:	86 e0       	ldi	r24, 0x06	; 6
    21d8:	0e 94 29 10 	call	0x2052	; 0x2052 <PORTA_set_pin_dir>
    21dc:	00 00       	nop
    21de:	0f 90       	pop	r0
    21e0:	df 91       	pop	r29
    21e2:	cf 91       	pop	r28
    21e4:	08 95       	ret

000021e6 <CONF_WIFI_M2M_SPI_SCK_PIN_set_level>:
    21e6:	cf 93       	push	r28
    21e8:	df 93       	push	r29
    21ea:	1f 92       	push	r1
    21ec:	cd b7       	in	r28, 0x3d	; 61
    21ee:	de b7       	in	r29, 0x3e	; 62
    21f0:	89 83       	std	Y+1, r24	; 0x01
    21f2:	69 81       	ldd	r22, Y+1	; 0x01
    21f4:	86 e0       	ldi	r24, 0x06	; 6
    21f6:	0e 94 7d 10 	call	0x20fa	; 0x20fa <PORTA_set_pin_level>
    21fa:	00 00       	nop
    21fc:	0f 90       	pop	r0
    21fe:	df 91       	pop	r29
    2200:	cf 91       	pop	r28
    2202:	08 95       	ret

00002204 <CONF_WIFI_M2M_SPI_CS_PIN_set_dir>:
    2204:	cf 93       	push	r28
    2206:	df 93       	push	r29
    2208:	1f 92       	push	r1
    220a:	cd b7       	in	r28, 0x3d	; 61
    220c:	de b7       	in	r29, 0x3e	; 62
    220e:	89 83       	std	Y+1, r24	; 0x01
    2210:	69 81       	ldd	r22, Y+1	; 0x01
    2212:	87 e0       	ldi	r24, 0x07	; 7
    2214:	0e 94 29 10 	call	0x2052	; 0x2052 <PORTA_set_pin_dir>
    2218:	00 00       	nop
    221a:	0f 90       	pop	r0
    221c:	df 91       	pop	r29
    221e:	cf 91       	pop	r28
    2220:	08 95       	ret

00002222 <CONF_WIFI_M2M_SPI_CS_PIN_set_level>:
    2222:	cf 93       	push	r28
    2224:	df 93       	push	r29
    2226:	1f 92       	push	r1
    2228:	cd b7       	in	r28, 0x3d	; 61
    222a:	de b7       	in	r29, 0x3e	; 62
    222c:	89 83       	std	Y+1, r24	; 0x01
    222e:	69 81       	ldd	r22, Y+1	; 0x01
    2230:	87 e0       	ldi	r24, 0x07	; 7
    2232:	0e 94 7d 10 	call	0x20fa	; 0x20fa <PORTA_set_pin_level>
    2236:	00 00       	nop
    2238:	0f 90       	pop	r0
    223a:	df 91       	pop	r29
    223c:	cf 91       	pop	r28
    223e:	08 95       	ret

00002240 <spi_rw>:
    2240:	cf 93       	push	r28
    2242:	df 93       	push	r29
    2244:	cd b7       	in	r28, 0x3d	; 61
    2246:	de b7       	in	r29, 0x3e	; 62
    2248:	2d 97       	sbiw	r28, 0x0d	; 13
    224a:	cd bf       	out	0x3d, r28	; 61
    224c:	de bf       	out	0x3e, r29	; 62
    224e:	88 87       	std	Y+8, r24	; 0x08
    2250:	99 87       	std	Y+9, r25	; 0x09
    2252:	6a 87       	std	Y+10, r22	; 0x0a
    2254:	7b 87       	std	Y+11, r23	; 0x0b
    2256:	4c 87       	std	Y+12, r20	; 0x0c
    2258:	5d 87       	std	Y+13, r21	; 0x0d
    225a:	1f 82       	std	Y+7, r1	; 0x07
    225c:	19 82       	std	Y+1, r1	; 0x01
    225e:	1a 82       	std	Y+2, r1	; 0x02
    2260:	1b 82       	std	Y+3, r1	; 0x03
    2262:	1c 82       	std	Y+4, r1	; 0x04
    2264:	1d 82       	std	Y+5, r1	; 0x05
    2266:	1e 82       	std	Y+6, r1	; 0x06
    2268:	88 85       	ldd	r24, Y+8	; 0x08
    226a:	99 85       	ldd	r25, Y+9	; 0x09
    226c:	89 2b       	or	r24, r25
    226e:	39 f4       	brne	.+14     	; 0x227e <spi_rw+0x3e>
    2270:	ce 01       	movw	r24, r28
    2272:	07 96       	adiw	r24, 0x07	; 7
    2274:	88 87       	std	Y+8, r24	; 0x08
    2276:	99 87       	std	Y+9, r25	; 0x09
    2278:	81 e0       	ldi	r24, 0x01	; 1
    227a:	89 83       	std	Y+1, r24	; 0x01
    227c:	0d c0       	rjmp	.+26     	; 0x2298 <spi_rw+0x58>
    227e:	8a 85       	ldd	r24, Y+10	; 0x0a
    2280:	9b 85       	ldd	r25, Y+11	; 0x0b
    2282:	89 2b       	or	r24, r25
    2284:	39 f4       	brne	.+14     	; 0x2294 <spi_rw+0x54>
    2286:	ce 01       	movw	r24, r28
    2288:	07 96       	adiw	r24, 0x07	; 7
    228a:	8a 87       	std	Y+10, r24	; 0x0a
    228c:	9b 87       	std	Y+11, r25	; 0x0b
    228e:	81 e0       	ldi	r24, 0x01	; 1
    2290:	8a 83       	std	Y+2, r24	; 0x02
    2292:	02 c0       	rjmp	.+4      	; 0x2298 <spi_rw+0x58>
    2294:	8a ef       	ldi	r24, 0xFA	; 250
    2296:	34 c0       	rjmp	.+104    	; 0x2300 <spi_rw+0xc0>
    2298:	80 e0       	ldi	r24, 0x00	; 0
    229a:	0e 94 11 11 	call	0x2222	; 0x2222 <CONF_WIFI_M2M_SPI_CS_PIN_set_level>
    229e:	28 c0       	rjmp	.+80     	; 0x22f0 <spi_rw+0xb0>
    22a0:	88 85       	ldd	r24, Y+8	; 0x08
    22a2:	99 85       	ldd	r25, Y+9	; 0x09
    22a4:	fc 01       	movw	r30, r24
    22a6:	80 81       	ld	r24, Z
    22a8:	88 2f       	mov	r24, r24
    22aa:	90 e0       	ldi	r25, 0x00	; 0
    22ac:	8b 83       	std	Y+3, r24	; 0x03
    22ae:	9c 83       	std	Y+4, r25	; 0x04
    22b0:	8b 81       	ldd	r24, Y+3	; 0x03
    22b2:	9c 81       	ldd	r25, Y+4	; 0x04
    22b4:	0e 94 b7 0a 	call	0x156e	; 0x156e <SPI_0_exchange_byte>
    22b8:	8d 83       	std	Y+5, r24	; 0x05
    22ba:	9e 83       	std	Y+6, r25	; 0x06
    22bc:	2d 81       	ldd	r18, Y+5	; 0x05
    22be:	8a 85       	ldd	r24, Y+10	; 0x0a
    22c0:	9b 85       	ldd	r25, Y+11	; 0x0b
    22c2:	fc 01       	movw	r30, r24
    22c4:	20 83       	st	Z, r18
    22c6:	8c 85       	ldd	r24, Y+12	; 0x0c
    22c8:	9d 85       	ldd	r25, Y+13	; 0x0d
    22ca:	01 97       	sbiw	r24, 0x01	; 1
    22cc:	8c 87       	std	Y+12, r24	; 0x0c
    22ce:	9d 87       	std	Y+13, r25	; 0x0d
    22d0:	8a 81       	ldd	r24, Y+2	; 0x02
    22d2:	88 23       	and	r24, r24
    22d4:	29 f4       	brne	.+10     	; 0x22e0 <spi_rw+0xa0>
    22d6:	8a 85       	ldd	r24, Y+10	; 0x0a
    22d8:	9b 85       	ldd	r25, Y+11	; 0x0b
    22da:	01 96       	adiw	r24, 0x01	; 1
    22dc:	8a 87       	std	Y+10, r24	; 0x0a
    22de:	9b 87       	std	Y+11, r25	; 0x0b
    22e0:	89 81       	ldd	r24, Y+1	; 0x01
    22e2:	88 23       	and	r24, r24
    22e4:	29 f4       	brne	.+10     	; 0x22f0 <spi_rw+0xb0>
    22e6:	88 85       	ldd	r24, Y+8	; 0x08
    22e8:	99 85       	ldd	r25, Y+9	; 0x09
    22ea:	01 96       	adiw	r24, 0x01	; 1
    22ec:	88 87       	std	Y+8, r24	; 0x08
    22ee:	99 87       	std	Y+9, r25	; 0x09
    22f0:	8c 85       	ldd	r24, Y+12	; 0x0c
    22f2:	9d 85       	ldd	r25, Y+13	; 0x0d
    22f4:	89 2b       	or	r24, r25
    22f6:	a1 f6       	brne	.-88     	; 0x22a0 <spi_rw+0x60>
    22f8:	81 e0       	ldi	r24, 0x01	; 1
    22fa:	0e 94 11 11 	call	0x2222	; 0x2222 <CONF_WIFI_M2M_SPI_CS_PIN_set_level>
    22fe:	80 e0       	ldi	r24, 0x00	; 0
    2300:	2d 96       	adiw	r28, 0x0d	; 13
    2302:	cd bf       	out	0x3d, r28	; 61
    2304:	de bf       	out	0x3e, r29	; 62
    2306:	df 91       	pop	r29
    2308:	cf 91       	pop	r28
    230a:	08 95       	ret

0000230c <nm_bus_init>:
    230c:	cf 93       	push	r28
    230e:	df 93       	push	r29
    2310:	00 d0       	rcall	.+0      	; 0x2312 <nm_bus_init+0x6>
    2312:	1f 92       	push	r1
    2314:	cd b7       	in	r28, 0x3d	; 61
    2316:	de b7       	in	r29, 0x3e	; 62
    2318:	8a 83       	std	Y+2, r24	; 0x02
    231a:	9b 83       	std	Y+3, r25	; 0x03
    231c:	19 82       	std	Y+1, r1	; 0x01
    231e:	81 e0       	ldi	r24, 0x01	; 1
    2320:	0e 94 02 11 	call	0x2204	; 0x2204 <CONF_WIFI_M2M_SPI_CS_PIN_set_dir>
    2324:	81 e0       	ldi	r24, 0x01	; 1
    2326:	0e 94 11 11 	call	0x2222	; 0x2222 <CONF_WIFI_M2M_SPI_CS_PIN_set_level>
    232a:	81 e0       	ldi	r24, 0x01	; 1
    232c:	0e 94 b7 10 	call	0x216e	; 0x216e <CONF_WIFI_M2M_SPI_MOSI_PIN_set_dir>
    2330:	81 e0       	ldi	r24, 0x01	; 1
    2332:	0e 94 c6 10 	call	0x218c	; 0x218c <CONF_WIFI_M2M_SPI_MOSI_PIN_set_level>
    2336:	80 e0       	ldi	r24, 0x00	; 0
    2338:	0e 94 d5 10 	call	0x21aa	; 0x21aa <CONF_WIFI_M2M_SPI_MISO_PIN_set_dir>
    233c:	81 e0       	ldi	r24, 0x01	; 1
    233e:	0e 94 e4 10 	call	0x21c8	; 0x21c8 <CONF_WIFI_M2M_SPI_SCK_PIN_set_dir>
    2342:	80 e0       	ldi	r24, 0x00	; 0
    2344:	0e 94 f3 10 	call	0x21e6	; 0x21e6 <CONF_WIFI_M2M_SPI_SCK_PIN_set_level>
    2348:	0e 94 97 0a 	call	0x152e	; 0x152e <SPI_0_init>
    234c:	0e 94 a6 0a 	call	0x154c	; 0x154c <SPI_0_enable>
    2350:	0e 94 3c 0f 	call	0x1e78	; 0x1e78 <nm_bsp_reset>
    2354:	61 e0       	ldi	r22, 0x01	; 1
    2356:	70 e0       	ldi	r23, 0x00	; 0
    2358:	80 e0       	ldi	r24, 0x00	; 0
    235a:	90 e0       	ldi	r25, 0x00	; 0
    235c:	0e 94 5c 0f 	call	0x1eb8	; 0x1eb8 <nm_bsp_sleep>
    2360:	89 81       	ldd	r24, Y+1	; 0x01
    2362:	23 96       	adiw	r28, 0x03	; 3
    2364:	cd bf       	out	0x3d, r28	; 61
    2366:	de bf       	out	0x3e, r29	; 62
    2368:	df 91       	pop	r29
    236a:	cf 91       	pop	r28
    236c:	08 95       	ret

0000236e <nm_bus_ioctl>:
    236e:	cf 93       	push	r28
    2370:	df 93       	push	r29
    2372:	cd b7       	in	r28, 0x3d	; 61
    2374:	de b7       	in	r29, 0x3e	; 62
    2376:	26 97       	sbiw	r28, 0x06	; 6
    2378:	cd bf       	out	0x3d, r28	; 61
    237a:	de bf       	out	0x3e, r29	; 62
    237c:	8c 83       	std	Y+4, r24	; 0x04
    237e:	6d 83       	std	Y+5, r22	; 0x05
    2380:	7e 83       	std	Y+6, r23	; 0x06
    2382:	19 82       	std	Y+1, r1	; 0x01
    2384:	8c 81       	ldd	r24, Y+4	; 0x04
    2386:	88 2f       	mov	r24, r24
    2388:	90 e0       	ldi	r25, 0x00	; 0
    238a:	03 97       	sbiw	r24, 0x03	; 3
    238c:	c1 f4       	brne	.+48     	; 0x23be <nm_bus_ioctl+0x50>
    238e:	8d 81       	ldd	r24, Y+5	; 0x05
    2390:	9e 81       	ldd	r25, Y+6	; 0x06
    2392:	8a 83       	std	Y+2, r24	; 0x02
    2394:	9b 83       	std	Y+3, r25	; 0x03
    2396:	8a 81       	ldd	r24, Y+2	; 0x02
    2398:	9b 81       	ldd	r25, Y+3	; 0x03
    239a:	fc 01       	movw	r30, r24
    239c:	44 81       	ldd	r20, Z+4	; 0x04
    239e:	55 81       	ldd	r21, Z+5	; 0x05
    23a0:	8a 81       	ldd	r24, Y+2	; 0x02
    23a2:	9b 81       	ldd	r25, Y+3	; 0x03
    23a4:	fc 01       	movw	r30, r24
    23a6:	22 81       	ldd	r18, Z+2	; 0x02
    23a8:	33 81       	ldd	r19, Z+3	; 0x03
    23aa:	8a 81       	ldd	r24, Y+2	; 0x02
    23ac:	9b 81       	ldd	r25, Y+3	; 0x03
    23ae:	fc 01       	movw	r30, r24
    23b0:	80 81       	ld	r24, Z
    23b2:	91 81       	ldd	r25, Z+1	; 0x01
    23b4:	b9 01       	movw	r22, r18
    23b6:	0e 94 20 11 	call	0x2240	; 0x2240 <spi_rw>
    23ba:	89 83       	std	Y+1, r24	; 0x01
    23bc:	03 c0       	rjmp	.+6      	; 0x23c4 <nm_bus_ioctl+0x56>
    23be:	8f ef       	ldi	r24, 0xFF	; 255
    23c0:	89 83       	std	Y+1, r24	; 0x01
    23c2:	00 00       	nop
    23c4:	89 81       	ldd	r24, Y+1	; 0x01
    23c6:	26 96       	adiw	r28, 0x06	; 6
    23c8:	cd bf       	out	0x3d, r28	; 61
    23ca:	de bf       	out	0x3e, r29	; 62
    23cc:	df 91       	pop	r29
    23ce:	cf 91       	pop	r28
    23d0:	08 95       	ret

000023d2 <nm_bus_deinit>:
    23d2:	cf 93       	push	r28
    23d4:	df 93       	push	r29
    23d6:	cd b7       	in	r28, 0x3d	; 61
    23d8:	de b7       	in	r29, 0x3e	; 62
    23da:	80 e0       	ldi	r24, 0x00	; 0
    23dc:	df 91       	pop	r29
    23de:	cf 91       	pop	r28
    23e0:	08 95       	ret

000023e2 <m2m_memcpy>:
    23e2:	cf 93       	push	r28
    23e4:	df 93       	push	r29
    23e6:	cd b7       	in	r28, 0x3d	; 61
    23e8:	de b7       	in	r29, 0x3e	; 62
    23ea:	28 97       	sbiw	r28, 0x08	; 8
    23ec:	cd bf       	out	0x3d, r28	; 61
    23ee:	de bf       	out	0x3e, r29	; 62
    23f0:	89 83       	std	Y+1, r24	; 0x01
    23f2:	9a 83       	std	Y+2, r25	; 0x02
    23f4:	6b 83       	std	Y+3, r22	; 0x03
    23f6:	7c 83       	std	Y+4, r23	; 0x04
    23f8:	2d 83       	std	Y+5, r18	; 0x05
    23fa:	3e 83       	std	Y+6, r19	; 0x06
    23fc:	4f 83       	std	Y+7, r20	; 0x07
    23fe:	58 87       	std	Y+8, r21	; 0x08
    2400:	8d 81       	ldd	r24, Y+5	; 0x05
    2402:	9e 81       	ldd	r25, Y+6	; 0x06
    2404:	af 81       	ldd	r26, Y+7	; 0x07
    2406:	b8 85       	ldd	r27, Y+8	; 0x08
    2408:	89 2b       	or	r24, r25
    240a:	8a 2b       	or	r24, r26
    240c:	8b 2b       	or	r24, r27
    240e:	31 f1       	breq	.+76     	; 0x245c <m2m_memcpy+0x7a>
    2410:	8b 81       	ldd	r24, Y+3	; 0x03
    2412:	9c 81       	ldd	r25, Y+4	; 0x04
    2414:	fc 01       	movw	r30, r24
    2416:	20 81       	ld	r18, Z
    2418:	89 81       	ldd	r24, Y+1	; 0x01
    241a:	9a 81       	ldd	r25, Y+2	; 0x02
    241c:	fc 01       	movw	r30, r24
    241e:	20 83       	st	Z, r18
    2420:	89 81       	ldd	r24, Y+1	; 0x01
    2422:	9a 81       	ldd	r25, Y+2	; 0x02
    2424:	01 96       	adiw	r24, 0x01	; 1
    2426:	89 83       	std	Y+1, r24	; 0x01
    2428:	9a 83       	std	Y+2, r25	; 0x02
    242a:	8b 81       	ldd	r24, Y+3	; 0x03
    242c:	9c 81       	ldd	r25, Y+4	; 0x04
    242e:	01 96       	adiw	r24, 0x01	; 1
    2430:	8b 83       	std	Y+3, r24	; 0x03
    2432:	9c 83       	std	Y+4, r25	; 0x04
    2434:	8d 81       	ldd	r24, Y+5	; 0x05
    2436:	9e 81       	ldd	r25, Y+6	; 0x06
    2438:	af 81       	ldd	r26, Y+7	; 0x07
    243a:	b8 85       	ldd	r27, Y+8	; 0x08
    243c:	01 97       	sbiw	r24, 0x01	; 1
    243e:	a1 09       	sbc	r26, r1
    2440:	b1 09       	sbc	r27, r1
    2442:	8d 83       	std	Y+5, r24	; 0x05
    2444:	9e 83       	std	Y+6, r25	; 0x06
    2446:	af 83       	std	Y+7, r26	; 0x07
    2448:	b8 87       	std	Y+8, r27	; 0x08
    244a:	8d 81       	ldd	r24, Y+5	; 0x05
    244c:	9e 81       	ldd	r25, Y+6	; 0x06
    244e:	af 81       	ldd	r26, Y+7	; 0x07
    2450:	b8 85       	ldd	r27, Y+8	; 0x08
    2452:	89 2b       	or	r24, r25
    2454:	8a 2b       	or	r24, r26
    2456:	8b 2b       	or	r24, r27
    2458:	d9 f6       	brne	.-74     	; 0x2410 <m2m_memcpy+0x2e>
    245a:	01 c0       	rjmp	.+2      	; 0x245e <m2m_memcpy+0x7c>
    245c:	00 00       	nop
    245e:	28 96       	adiw	r28, 0x08	; 8
    2460:	cd bf       	out	0x3d, r28	; 61
    2462:	de bf       	out	0x3e, r29	; 62
    2464:	df 91       	pop	r29
    2466:	cf 91       	pop	r28
    2468:	08 95       	ret

0000246a <m2m_memset>:
    246a:	cf 93       	push	r28
    246c:	df 93       	push	r29
    246e:	cd b7       	in	r28, 0x3d	; 61
    2470:	de b7       	in	r29, 0x3e	; 62
    2472:	27 97       	sbiw	r28, 0x07	; 7
    2474:	cd bf       	out	0x3d, r28	; 61
    2476:	de bf       	out	0x3e, r29	; 62
    2478:	89 83       	std	Y+1, r24	; 0x01
    247a:	9a 83       	std	Y+2, r25	; 0x02
    247c:	6b 83       	std	Y+3, r22	; 0x03
    247e:	2c 83       	std	Y+4, r18	; 0x04
    2480:	3d 83       	std	Y+5, r19	; 0x05
    2482:	4e 83       	std	Y+6, r20	; 0x06
    2484:	5f 83       	std	Y+7, r21	; 0x07
    2486:	8c 81       	ldd	r24, Y+4	; 0x04
    2488:	9d 81       	ldd	r25, Y+5	; 0x05
    248a:	ae 81       	ldd	r26, Y+6	; 0x06
    248c:	bf 81       	ldd	r27, Y+7	; 0x07
    248e:	89 2b       	or	r24, r25
    2490:	8a 2b       	or	r24, r26
    2492:	8b 2b       	or	r24, r27
    2494:	f1 f0       	breq	.+60     	; 0x24d2 <m2m_memset+0x68>
    2496:	89 81       	ldd	r24, Y+1	; 0x01
    2498:	9a 81       	ldd	r25, Y+2	; 0x02
    249a:	2b 81       	ldd	r18, Y+3	; 0x03
    249c:	fc 01       	movw	r30, r24
    249e:	20 83       	st	Z, r18
    24a0:	89 81       	ldd	r24, Y+1	; 0x01
    24a2:	9a 81       	ldd	r25, Y+2	; 0x02
    24a4:	01 96       	adiw	r24, 0x01	; 1
    24a6:	89 83       	std	Y+1, r24	; 0x01
    24a8:	9a 83       	std	Y+2, r25	; 0x02
    24aa:	8c 81       	ldd	r24, Y+4	; 0x04
    24ac:	9d 81       	ldd	r25, Y+5	; 0x05
    24ae:	ae 81       	ldd	r26, Y+6	; 0x06
    24b0:	bf 81       	ldd	r27, Y+7	; 0x07
    24b2:	01 97       	sbiw	r24, 0x01	; 1
    24b4:	a1 09       	sbc	r26, r1
    24b6:	b1 09       	sbc	r27, r1
    24b8:	8c 83       	std	Y+4, r24	; 0x04
    24ba:	9d 83       	std	Y+5, r25	; 0x05
    24bc:	ae 83       	std	Y+6, r26	; 0x06
    24be:	bf 83       	std	Y+7, r27	; 0x07
    24c0:	8c 81       	ldd	r24, Y+4	; 0x04
    24c2:	9d 81       	ldd	r25, Y+5	; 0x05
    24c4:	ae 81       	ldd	r26, Y+6	; 0x06
    24c6:	bf 81       	ldd	r27, Y+7	; 0x07
    24c8:	89 2b       	or	r24, r25
    24ca:	8a 2b       	or	r24, r26
    24cc:	8b 2b       	or	r24, r27
    24ce:	19 f7       	brne	.-58     	; 0x2496 <m2m_memset+0x2c>
    24d0:	01 c0       	rjmp	.+2      	; 0x24d4 <m2m_memset+0x6a>
    24d2:	00 00       	nop
    24d4:	27 96       	adiw	r28, 0x07	; 7
    24d6:	cd bf       	out	0x3d, r28	; 61
    24d8:	de bf       	out	0x3e, r29	; 62
    24da:	df 91       	pop	r29
    24dc:	cf 91       	pop	r28
    24de:	08 95       	ret

000024e0 <m2m_strlen>:
    24e0:	cf 93       	push	r28
    24e2:	df 93       	push	r29
    24e4:	00 d0       	rcall	.+0      	; 0x24e6 <m2m_strlen+0x6>
    24e6:	00 d0       	rcall	.+0      	; 0x24e8 <m2m_strlen+0x8>
    24e8:	cd b7       	in	r28, 0x3d	; 61
    24ea:	de b7       	in	r29, 0x3e	; 62
    24ec:	8b 83       	std	Y+3, r24	; 0x03
    24ee:	9c 83       	std	Y+4, r25	; 0x04
    24f0:	19 82       	std	Y+1, r1	; 0x01
    24f2:	1a 82       	std	Y+2, r1	; 0x02
    24f4:	0a c0       	rjmp	.+20     	; 0x250a <m2m_strlen+0x2a>
    24f6:	89 81       	ldd	r24, Y+1	; 0x01
    24f8:	9a 81       	ldd	r25, Y+2	; 0x02
    24fa:	01 96       	adiw	r24, 0x01	; 1
    24fc:	89 83       	std	Y+1, r24	; 0x01
    24fe:	9a 83       	std	Y+2, r25	; 0x02
    2500:	8b 81       	ldd	r24, Y+3	; 0x03
    2502:	9c 81       	ldd	r25, Y+4	; 0x04
    2504:	01 96       	adiw	r24, 0x01	; 1
    2506:	8b 83       	std	Y+3, r24	; 0x03
    2508:	9c 83       	std	Y+4, r25	; 0x04
    250a:	8b 81       	ldd	r24, Y+3	; 0x03
    250c:	9c 81       	ldd	r25, Y+4	; 0x04
    250e:	fc 01       	movw	r30, r24
    2510:	80 81       	ld	r24, Z
    2512:	88 23       	and	r24, r24
    2514:	81 f7       	brne	.-32     	; 0x24f6 <m2m_strlen+0x16>
    2516:	89 81       	ldd	r24, Y+1	; 0x01
    2518:	9a 81       	ldd	r25, Y+2	; 0x02
    251a:	24 96       	adiw	r28, 0x04	; 4
    251c:	cd bf       	out	0x3d, r28	; 61
    251e:	de bf       	out	0x3e, r29	; 62
    2520:	df 91       	pop	r29
    2522:	cf 91       	pop	r28
    2524:	08 95       	ret

00002526 <isr>:
    2526:	cf 93       	push	r28
    2528:	df 93       	push	r29
    252a:	cd b7       	in	r28, 0x3d	; 61
    252c:	de b7       	in	r29, 0x3e	; 62
    252e:	80 91 8d 2e 	lds	r24, 0x2E8D	; 0x802e8d <gstrHifCxt+0x3>
    2532:	8f 5f       	subi	r24, 0xFF	; 255
    2534:	80 93 8d 2e 	sts	0x2E8D, r24	; 0x802e8d <gstrHifCxt+0x3>
    2538:	00 00       	nop
    253a:	df 91       	pop	r29
    253c:	cf 91       	pop	r28
    253e:	08 95       	ret

00002540 <hif_set_rx_done>:
    2540:	cf 93       	push	r28
    2542:	df 93       	push	r29
    2544:	cd b7       	in	r28, 0x3d	; 61
    2546:	de b7       	in	r29, 0x3e	; 62
    2548:	25 97       	sbiw	r28, 0x05	; 5
    254a:	cd bf       	out	0x3d, r28	; 61
    254c:	de bf       	out	0x3e, r29	; 62
    254e:	19 82       	std	Y+1, r1	; 0x01
    2550:	10 92 8c 2e 	sts	0x2E8C, r1	; 0x802e8c <gstrHifCxt+0x2>
    2554:	81 e0       	ldi	r24, 0x01	; 1
    2556:	0e 94 14 10 	call	0x2028	; 0x2028 <nm_bsp_interrupt_ctrl>
    255a:	ce 01       	movw	r24, r28
    255c:	02 96       	adiw	r24, 0x02	; 2
    255e:	ac 01       	movw	r20, r24
    2560:	60 e7       	ldi	r22, 0x70	; 112
    2562:	70 e1       	ldi	r23, 0x10	; 16
    2564:	80 e0       	ldi	r24, 0x00	; 0
    2566:	90 e0       	ldi	r25, 0x00	; 0
    2568:	0e 94 6e 22 	call	0x44dc	; 0x44dc <nm_read_reg_with_ret>
    256c:	89 83       	std	Y+1, r24	; 0x01
    256e:	89 81       	ldd	r24, Y+1	; 0x01
    2570:	88 23       	and	r24, r24
    2572:	b9 f4       	brne	.+46     	; 0x25a2 <hif_set_rx_done+0x62>
    2574:	8a 81       	ldd	r24, Y+2	; 0x02
    2576:	9b 81       	ldd	r25, Y+3	; 0x03
    2578:	ac 81       	ldd	r26, Y+4	; 0x04
    257a:	bd 81       	ldd	r27, Y+5	; 0x05
    257c:	82 60       	ori	r24, 0x02	; 2
    257e:	8a 83       	std	Y+2, r24	; 0x02
    2580:	9b 83       	std	Y+3, r25	; 0x03
    2582:	ac 83       	std	Y+4, r26	; 0x04
    2584:	bd 83       	std	Y+5, r27	; 0x05
    2586:	8a 81       	ldd	r24, Y+2	; 0x02
    2588:	9b 81       	ldd	r25, Y+3	; 0x03
    258a:	ac 81       	ldd	r26, Y+4	; 0x04
    258c:	bd 81       	ldd	r27, Y+5	; 0x05
    258e:	9c 01       	movw	r18, r24
    2590:	ad 01       	movw	r20, r26
    2592:	60 e7       	ldi	r22, 0x70	; 112
    2594:	70 e1       	ldi	r23, 0x10	; 16
    2596:	80 e0       	ldi	r24, 0x00	; 0
    2598:	90 e0       	ldi	r25, 0x00	; 0
    259a:	0e 94 8c 22 	call	0x4518	; 0x4518 <nm_write_reg>
    259e:	89 83       	std	Y+1, r24	; 0x01
    25a0:	01 c0       	rjmp	.+2      	; 0x25a4 <hif_set_rx_done+0x64>
    25a2:	00 00       	nop
    25a4:	89 81       	ldd	r24, Y+1	; 0x01
    25a6:	25 96       	adiw	r28, 0x05	; 5
    25a8:	cd bf       	out	0x3d, r28	; 61
    25aa:	de bf       	out	0x3e, r29	; 62
    25ac:	df 91       	pop	r29
    25ae:	cf 91       	pop	r28
    25b0:	08 95       	ret

000025b2 <m2m_hif_cb>:
    25b2:	cf 93       	push	r28
    25b4:	df 93       	push	r29
    25b6:	cd b7       	in	r28, 0x3d	; 61
    25b8:	de b7       	in	r29, 0x3e	; 62
    25ba:	27 97       	sbiw	r28, 0x07	; 7
    25bc:	cd bf       	out	0x3d, r28	; 61
    25be:	de bf       	out	0x3e, r29	; 62
    25c0:	89 83       	std	Y+1, r24	; 0x01
    25c2:	6a 83       	std	Y+2, r22	; 0x02
    25c4:	7b 83       	std	Y+3, r23	; 0x03
    25c6:	2c 83       	std	Y+4, r18	; 0x04
    25c8:	3d 83       	std	Y+5, r19	; 0x05
    25ca:	4e 83       	std	Y+6, r20	; 0x06
    25cc:	5f 83       	std	Y+7, r21	; 0x07
    25ce:	00 00       	nop
    25d0:	27 96       	adiw	r28, 0x07	; 7
    25d2:	cd bf       	out	0x3d, r28	; 61
    25d4:	de bf       	out	0x3e, r29	; 62
    25d6:	df 91       	pop	r29
    25d8:	cf 91       	pop	r28
    25da:	08 95       	ret

000025dc <hif_chip_wake>:
    25dc:	cf 93       	push	r28
    25de:	df 93       	push	r29
    25e0:	1f 92       	push	r1
    25e2:	cd b7       	in	r28, 0x3d	; 61
    25e4:	de b7       	in	r29, 0x3e	; 62
    25e6:	19 82       	std	Y+1, r1	; 0x01
    25e8:	80 91 8c 2e 	lds	r24, 0x2E8C	; 0x802e8c <gstrHifCxt+0x2>
    25ec:	88 23       	and	r24, r24
    25ee:	11 f0       	breq	.+4      	; 0x25f4 <hif_chip_wake+0x18>
    25f0:	89 81       	ldd	r24, Y+1	; 0x01
    25f2:	16 c0       	rjmp	.+44     	; 0x2620 <hif_chip_wake+0x44>
    25f4:	80 91 8b 2e 	lds	r24, 0x2E8B	; 0x802e8b <gstrHifCxt+0x1>
    25f8:	88 23       	and	r24, r24
    25fa:	51 f4       	brne	.+20     	; 0x2610 <hif_chip_wake+0x34>
    25fc:	80 91 8a 2e 	lds	r24, 0x2E8A	; 0x802e8a <gstrHifCxt>
    2600:	88 23       	and	r24, r24
    2602:	31 f0       	breq	.+12     	; 0x2610 <hif_chip_wake+0x34>
    2604:	0e 94 9d 1f 	call	0x3f3a	; 0x3f3a <chip_wake>
    2608:	89 83       	std	Y+1, r24	; 0x01
    260a:	89 81       	ldd	r24, Y+1	; 0x01
    260c:	88 23       	and	r24, r24
    260e:	31 f4       	brne	.+12     	; 0x261c <hif_chip_wake+0x40>
    2610:	80 91 8b 2e 	lds	r24, 0x2E8B	; 0x802e8b <gstrHifCxt+0x1>
    2614:	8f 5f       	subi	r24, 0xFF	; 255
    2616:	80 93 8b 2e 	sts	0x2E8B, r24	; 0x802e8b <gstrHifCxt+0x1>
    261a:	01 c0       	rjmp	.+2      	; 0x261e <hif_chip_wake+0x42>
    261c:	00 00       	nop
    261e:	89 81       	ldd	r24, Y+1	; 0x01
    2620:	0f 90       	pop	r0
    2622:	df 91       	pop	r29
    2624:	cf 91       	pop	r28
    2626:	08 95       	ret

00002628 <hif_chip_sleep_sc>:
    2628:	cf 93       	push	r28
    262a:	df 93       	push	r29
    262c:	cd b7       	in	r28, 0x3d	; 61
    262e:	de b7       	in	r29, 0x3e	; 62
    2630:	80 91 8b 2e 	lds	r24, 0x2E8B	; 0x802e8b <gstrHifCxt+0x1>
    2634:	88 23       	and	r24, r24
    2636:	29 f0       	breq	.+10     	; 0x2642 <hif_chip_sleep_sc+0x1a>
    2638:	80 91 8b 2e 	lds	r24, 0x2E8B	; 0x802e8b <gstrHifCxt+0x1>
    263c:	81 50       	subi	r24, 0x01	; 1
    263e:	80 93 8b 2e 	sts	0x2E8B, r24	; 0x802e8b <gstrHifCxt+0x1>
    2642:	80 e0       	ldi	r24, 0x00	; 0
    2644:	df 91       	pop	r29
    2646:	cf 91       	pop	r28
    2648:	08 95       	ret

0000264a <hif_chip_sleep>:
    264a:	cf 93       	push	r28
    264c:	df 93       	push	r29
    264e:	1f 92       	push	r1
    2650:	cd b7       	in	r28, 0x3d	; 61
    2652:	de b7       	in	r29, 0x3e	; 62
    2654:	19 82       	std	Y+1, r1	; 0x01
    2656:	80 91 8b 2e 	lds	r24, 0x2E8B	; 0x802e8b <gstrHifCxt+0x1>
    265a:	88 23       	and	r24, r24
    265c:	29 f0       	breq	.+10     	; 0x2668 <hif_chip_sleep+0x1e>
    265e:	80 91 8b 2e 	lds	r24, 0x2E8B	; 0x802e8b <gstrHifCxt+0x1>
    2662:	81 50       	subi	r24, 0x01	; 1
    2664:	80 93 8b 2e 	sts	0x2E8B, r24	; 0x802e8b <gstrHifCxt+0x1>
    2668:	80 91 8b 2e 	lds	r24, 0x2E8B	; 0x802e8b <gstrHifCxt+0x1>
    266c:	88 23       	and	r24, r24
    266e:	39 f4       	brne	.+14     	; 0x267e <hif_chip_sleep+0x34>
    2670:	80 91 8a 2e 	lds	r24, 0x2E8A	; 0x802e8a <gstrHifCxt>
    2674:	88 23       	and	r24, r24
    2676:	19 f0       	breq	.+6      	; 0x267e <hif_chip_sleep+0x34>
    2678:	0e 94 08 1f 	call	0x3e10	; 0x3e10 <chip_sleep>
    267c:	89 83       	std	Y+1, r24	; 0x01
    267e:	89 81       	ldd	r24, Y+1	; 0x01
    2680:	0f 90       	pop	r0
    2682:	df 91       	pop	r29
    2684:	cf 91       	pop	r28
    2686:	08 95       	ret

00002688 <hif_init>:
    2688:	cf 93       	push	r28
    268a:	df 93       	push	r29
    268c:	00 d0       	rcall	.+0      	; 0x268e <hif_init+0x6>
    268e:	cd b7       	in	r28, 0x3d	; 61
    2690:	de b7       	in	r29, 0x3e	; 62
    2692:	89 83       	std	Y+1, r24	; 0x01
    2694:	9a 83       	std	Y+2, r25	; 0x02
    2696:	2a e1       	ldi	r18, 0x1A	; 26
    2698:	30 e0       	ldi	r19, 0x00	; 0
    269a:	40 e0       	ldi	r20, 0x00	; 0
    269c:	50 e0       	ldi	r21, 0x00	; 0
    269e:	60 e0       	ldi	r22, 0x00	; 0
    26a0:	8a e8       	ldi	r24, 0x8A	; 138
    26a2:	9e e2       	ldi	r25, 0x2E	; 46
    26a4:	0e 94 35 12 	call	0x246a	; 0x246a <m2m_memset>
    26a8:	83 e9       	ldi	r24, 0x93	; 147
    26aa:	92 e1       	ldi	r25, 0x12	; 18
    26ac:	0e 94 f4 0f 	call	0x1fe8	; 0x1fe8 <nm_bsp_register_isr>
    26b0:	69 ed       	ldi	r22, 0xD9	; 217
    26b2:	72 e1       	ldi	r23, 0x12	; 18
    26b4:	83 e0       	ldi	r24, 0x03	; 3
    26b6:	0e 94 d7 17 	call	0x2fae	; 0x2fae <hif_register_cb>
    26ba:	80 e0       	ldi	r24, 0x00	; 0
    26bc:	0f 90       	pop	r0
    26be:	0f 90       	pop	r0
    26c0:	df 91       	pop	r29
    26c2:	cf 91       	pop	r28
    26c4:	08 95       	ret

000026c6 <hif_send>:
    26c6:	cf 92       	push	r12
    26c8:	df 92       	push	r13
    26ca:	ef 92       	push	r14
    26cc:	ff 92       	push	r15
    26ce:	0f 93       	push	r16
    26d0:	1f 93       	push	r17
    26d2:	cf 93       	push	r28
    26d4:	df 93       	push	r29
    26d6:	cd b7       	in	r28, 0x3d	; 61
    26d8:	de b7       	in	r29, 0x3e	; 62
    26da:	6f 97       	sbiw	r28, 0x1f	; 31
    26dc:	cd bf       	out	0x3d, r28	; 61
    26de:	de bf       	out	0x3e, r29	; 62
    26e0:	8c 8b       	std	Y+20, r24	; 0x14
    26e2:	6d 8b       	std	Y+21, r22	; 0x15
    26e4:	4e 8b       	std	Y+22, r20	; 0x16
    26e6:	5f 8b       	std	Y+23, r21	; 0x17
    26e8:	28 8f       	std	Y+24, r18	; 0x18
    26ea:	39 8f       	std	Y+25, r19	; 0x19
    26ec:	0a 8f       	std	Y+26, r16	; 0x1a
    26ee:	1b 8f       	std	Y+27, r17	; 0x1b
    26f0:	ec 8e       	std	Y+28, r14	; 0x1c
    26f2:	fd 8e       	std	Y+29, r15	; 0x1d
    26f4:	ce 8e       	std	Y+30, r12	; 0x1e
    26f6:	df 8e       	std	Y+31, r13	; 0x1f
    26f8:	8f ef       	ldi	r24, 0xFF	; 255
    26fa:	89 83       	std	Y+1, r24	; 0x01
    26fc:	8d 89       	ldd	r24, Y+21	; 0x15
    26fe:	8f 77       	andi	r24, 0x7F	; 127
    2700:	8b 83       	std	Y+3, r24	; 0x03
    2702:	8c 89       	ldd	r24, Y+20	; 0x14
    2704:	8a 83       	std	Y+2, r24	; 0x02
    2706:	88 e0       	ldi	r24, 0x08	; 8
    2708:	90 e0       	ldi	r25, 0x00	; 0
    270a:	8c 83       	std	Y+4, r24	; 0x04
    270c:	9d 83       	std	Y+5, r25	; 0x05
    270e:	8a 8d       	ldd	r24, Y+26	; 0x1a
    2710:	9b 8d       	ldd	r25, Y+27	; 0x1b
    2712:	89 2b       	or	r24, r25
    2714:	69 f0       	breq	.+26     	; 0x2730 <hif_send+0x6a>
    2716:	2c 81       	ldd	r18, Y+4	; 0x04
    2718:	3d 81       	ldd	r19, Y+5	; 0x05
    271a:	4e 8d       	ldd	r20, Y+30	; 0x1e
    271c:	5f 8d       	ldd	r21, Y+31	; 0x1f
    271e:	8c 8d       	ldd	r24, Y+28	; 0x1c
    2720:	9d 8d       	ldd	r25, Y+29	; 0x1d
    2722:	84 0f       	add	r24, r20
    2724:	95 1f       	adc	r25, r21
    2726:	82 0f       	add	r24, r18
    2728:	93 1f       	adc	r25, r19
    272a:	8c 83       	std	Y+4, r24	; 0x04
    272c:	9d 83       	std	Y+5, r25	; 0x05
    272e:	08 c0       	rjmp	.+16     	; 0x2740 <hif_send+0x7a>
    2730:	2c 81       	ldd	r18, Y+4	; 0x04
    2732:	3d 81       	ldd	r19, Y+5	; 0x05
    2734:	88 8d       	ldd	r24, Y+24	; 0x18
    2736:	99 8d       	ldd	r25, Y+25	; 0x19
    2738:	82 0f       	add	r24, r18
    273a:	93 1f       	adc	r25, r19
    273c:	8c 83       	std	Y+4, r24	; 0x04
    273e:	9d 83       	std	Y+5, r25	; 0x05
    2740:	0e 94 ee 12 	call	0x25dc	; 0x25dc <hif_chip_wake>
    2744:	89 83       	std	Y+1, r24	; 0x01
    2746:	89 81       	ldd	r24, Y+1	; 0x01
    2748:	88 23       	and	r24, r24
    274a:	09 f0       	breq	.+2      	; 0x274e <hif_send+0x88>
    274c:	a6 c1       	rjmp	.+844    	; 0x2a9a <hif_send+0x3d4>
    274e:	1a 86       	std	Y+10, r1	; 0x0a
    2750:	1b 86       	std	Y+11, r1	; 0x0b
    2752:	1c 86       	std	Y+12, r1	; 0x0c
    2754:	1d 86       	std	Y+13, r1	; 0x0d
    2756:	1e 86       	std	Y+14, r1	; 0x0e
    2758:	1f 86       	std	Y+15, r1	; 0x0f
    275a:	1e 82       	std	Y+6, r1	; 0x06
    275c:	1f 82       	std	Y+7, r1	; 0x07
    275e:	18 86       	std	Y+8, r1	; 0x08
    2760:	19 86       	std	Y+9, r1	; 0x09
    2762:	8c 89       	ldd	r24, Y+20	; 0x14
    2764:	28 2f       	mov	r18, r24
    2766:	30 e0       	ldi	r19, 0x00	; 0
    2768:	40 e0       	ldi	r20, 0x00	; 0
    276a:	50 e0       	ldi	r21, 0x00	; 0
    276c:	8e 81       	ldd	r24, Y+6	; 0x06
    276e:	9f 81       	ldd	r25, Y+7	; 0x07
    2770:	a8 85       	ldd	r26, Y+8	; 0x08
    2772:	b9 85       	ldd	r27, Y+9	; 0x09
    2774:	82 2b       	or	r24, r18
    2776:	93 2b       	or	r25, r19
    2778:	a4 2b       	or	r26, r20
    277a:	b5 2b       	or	r27, r21
    277c:	8e 83       	std	Y+6, r24	; 0x06
    277e:	9f 83       	std	Y+7, r25	; 0x07
    2780:	a8 87       	std	Y+8, r26	; 0x08
    2782:	b9 87       	std	Y+9, r27	; 0x09
    2784:	8d 89       	ldd	r24, Y+21	; 0x15
    2786:	88 2f       	mov	r24, r24
    2788:	90 e0       	ldi	r25, 0x00	; 0
    278a:	a0 e0       	ldi	r26, 0x00	; 0
    278c:	b0 e0       	ldi	r27, 0x00	; 0
    278e:	22 27       	eor	r18, r18
    2790:	38 2f       	mov	r19, r24
    2792:	49 2f       	mov	r20, r25
    2794:	5a 2f       	mov	r21, r26
    2796:	8e 81       	ldd	r24, Y+6	; 0x06
    2798:	9f 81       	ldd	r25, Y+7	; 0x07
    279a:	a8 85       	ldd	r26, Y+8	; 0x08
    279c:	b9 85       	ldd	r27, Y+9	; 0x09
    279e:	82 2b       	or	r24, r18
    27a0:	93 2b       	or	r25, r19
    27a2:	a4 2b       	or	r26, r20
    27a4:	b5 2b       	or	r27, r21
    27a6:	8e 83       	std	Y+6, r24	; 0x06
    27a8:	9f 83       	std	Y+7, r25	; 0x07
    27aa:	a8 87       	std	Y+8, r26	; 0x08
    27ac:	b9 87       	std	Y+9, r27	; 0x09
    27ae:	8c 81       	ldd	r24, Y+4	; 0x04
    27b0:	9d 81       	ldd	r25, Y+5	; 0x05
    27b2:	cc 01       	movw	r24, r24
    27b4:	a0 e0       	ldi	r26, 0x00	; 0
    27b6:	b0 e0       	ldi	r27, 0x00	; 0
    27b8:	ac 01       	movw	r20, r24
    27ba:	33 27       	eor	r19, r19
    27bc:	22 27       	eor	r18, r18
    27be:	8e 81       	ldd	r24, Y+6	; 0x06
    27c0:	9f 81       	ldd	r25, Y+7	; 0x07
    27c2:	a8 85       	ldd	r26, Y+8	; 0x08
    27c4:	b9 85       	ldd	r27, Y+9	; 0x09
    27c6:	82 2b       	or	r24, r18
    27c8:	93 2b       	or	r25, r19
    27ca:	a4 2b       	or	r26, r20
    27cc:	b5 2b       	or	r27, r21
    27ce:	8e 83       	std	Y+6, r24	; 0x06
    27d0:	9f 83       	std	Y+7, r25	; 0x07
    27d2:	a8 87       	std	Y+8, r26	; 0x08
    27d4:	b9 87       	std	Y+9, r27	; 0x09
    27d6:	8e 81       	ldd	r24, Y+6	; 0x06
    27d8:	9f 81       	ldd	r25, Y+7	; 0x07
    27da:	a8 85       	ldd	r26, Y+8	; 0x08
    27dc:	b9 85       	ldd	r27, Y+9	; 0x09
    27de:	9c 01       	movw	r18, r24
    27e0:	ad 01       	movw	r20, r26
    27e2:	6c e8       	ldi	r22, 0x8C	; 140
    27e4:	70 e1       	ldi	r23, 0x10	; 16
    27e6:	80 e0       	ldi	r24, 0x00	; 0
    27e8:	90 e0       	ldi	r25, 0x00	; 0
    27ea:	0e 94 8c 22 	call	0x4518	; 0x4518 <nm_write_reg>
    27ee:	89 83       	std	Y+1, r24	; 0x01
    27f0:	89 81       	ldd	r24, Y+1	; 0x01
    27f2:	88 23       	and	r24, r24
    27f4:	09 f0       	breq	.+2      	; 0x27f8 <hif_send+0x132>
    27f6:	45 c1       	rjmp	.+650    	; 0x2a82 <hif_send+0x3bc>
    27f8:	1e 82       	std	Y+6, r1	; 0x06
    27fa:	1f 82       	std	Y+7, r1	; 0x07
    27fc:	18 86       	std	Y+8, r1	; 0x08
    27fe:	19 86       	std	Y+9, r1	; 0x09
    2800:	8e 81       	ldd	r24, Y+6	; 0x06
    2802:	9f 81       	ldd	r25, Y+7	; 0x07
    2804:	a8 85       	ldd	r26, Y+8	; 0x08
    2806:	b9 85       	ldd	r27, Y+9	; 0x09
    2808:	82 60       	ori	r24, 0x02	; 2
    280a:	8e 83       	std	Y+6, r24	; 0x06
    280c:	9f 83       	std	Y+7, r25	; 0x07
    280e:	a8 87       	std	Y+8, r26	; 0x08
    2810:	b9 87       	std	Y+9, r27	; 0x09
    2812:	8e 81       	ldd	r24, Y+6	; 0x06
    2814:	9f 81       	ldd	r25, Y+7	; 0x07
    2816:	a8 85       	ldd	r26, Y+8	; 0x08
    2818:	b9 85       	ldd	r27, Y+9	; 0x09
    281a:	9c 01       	movw	r18, r24
    281c:	ad 01       	movw	r20, r26
    281e:	68 e7       	ldi	r22, 0x78	; 120
    2820:	70 e1       	ldi	r23, 0x10	; 16
    2822:	80 e0       	ldi	r24, 0x00	; 0
    2824:	90 e0       	ldi	r25, 0x00	; 0
    2826:	0e 94 8c 22 	call	0x4518	; 0x4518 <nm_write_reg>
    282a:	89 83       	std	Y+1, r24	; 0x01
    282c:	89 81       	ldd	r24, Y+1	; 0x01
    282e:	88 23       	and	r24, r24
    2830:	09 f0       	breq	.+2      	; 0x2834 <hif_send+0x16e>
    2832:	29 c1       	rjmp	.+594    	; 0x2a86 <hif_send+0x3c0>
    2834:	1a 86       	std	Y+10, r1	; 0x0a
    2836:	1b 86       	std	Y+11, r1	; 0x0b
    2838:	1c 86       	std	Y+12, r1	; 0x0c
    283a:	1d 86       	std	Y+13, r1	; 0x0d
    283c:	1e 86       	std	Y+14, r1	; 0x0e
    283e:	1f 86       	std	Y+15, r1	; 0x0f
    2840:	3d c0       	rjmp	.+122    	; 0x28bc <hif_send+0x1f6>
    2842:	ce 01       	movw	r24, r28
    2844:	06 96       	adiw	r24, 0x06	; 6
    2846:	ac 01       	movw	r20, r24
    2848:	68 e7       	ldi	r22, 0x78	; 120
    284a:	70 e1       	ldi	r23, 0x10	; 16
    284c:	80 e0       	ldi	r24, 0x00	; 0
    284e:	90 e0       	ldi	r25, 0x00	; 0
    2850:	0e 94 6e 22 	call	0x44dc	; 0x44dc <nm_read_reg_with_ret>
    2854:	89 83       	std	Y+1, r24	; 0x01
    2856:	89 81       	ldd	r24, Y+1	; 0x01
    2858:	88 23       	and	r24, r24
    285a:	b9 f5       	brne	.+110    	; 0x28ca <hif_send+0x204>
    285c:	8e 85       	ldd	r24, Y+14	; 0x0e
    285e:	9f 85       	ldd	r25, Y+15	; 0x0f
    2860:	84 3f       	cpi	r24, 0xF4	; 244
    2862:	91 40       	sbci	r25, 0x01	; 1
    2864:	40 f0       	brcs	.+16     	; 0x2876 <hif_send+0x1b0>
    2866:	8e 85       	ldd	r24, Y+14	; 0x0e
    2868:	9f 85       	ldd	r25, Y+15	; 0x0f
    286a:	61 e0       	ldi	r22, 0x01	; 1
    286c:	70 e0       	ldi	r23, 0x00	; 0
    286e:	80 e0       	ldi	r24, 0x00	; 0
    2870:	90 e0       	ldi	r25, 0x00	; 0
    2872:	0e 94 5c 0f 	call	0x1eb8	; 0x1eb8 <nm_bsp_sleep>
    2876:	8e 81       	ldd	r24, Y+6	; 0x06
    2878:	9f 81       	ldd	r25, Y+7	; 0x07
    287a:	a8 85       	ldd	r26, Y+8	; 0x08
    287c:	b9 85       	ldd	r27, Y+9	; 0x09
    287e:	82 70       	andi	r24, 0x02	; 2
    2880:	99 27       	eor	r25, r25
    2882:	aa 27       	eor	r26, r26
    2884:	bb 27       	eor	r27, r27
    2886:	89 2b       	or	r24, r25
    2888:	8a 2b       	or	r24, r26
    288a:	8b 2b       	or	r24, r27
    288c:	91 f4       	brne	.+36     	; 0x28b2 <hif_send+0x1ec>
    288e:	ce 01       	movw	r24, r28
    2890:	0a 96       	adiw	r24, 0x0a	; 10
    2892:	ac 01       	movw	r20, r24
    2894:	60 e0       	ldi	r22, 0x00	; 0
    2896:	74 e0       	ldi	r23, 0x04	; 4
    2898:	85 e1       	ldi	r24, 0x15	; 21
    289a:	90 e0       	ldi	r25, 0x00	; 0
    289c:	0e 94 6e 22 	call	0x44dc	; 0x44dc <nm_read_reg_with_ret>
    28a0:	89 83       	std	Y+1, r24	; 0x01
    28a2:	89 81       	ldd	r24, Y+1	; 0x01
    28a4:	88 23       	and	r24, r24
    28a6:	99 f0       	breq	.+38     	; 0x28ce <hif_send+0x208>
    28a8:	1a 86       	std	Y+10, r1	; 0x0a
    28aa:	1b 86       	std	Y+11, r1	; 0x0b
    28ac:	1c 86       	std	Y+12, r1	; 0x0c
    28ae:	1d 86       	std	Y+13, r1	; 0x0d
    28b0:	f1 c0       	rjmp	.+482    	; 0x2a94 <hif_send+0x3ce>
    28b2:	8e 85       	ldd	r24, Y+14	; 0x0e
    28b4:	9f 85       	ldd	r25, Y+15	; 0x0f
    28b6:	01 96       	adiw	r24, 0x01	; 1
    28b8:	8e 87       	std	Y+14, r24	; 0x0e
    28ba:	9f 87       	std	Y+15, r25	; 0x0f
    28bc:	8e 85       	ldd	r24, Y+14	; 0x0e
    28be:	9f 85       	ldd	r25, Y+15	; 0x0f
    28c0:	88 3e       	cpi	r24, 0xE8	; 232
    28c2:	93 40       	sbci	r25, 0x03	; 3
    28c4:	08 f4       	brcc	.+2      	; 0x28c8 <hif_send+0x202>
    28c6:	bd cf       	rjmp	.-134    	; 0x2842 <hif_send+0x17c>
    28c8:	03 c0       	rjmp	.+6      	; 0x28d0 <hif_send+0x20a>
    28ca:	00 00       	nop
    28cc:	01 c0       	rjmp	.+2      	; 0x28d0 <hif_send+0x20a>
    28ce:	00 00       	nop
    28d0:	8a 85       	ldd	r24, Y+10	; 0x0a
    28d2:	9b 85       	ldd	r25, Y+11	; 0x0b
    28d4:	ac 85       	ldd	r26, Y+12	; 0x0c
    28d6:	bd 85       	ldd	r27, Y+13	; 0x0d
    28d8:	89 2b       	or	r24, r25
    28da:	8a 2b       	or	r24, r26
    28dc:	8b 2b       	or	r24, r27
    28de:	09 f4       	brne	.+2      	; 0x28e2 <hif_send+0x21c>
    28e0:	c5 c0       	rjmp	.+394    	; 0x2a6c <hif_send+0x3a6>
    28e2:	8a 85       	ldd	r24, Y+10	; 0x0a
    28e4:	9b 85       	ldd	r25, Y+11	; 0x0b
    28e6:	ac 85       	ldd	r26, Y+12	; 0x0c
    28e8:	bd 85       	ldd	r27, Y+13	; 0x0d
    28ea:	88 8b       	std	Y+16, r24	; 0x10
    28ec:	99 8b       	std	Y+17, r25	; 0x11
    28ee:	aa 8b       	std	Y+18, r26	; 0x12
    28f0:	bb 8b       	std	Y+19, r27	; 0x13
    28f2:	8c 81       	ldd	r24, Y+4	; 0x04
    28f4:	9d 81       	ldd	r25, Y+5	; 0x05
    28f6:	8c 83       	std	Y+4, r24	; 0x04
    28f8:	9d 83       	std	Y+5, r25	; 0x05
    28fa:	88 89       	ldd	r24, Y+16	; 0x10
    28fc:	99 89       	ldd	r25, Y+17	; 0x11
    28fe:	aa 89       	ldd	r26, Y+18	; 0x12
    2900:	bb 89       	ldd	r27, Y+19	; 0x13
    2902:	ae 01       	movw	r20, r28
    2904:	4e 5f       	subi	r20, 0xFE	; 254
    2906:	5f 4f       	sbci	r21, 0xFF	; 255
    2908:	08 e0       	ldi	r16, 0x08	; 8
    290a:	10 e0       	ldi	r17, 0x00	; 0
    290c:	20 e0       	ldi	r18, 0x00	; 0
    290e:	30 e0       	ldi	r19, 0x00	; 0
    2910:	bc 01       	movw	r22, r24
    2912:	cd 01       	movw	r24, r26
    2914:	0e 94 91 23 	call	0x4722	; 0x4722 <nm_write_block>
    2918:	89 83       	std	Y+1, r24	; 0x01
    291a:	89 81       	ldd	r24, Y+1	; 0x01
    291c:	88 23       	and	r24, r24
    291e:	09 f0       	breq	.+2      	; 0x2922 <hif_send+0x25c>
    2920:	b4 c0       	rjmp	.+360    	; 0x2a8a <hif_send+0x3c4>
    2922:	88 89       	ldd	r24, Y+16	; 0x10
    2924:	99 89       	ldd	r25, Y+17	; 0x11
    2926:	aa 89       	ldd	r26, Y+18	; 0x12
    2928:	bb 89       	ldd	r27, Y+19	; 0x13
    292a:	08 96       	adiw	r24, 0x08	; 8
    292c:	a1 1d       	adc	r26, r1
    292e:	b1 1d       	adc	r27, r1
    2930:	88 8b       	std	Y+16, r24	; 0x10
    2932:	99 8b       	std	Y+17, r25	; 0x11
    2934:	aa 8b       	std	Y+18, r26	; 0x12
    2936:	bb 8b       	std	Y+19, r27	; 0x13
    2938:	8e 89       	ldd	r24, Y+22	; 0x16
    293a:	9f 89       	ldd	r25, Y+23	; 0x17
    293c:	89 2b       	or	r24, r25
    293e:	41 f1       	breq	.+80     	; 0x2990 <hif_send+0x2ca>
    2940:	88 8d       	ldd	r24, Y+24	; 0x18
    2942:	99 8d       	ldd	r25, Y+25	; 0x19
    2944:	9c 01       	movw	r18, r24
    2946:	40 e0       	ldi	r20, 0x00	; 0
    2948:	50 e0       	ldi	r21, 0x00	; 0
    294a:	88 89       	ldd	r24, Y+16	; 0x10
    294c:	99 89       	ldd	r25, Y+17	; 0x11
    294e:	aa 89       	ldd	r26, Y+18	; 0x12
    2950:	bb 89       	ldd	r27, Y+19	; 0x13
    2952:	6e 89       	ldd	r22, Y+22	; 0x16
    2954:	7f 89       	ldd	r23, Y+23	; 0x17
    2956:	89 01       	movw	r16, r18
    2958:	9a 01       	movw	r18, r20
    295a:	ab 01       	movw	r20, r22
    295c:	bc 01       	movw	r22, r24
    295e:	cd 01       	movw	r24, r26
    2960:	0e 94 91 23 	call	0x4722	; 0x4722 <nm_write_block>
    2964:	89 83       	std	Y+1, r24	; 0x01
    2966:	89 81       	ldd	r24, Y+1	; 0x01
    2968:	88 23       	and	r24, r24
    296a:	09 f0       	breq	.+2      	; 0x296e <hif_send+0x2a8>
    296c:	90 c0       	rjmp	.+288    	; 0x2a8e <hif_send+0x3c8>
    296e:	88 8d       	ldd	r24, Y+24	; 0x18
    2970:	99 8d       	ldd	r25, Y+25	; 0x19
    2972:	9c 01       	movw	r18, r24
    2974:	40 e0       	ldi	r20, 0x00	; 0
    2976:	50 e0       	ldi	r21, 0x00	; 0
    2978:	88 89       	ldd	r24, Y+16	; 0x10
    297a:	99 89       	ldd	r25, Y+17	; 0x11
    297c:	aa 89       	ldd	r26, Y+18	; 0x12
    297e:	bb 89       	ldd	r27, Y+19	; 0x13
    2980:	82 0f       	add	r24, r18
    2982:	93 1f       	adc	r25, r19
    2984:	a4 1f       	adc	r26, r20
    2986:	b5 1f       	adc	r27, r21
    2988:	88 8b       	std	Y+16, r24	; 0x10
    298a:	99 8b       	std	Y+17, r25	; 0x11
    298c:	aa 8b       	std	Y+18, r26	; 0x12
    298e:	bb 8b       	std	Y+19, r27	; 0x13
    2990:	8a 8d       	ldd	r24, Y+26	; 0x1a
    2992:	9b 8d       	ldd	r25, Y+27	; 0x1b
    2994:	89 2b       	or	r24, r25
    2996:	09 f4       	brne	.+2      	; 0x299a <hif_send+0x2d4>
    2998:	3f c0       	rjmp	.+126    	; 0x2a18 <hif_send+0x352>
    299a:	2e 8d       	ldd	r18, Y+30	; 0x1e
    299c:	3f 8d       	ldd	r19, Y+31	; 0x1f
    299e:	88 8d       	ldd	r24, Y+24	; 0x18
    29a0:	99 8d       	ldd	r25, Y+25	; 0x19
    29a2:	a9 01       	movw	r20, r18
    29a4:	48 1b       	sub	r20, r24
    29a6:	59 0b       	sbc	r21, r25
    29a8:	ca 01       	movw	r24, r20
    29aa:	9c 01       	movw	r18, r24
    29ac:	40 e0       	ldi	r20, 0x00	; 0
    29ae:	50 e0       	ldi	r21, 0x00	; 0
    29b0:	88 89       	ldd	r24, Y+16	; 0x10
    29b2:	99 89       	ldd	r25, Y+17	; 0x11
    29b4:	aa 89       	ldd	r26, Y+18	; 0x12
    29b6:	bb 89       	ldd	r27, Y+19	; 0x13
    29b8:	82 0f       	add	r24, r18
    29ba:	93 1f       	adc	r25, r19
    29bc:	a4 1f       	adc	r26, r20
    29be:	b5 1f       	adc	r27, r21
    29c0:	88 8b       	std	Y+16, r24	; 0x10
    29c2:	99 8b       	std	Y+17, r25	; 0x11
    29c4:	aa 8b       	std	Y+18, r26	; 0x12
    29c6:	bb 8b       	std	Y+19, r27	; 0x13
    29c8:	8c 8d       	ldd	r24, Y+28	; 0x1c
    29ca:	9d 8d       	ldd	r25, Y+29	; 0x1d
    29cc:	9c 01       	movw	r18, r24
    29ce:	40 e0       	ldi	r20, 0x00	; 0
    29d0:	50 e0       	ldi	r21, 0x00	; 0
    29d2:	88 89       	ldd	r24, Y+16	; 0x10
    29d4:	99 89       	ldd	r25, Y+17	; 0x11
    29d6:	aa 89       	ldd	r26, Y+18	; 0x12
    29d8:	bb 89       	ldd	r27, Y+19	; 0x13
    29da:	6a 8d       	ldd	r22, Y+26	; 0x1a
    29dc:	7b 8d       	ldd	r23, Y+27	; 0x1b
    29de:	89 01       	movw	r16, r18
    29e0:	9a 01       	movw	r18, r20
    29e2:	ab 01       	movw	r20, r22
    29e4:	bc 01       	movw	r22, r24
    29e6:	cd 01       	movw	r24, r26
    29e8:	0e 94 91 23 	call	0x4722	; 0x4722 <nm_write_block>
    29ec:	89 83       	std	Y+1, r24	; 0x01
    29ee:	89 81       	ldd	r24, Y+1	; 0x01
    29f0:	88 23       	and	r24, r24
    29f2:	09 f0       	breq	.+2      	; 0x29f6 <hif_send+0x330>
    29f4:	4e c0       	rjmp	.+156    	; 0x2a92 <hif_send+0x3cc>
    29f6:	8c 8d       	ldd	r24, Y+28	; 0x1c
    29f8:	9d 8d       	ldd	r25, Y+29	; 0x1d
    29fa:	9c 01       	movw	r18, r24
    29fc:	40 e0       	ldi	r20, 0x00	; 0
    29fe:	50 e0       	ldi	r21, 0x00	; 0
    2a00:	88 89       	ldd	r24, Y+16	; 0x10
    2a02:	99 89       	ldd	r25, Y+17	; 0x11
    2a04:	aa 89       	ldd	r26, Y+18	; 0x12
    2a06:	bb 89       	ldd	r27, Y+19	; 0x13
    2a08:	82 0f       	add	r24, r18
    2a0a:	93 1f       	adc	r25, r19
    2a0c:	a4 1f       	adc	r26, r20
    2a0e:	b5 1f       	adc	r27, r21
    2a10:	88 8b       	std	Y+16, r24	; 0x10
    2a12:	99 8b       	std	Y+17, r25	; 0x11
    2a14:	aa 8b       	std	Y+18, r26	; 0x12
    2a16:	bb 8b       	std	Y+19, r27	; 0x13
    2a18:	8a 85       	ldd	r24, Y+10	; 0x0a
    2a1a:	9b 85       	ldd	r25, Y+11	; 0x0b
    2a1c:	ac 85       	ldd	r26, Y+12	; 0x0c
    2a1e:	bd 85       	ldd	r27, Y+13	; 0x0d
    2a20:	88 0f       	add	r24, r24
    2a22:	99 1f       	adc	r25, r25
    2a24:	aa 1f       	adc	r26, r26
    2a26:	bb 1f       	adc	r27, r27
    2a28:	88 0f       	add	r24, r24
    2a2a:	99 1f       	adc	r25, r25
    2a2c:	aa 1f       	adc	r26, r26
    2a2e:	bb 1f       	adc	r27, r27
    2a30:	8e 83       	std	Y+6, r24	; 0x06
    2a32:	9f 83       	std	Y+7, r25	; 0x07
    2a34:	a8 87       	std	Y+8, r26	; 0x08
    2a36:	b9 87       	std	Y+9, r27	; 0x09
    2a38:	8e 81       	ldd	r24, Y+6	; 0x06
    2a3a:	9f 81       	ldd	r25, Y+7	; 0x07
    2a3c:	a8 85       	ldd	r26, Y+8	; 0x08
    2a3e:	b9 85       	ldd	r27, Y+9	; 0x09
    2a40:	82 60       	ori	r24, 0x02	; 2
    2a42:	8e 83       	std	Y+6, r24	; 0x06
    2a44:	9f 83       	std	Y+7, r25	; 0x07
    2a46:	a8 87       	std	Y+8, r26	; 0x08
    2a48:	b9 87       	std	Y+9, r27	; 0x09
    2a4a:	8e 81       	ldd	r24, Y+6	; 0x06
    2a4c:	9f 81       	ldd	r25, Y+7	; 0x07
    2a4e:	a8 85       	ldd	r26, Y+8	; 0x08
    2a50:	b9 85       	ldd	r27, Y+9	; 0x09
    2a52:	9c 01       	movw	r18, r24
    2a54:	ad 01       	movw	r20, r26
    2a56:	6c e6       	ldi	r22, 0x6C	; 108
    2a58:	70 e1       	ldi	r23, 0x10	; 16
    2a5a:	80 e0       	ldi	r24, 0x00	; 0
    2a5c:	90 e0       	ldi	r25, 0x00	; 0
    2a5e:	0e 94 8c 22 	call	0x4518	; 0x4518 <nm_write_reg>
    2a62:	89 83       	std	Y+1, r24	; 0x01
    2a64:	89 81       	ldd	r24, Y+1	; 0x01
    2a66:	88 23       	and	r24, r24
    2a68:	39 f0       	breq	.+14     	; 0x2a78 <hif_send+0x3b2>
    2a6a:	14 c0       	rjmp	.+40     	; 0x2a94 <hif_send+0x3ce>
    2a6c:	0e 94 25 13 	call	0x264a	; 0x264a <hif_chip_sleep>
    2a70:	89 83       	std	Y+1, r24	; 0x01
    2a72:	8d ef       	ldi	r24, 0xFD	; 253
    2a74:	89 83       	std	Y+1, r24	; 0x01
    2a76:	12 c0       	rjmp	.+36     	; 0x2a9c <hif_send+0x3d6>
    2a78:	0e 94 25 13 	call	0x264a	; 0x264a <hif_chip_sleep>
    2a7c:	89 83       	std	Y+1, r24	; 0x01
    2a7e:	89 81       	ldd	r24, Y+1	; 0x01
    2a80:	0e c0       	rjmp	.+28     	; 0x2a9e <hif_send+0x3d8>
    2a82:	00 00       	nop
    2a84:	07 c0       	rjmp	.+14     	; 0x2a94 <hif_send+0x3ce>
    2a86:	00 00       	nop
    2a88:	05 c0       	rjmp	.+10     	; 0x2a94 <hif_send+0x3ce>
    2a8a:	00 00       	nop
    2a8c:	03 c0       	rjmp	.+6      	; 0x2a94 <hif_send+0x3ce>
    2a8e:	00 00       	nop
    2a90:	01 c0       	rjmp	.+2      	; 0x2a94 <hif_send+0x3ce>
    2a92:	00 00       	nop
    2a94:	0e 94 14 13 	call	0x2628	; 0x2628 <hif_chip_sleep_sc>
    2a98:	01 c0       	rjmp	.+2      	; 0x2a9c <hif_send+0x3d6>
    2a9a:	00 00       	nop
    2a9c:	89 81       	ldd	r24, Y+1	; 0x01
    2a9e:	6f 96       	adiw	r28, 0x1f	; 31
    2aa0:	cd bf       	out	0x3d, r28	; 61
    2aa2:	de bf       	out	0x3e, r29	; 62
    2aa4:	df 91       	pop	r29
    2aa6:	cf 91       	pop	r28
    2aa8:	1f 91       	pop	r17
    2aaa:	0f 91       	pop	r16
    2aac:	ff 90       	pop	r15
    2aae:	ef 90       	pop	r14
    2ab0:	df 90       	pop	r13
    2ab2:	cf 90       	pop	r12
    2ab4:	08 95       	ret

00002ab6 <hif_isr>:
    2ab6:	0f 93       	push	r16
    2ab8:	1f 93       	push	r17
    2aba:	cf 93       	push	r28
    2abc:	df 93       	push	r29
    2abe:	cd b7       	in	r28, 0x3d	; 61
    2ac0:	de b7       	in	r29, 0x3e	; 62
    2ac2:	2f 97       	sbiw	r28, 0x0f	; 15
    2ac4:	cd bf       	out	0x3d, r28	; 61
    2ac6:	de bf       	out	0x3e, r29	; 62
    2ac8:	19 82       	std	Y+1, r1	; 0x01
    2aca:	ce 01       	movw	r24, r28
    2acc:	04 96       	adiw	r24, 0x04	; 4
    2ace:	ac 01       	movw	r20, r24
    2ad0:	60 e7       	ldi	r22, 0x70	; 112
    2ad2:	70 e1       	ldi	r23, 0x10	; 16
    2ad4:	80 e0       	ldi	r24, 0x00	; 0
    2ad6:	90 e0       	ldi	r25, 0x00	; 0
    2ad8:	0e 94 6e 22 	call	0x44dc	; 0x44dc <nm_read_reg_with_ret>
    2adc:	89 83       	std	Y+1, r24	; 0x01
    2ade:	89 81       	ldd	r24, Y+1	; 0x01
    2ae0:	88 23       	and	r24, r24
    2ae2:	09 f0       	breq	.+2      	; 0x2ae6 <hif_isr+0x30>
    2ae4:	70 c1       	rjmp	.+736    	; 0x2dc6 <hif_isr+0x310>
    2ae6:	8c 81       	ldd	r24, Y+4	; 0x04
    2ae8:	9d 81       	ldd	r25, Y+5	; 0x05
    2aea:	ae 81       	ldd	r26, Y+6	; 0x06
    2aec:	bf 81       	ldd	r27, Y+7	; 0x07
    2aee:	81 70       	andi	r24, 0x01	; 1
    2af0:	99 27       	eor	r25, r25
    2af2:	aa 27       	eor	r26, r26
    2af4:	bb 27       	eor	r27, r27
    2af6:	89 2b       	or	r24, r25
    2af8:	8a 2b       	or	r24, r26
    2afa:	8b 2b       	or	r24, r27
    2afc:	09 f4       	brne	.+2      	; 0x2b00 <hif_isr+0x4a>
    2afe:	60 c1       	rjmp	.+704    	; 0x2dc0 <hif_isr+0x30a>
    2b00:	80 e0       	ldi	r24, 0x00	; 0
    2b02:	0e 94 14 10 	call	0x2028	; 0x2028 <nm_bsp_interrupt_ctrl>
    2b06:	8c 81       	ldd	r24, Y+4	; 0x04
    2b08:	9d 81       	ldd	r25, Y+5	; 0x05
    2b0a:	ae 81       	ldd	r26, Y+6	; 0x06
    2b0c:	bf 81       	ldd	r27, Y+7	; 0x07
    2b0e:	8e 7f       	andi	r24, 0xFE	; 254
    2b10:	8c 83       	std	Y+4, r24	; 0x04
    2b12:	9d 83       	std	Y+5, r25	; 0x05
    2b14:	ae 83       	std	Y+6, r26	; 0x06
    2b16:	bf 83       	std	Y+7, r27	; 0x07
    2b18:	8c 81       	ldd	r24, Y+4	; 0x04
    2b1a:	9d 81       	ldd	r25, Y+5	; 0x05
    2b1c:	ae 81       	ldd	r26, Y+6	; 0x06
    2b1e:	bf 81       	ldd	r27, Y+7	; 0x07
    2b20:	9c 01       	movw	r18, r24
    2b22:	ad 01       	movw	r20, r26
    2b24:	60 e7       	ldi	r22, 0x70	; 112
    2b26:	70 e1       	ldi	r23, 0x10	; 16
    2b28:	80 e0       	ldi	r24, 0x00	; 0
    2b2a:	90 e0       	ldi	r25, 0x00	; 0
    2b2c:	0e 94 8c 22 	call	0x4518	; 0x4518 <nm_write_reg>
    2b30:	89 83       	std	Y+1, r24	; 0x01
    2b32:	89 81       	ldd	r24, Y+1	; 0x01
    2b34:	88 23       	and	r24, r24
    2b36:	09 f0       	breq	.+2      	; 0x2b3a <hif_isr+0x84>
    2b38:	48 c1       	rjmp	.+656    	; 0x2dca <hif_isr+0x314>
    2b3a:	81 e0       	ldi	r24, 0x01	; 1
    2b3c:	80 93 8c 2e 	sts	0x2E8C, r24	; 0x802e8c <gstrHifCxt+0x2>
    2b40:	8c 81       	ldd	r24, Y+4	; 0x04
    2b42:	9d 81       	ldd	r25, Y+5	; 0x05
    2b44:	ae 81       	ldd	r26, Y+6	; 0x06
    2b46:	bf 81       	ldd	r27, Y+7	; 0x07
    2b48:	b6 95       	lsr	r27
    2b4a:	a7 95       	ror	r26
    2b4c:	97 95       	ror	r25
    2b4e:	87 95       	ror	r24
    2b50:	b6 95       	lsr	r27
    2b52:	a7 95       	ror	r26
    2b54:	97 95       	ror	r25
    2b56:	87 95       	ror	r24
    2b58:	9f 70       	andi	r25, 0x0F	; 15
    2b5a:	8a 83       	std	Y+2, r24	; 0x02
    2b5c:	9b 83       	std	Y+3, r25	; 0x03
    2b5e:	8a 81       	ldd	r24, Y+2	; 0x02
    2b60:	9b 81       	ldd	r25, Y+3	; 0x03
    2b62:	89 2b       	or	r24, r25
    2b64:	09 f4       	brne	.+2      	; 0x2b68 <hif_isr+0xb2>
    2b66:	29 c1       	rjmp	.+594    	; 0x2dba <hif_isr+0x304>
    2b68:	1c 86       	std	Y+12, r1	; 0x0c
    2b6a:	1d 86       	std	Y+13, r1	; 0x0d
    2b6c:	1e 86       	std	Y+14, r1	; 0x0e
    2b6e:	1f 86       	std	Y+15, r1	; 0x0f
    2b70:	ce 01       	movw	r24, r28
    2b72:	0c 96       	adiw	r24, 0x0c	; 12
    2b74:	ac 01       	movw	r20, r24
    2b76:	64 e8       	ldi	r22, 0x84	; 132
    2b78:	70 e1       	ldi	r23, 0x10	; 16
    2b7a:	80 e0       	ldi	r24, 0x00	; 0
    2b7c:	90 e0       	ldi	r25, 0x00	; 0
    2b7e:	0e 94 6e 22 	call	0x44dc	; 0x44dc <nm_read_reg_with_ret>
    2b82:	89 83       	std	Y+1, r24	; 0x01
    2b84:	89 81       	ldd	r24, Y+1	; 0x01
    2b86:	88 23       	and	r24, r24
    2b88:	21 f0       	breq	.+8      	; 0x2b92 <hif_isr+0xdc>
    2b8a:	81 e0       	ldi	r24, 0x01	; 1
    2b8c:	0e 94 14 10 	call	0x2028	; 0x2028 <nm_bsp_interrupt_ctrl>
    2b90:	1d c1       	rjmp	.+570    	; 0x2dcc <hif_isr+0x316>
    2b92:	8c 85       	ldd	r24, Y+12	; 0x0c
    2b94:	9d 85       	ldd	r25, Y+13	; 0x0d
    2b96:	ae 85       	ldd	r26, Y+14	; 0x0e
    2b98:	bf 85       	ldd	r27, Y+15	; 0x0f
    2b9a:	80 93 8e 2e 	sts	0x2E8E, r24	; 0x802e8e <gstrHifCxt+0x4>
    2b9e:	90 93 8f 2e 	sts	0x2E8F, r25	; 0x802e8f <gstrHifCxt+0x5>
    2ba2:	a0 93 90 2e 	sts	0x2E90, r26	; 0x802e90 <gstrHifCxt+0x6>
    2ba6:	b0 93 91 2e 	sts	0x2E91, r27	; 0x802e91 <gstrHifCxt+0x7>
    2baa:	8a 81       	ldd	r24, Y+2	; 0x02
    2bac:	9b 81       	ldd	r25, Y+3	; 0x03
    2bae:	cc 01       	movw	r24, r24
    2bb0:	a0 e0       	ldi	r26, 0x00	; 0
    2bb2:	b0 e0       	ldi	r27, 0x00	; 0
    2bb4:	80 93 92 2e 	sts	0x2E92, r24	; 0x802e92 <gstrHifCxt+0x8>
    2bb8:	90 93 93 2e 	sts	0x2E93, r25	; 0x802e93 <gstrHifCxt+0x9>
    2bbc:	a0 93 94 2e 	sts	0x2E94, r26	; 0x802e94 <gstrHifCxt+0xa>
    2bc0:	b0 93 95 2e 	sts	0x2E95, r27	; 0x802e95 <gstrHifCxt+0xb>
    2bc4:	8c 85       	ldd	r24, Y+12	; 0x0c
    2bc6:	9d 85       	ldd	r25, Y+13	; 0x0d
    2bc8:	ae 85       	ldd	r26, Y+14	; 0x0e
    2bca:	bf 85       	ldd	r27, Y+15	; 0x0f
    2bcc:	ae 01       	movw	r20, r28
    2bce:	48 5f       	subi	r20, 0xF8	; 248
    2bd0:	5f 4f       	sbci	r21, 0xFF	; 255
    2bd2:	04 e0       	ldi	r16, 0x04	; 4
    2bd4:	10 e0       	ldi	r17, 0x00	; 0
    2bd6:	20 e0       	ldi	r18, 0x00	; 0
    2bd8:	30 e0       	ldi	r19, 0x00	; 0
    2bda:	bc 01       	movw	r22, r24
    2bdc:	cd 01       	movw	r24, r26
    2bde:	0e 94 ce 22 	call	0x459c	; 0x459c <nm_read_block>
    2be2:	89 83       	std	Y+1, r24	; 0x01
    2be4:	8a 85       	ldd	r24, Y+10	; 0x0a
    2be6:	9b 85       	ldd	r25, Y+11	; 0x0b
    2be8:	8a 87       	std	Y+10, r24	; 0x0a
    2bea:	9b 87       	std	Y+11, r25	; 0x0b
    2bec:	89 81       	ldd	r24, Y+1	; 0x01
    2bee:	88 23       	and	r24, r24
    2bf0:	21 f0       	breq	.+8      	; 0x2bfa <hif_isr+0x144>
    2bf2:	81 e0       	ldi	r24, 0x01	; 1
    2bf4:	0e 94 14 10 	call	0x2028	; 0x2028 <nm_bsp_interrupt_ctrl>
    2bf8:	e9 c0       	rjmp	.+466    	; 0x2dcc <hif_isr+0x316>
    2bfa:	2a 85       	ldd	r18, Y+10	; 0x0a
    2bfc:	3b 85       	ldd	r19, Y+11	; 0x0b
    2bfe:	8a 81       	ldd	r24, Y+2	; 0x02
    2c00:	9b 81       	ldd	r25, Y+3	; 0x03
    2c02:	28 17       	cp	r18, r24
    2c04:	39 07       	cpc	r19, r25
    2c06:	81 f0       	breq	.+32     	; 0x2c28 <hif_isr+0x172>
    2c08:	8a 85       	ldd	r24, Y+10	; 0x0a
    2c0a:	9b 85       	ldd	r25, Y+11	; 0x0b
    2c0c:	2a 81       	ldd	r18, Y+2	; 0x02
    2c0e:	3b 81       	ldd	r19, Y+3	; 0x03
    2c10:	a9 01       	movw	r20, r18
    2c12:	48 1b       	sub	r20, r24
    2c14:	59 0b       	sbc	r21, r25
    2c16:	ca 01       	movw	r24, r20
    2c18:	05 97       	sbiw	r24, 0x05	; 5
    2c1a:	30 f0       	brcs	.+12     	; 0x2c28 <hif_isr+0x172>
    2c1c:	81 e0       	ldi	r24, 0x01	; 1
    2c1e:	0e 94 14 10 	call	0x2028	; 0x2028 <nm_bsp_interrupt_ctrl>
    2c22:	8a ef       	ldi	r24, 0xFA	; 250
    2c24:	89 83       	std	Y+1, r24	; 0x01
    2c26:	d2 c0       	rjmp	.+420    	; 0x2dcc <hif_isr+0x316>
    2c28:	88 85       	ldd	r24, Y+8	; 0x08
    2c2a:	81 30       	cpi	r24, 0x01	; 1
    2c2c:	e9 f4       	brne	.+58     	; 0x2c68 <hif_isr+0x1b2>
    2c2e:	80 91 96 2e 	lds	r24, 0x2E96	; 0x802e96 <gstrHifCxt+0xc>
    2c32:	90 91 97 2e 	lds	r25, 0x2E97	; 0x802e97 <gstrHifCxt+0xd>
    2c36:	89 2b       	or	r24, r25
    2c38:	09 f4       	brne	.+2      	; 0x2c3c <hif_isr+0x186>
    2c3a:	b7 c0       	rjmp	.+366    	; 0x2daa <hif_isr+0x2f4>
    2c3c:	e0 91 96 2e 	lds	r30, 0x2E96	; 0x802e96 <gstrHifCxt+0xc>
    2c40:	f0 91 97 2e 	lds	r31, 0x2E97	; 0x802e97 <gstrHifCxt+0xd>
    2c44:	8c 85       	ldd	r24, Y+12	; 0x0c
    2c46:	9d 85       	ldd	r25, Y+13	; 0x0d
    2c48:	ae 85       	ldd	r26, Y+14	; 0x0e
    2c4a:	bf 85       	ldd	r27, Y+15	; 0x0f
    2c4c:	08 96       	adiw	r24, 0x08	; 8
    2c4e:	a1 1d       	adc	r26, r1
    2c50:	b1 1d       	adc	r27, r1
    2c52:	2a 85       	ldd	r18, Y+10	; 0x0a
    2c54:	3b 85       	ldd	r19, Y+11	; 0x0b
    2c56:	b9 01       	movw	r22, r18
    2c58:	68 50       	subi	r22, 0x08	; 8
    2c5a:	71 09       	sbc	r23, r1
    2c5c:	19 85       	ldd	r17, Y+9	; 0x09
    2c5e:	9c 01       	movw	r18, r24
    2c60:	ad 01       	movw	r20, r26
    2c62:	81 2f       	mov	r24, r17
    2c64:	09 95       	icall
    2c66:	a1 c0       	rjmp	.+322    	; 0x2daa <hif_isr+0x2f4>
    2c68:	88 85       	ldd	r24, Y+8	; 0x08
    2c6a:	82 30       	cpi	r24, 0x02	; 2
    2c6c:	e9 f4       	brne	.+58     	; 0x2ca8 <hif_isr+0x1f2>
    2c6e:	80 91 98 2e 	lds	r24, 0x2E98	; 0x802e98 <gstrHifCxt+0xe>
    2c72:	90 91 99 2e 	lds	r25, 0x2E99	; 0x802e99 <gstrHifCxt+0xf>
    2c76:	89 2b       	or	r24, r25
    2c78:	09 f4       	brne	.+2      	; 0x2c7c <hif_isr+0x1c6>
    2c7a:	97 c0       	rjmp	.+302    	; 0x2daa <hif_isr+0x2f4>
    2c7c:	e0 91 98 2e 	lds	r30, 0x2E98	; 0x802e98 <gstrHifCxt+0xe>
    2c80:	f0 91 99 2e 	lds	r31, 0x2E99	; 0x802e99 <gstrHifCxt+0xf>
    2c84:	8c 85       	ldd	r24, Y+12	; 0x0c
    2c86:	9d 85       	ldd	r25, Y+13	; 0x0d
    2c88:	ae 85       	ldd	r26, Y+14	; 0x0e
    2c8a:	bf 85       	ldd	r27, Y+15	; 0x0f
    2c8c:	08 96       	adiw	r24, 0x08	; 8
    2c8e:	a1 1d       	adc	r26, r1
    2c90:	b1 1d       	adc	r27, r1
    2c92:	2a 85       	ldd	r18, Y+10	; 0x0a
    2c94:	3b 85       	ldd	r19, Y+11	; 0x0b
    2c96:	b9 01       	movw	r22, r18
    2c98:	68 50       	subi	r22, 0x08	; 8
    2c9a:	71 09       	sbc	r23, r1
    2c9c:	19 85       	ldd	r17, Y+9	; 0x09
    2c9e:	9c 01       	movw	r18, r24
    2ca0:	ad 01       	movw	r20, r26
    2ca2:	81 2f       	mov	r24, r17
    2ca4:	09 95       	icall
    2ca6:	81 c0       	rjmp	.+258    	; 0x2daa <hif_isr+0x2f4>
    2ca8:	88 85       	ldd	r24, Y+8	; 0x08
    2caa:	84 30       	cpi	r24, 0x04	; 4
    2cac:	e9 f4       	brne	.+58     	; 0x2ce8 <hif_isr+0x232>
    2cae:	80 91 9a 2e 	lds	r24, 0x2E9A	; 0x802e9a <gstrHifCxt+0x10>
    2cb2:	90 91 9b 2e 	lds	r25, 0x2E9B	; 0x802e9b <gstrHifCxt+0x11>
    2cb6:	89 2b       	or	r24, r25
    2cb8:	09 f4       	brne	.+2      	; 0x2cbc <hif_isr+0x206>
    2cba:	77 c0       	rjmp	.+238    	; 0x2daa <hif_isr+0x2f4>
    2cbc:	e0 91 9a 2e 	lds	r30, 0x2E9A	; 0x802e9a <gstrHifCxt+0x10>
    2cc0:	f0 91 9b 2e 	lds	r31, 0x2E9B	; 0x802e9b <gstrHifCxt+0x11>
    2cc4:	8c 85       	ldd	r24, Y+12	; 0x0c
    2cc6:	9d 85       	ldd	r25, Y+13	; 0x0d
    2cc8:	ae 85       	ldd	r26, Y+14	; 0x0e
    2cca:	bf 85       	ldd	r27, Y+15	; 0x0f
    2ccc:	08 96       	adiw	r24, 0x08	; 8
    2cce:	a1 1d       	adc	r26, r1
    2cd0:	b1 1d       	adc	r27, r1
    2cd2:	2a 85       	ldd	r18, Y+10	; 0x0a
    2cd4:	3b 85       	ldd	r19, Y+11	; 0x0b
    2cd6:	b9 01       	movw	r22, r18
    2cd8:	68 50       	subi	r22, 0x08	; 8
    2cda:	71 09       	sbc	r23, r1
    2cdc:	19 85       	ldd	r17, Y+9	; 0x09
    2cde:	9c 01       	movw	r18, r24
    2ce0:	ad 01       	movw	r20, r26
    2ce2:	81 2f       	mov	r24, r17
    2ce4:	09 95       	icall
    2ce6:	61 c0       	rjmp	.+194    	; 0x2daa <hif_isr+0x2f4>
    2ce8:	88 85       	ldd	r24, Y+8	; 0x08
    2cea:	86 30       	cpi	r24, 0x06	; 6
    2cec:	e9 f4       	brne	.+58     	; 0x2d28 <hif_isr+0x272>
    2cee:	80 91 a0 2e 	lds	r24, 0x2EA0	; 0x802ea0 <gstrHifCxt+0x16>
    2cf2:	90 91 a1 2e 	lds	r25, 0x2EA1	; 0x802ea1 <gstrHifCxt+0x17>
    2cf6:	89 2b       	or	r24, r25
    2cf8:	09 f4       	brne	.+2      	; 0x2cfc <hif_isr+0x246>
    2cfa:	57 c0       	rjmp	.+174    	; 0x2daa <hif_isr+0x2f4>
    2cfc:	e0 91 a0 2e 	lds	r30, 0x2EA0	; 0x802ea0 <gstrHifCxt+0x16>
    2d00:	f0 91 a1 2e 	lds	r31, 0x2EA1	; 0x802ea1 <gstrHifCxt+0x17>
    2d04:	8c 85       	ldd	r24, Y+12	; 0x0c
    2d06:	9d 85       	ldd	r25, Y+13	; 0x0d
    2d08:	ae 85       	ldd	r26, Y+14	; 0x0e
    2d0a:	bf 85       	ldd	r27, Y+15	; 0x0f
    2d0c:	08 96       	adiw	r24, 0x08	; 8
    2d0e:	a1 1d       	adc	r26, r1
    2d10:	b1 1d       	adc	r27, r1
    2d12:	2a 85       	ldd	r18, Y+10	; 0x0a
    2d14:	3b 85       	ldd	r19, Y+11	; 0x0b
    2d16:	b9 01       	movw	r22, r18
    2d18:	68 50       	subi	r22, 0x08	; 8
    2d1a:	71 09       	sbc	r23, r1
    2d1c:	19 85       	ldd	r17, Y+9	; 0x09
    2d1e:	9c 01       	movw	r18, r24
    2d20:	ad 01       	movw	r20, r26
    2d22:	81 2f       	mov	r24, r17
    2d24:	09 95       	icall
    2d26:	41 c0       	rjmp	.+130    	; 0x2daa <hif_isr+0x2f4>
    2d28:	88 85       	ldd	r24, Y+8	; 0x08
    2d2a:	87 30       	cpi	r24, 0x07	; 7
    2d2c:	e1 f4       	brne	.+56     	; 0x2d66 <hif_isr+0x2b0>
    2d2e:	80 91 9c 2e 	lds	r24, 0x2E9C	; 0x802e9c <gstrHifCxt+0x12>
    2d32:	90 91 9d 2e 	lds	r25, 0x2E9D	; 0x802e9d <gstrHifCxt+0x13>
    2d36:	89 2b       	or	r24, r25
    2d38:	c1 f1       	breq	.+112    	; 0x2daa <hif_isr+0x2f4>
    2d3a:	e0 91 9c 2e 	lds	r30, 0x2E9C	; 0x802e9c <gstrHifCxt+0x12>
    2d3e:	f0 91 9d 2e 	lds	r31, 0x2E9D	; 0x802e9d <gstrHifCxt+0x13>
    2d42:	8c 85       	ldd	r24, Y+12	; 0x0c
    2d44:	9d 85       	ldd	r25, Y+13	; 0x0d
    2d46:	ae 85       	ldd	r26, Y+14	; 0x0e
    2d48:	bf 85       	ldd	r27, Y+15	; 0x0f
    2d4a:	08 96       	adiw	r24, 0x08	; 8
    2d4c:	a1 1d       	adc	r26, r1
    2d4e:	b1 1d       	adc	r27, r1
    2d50:	2a 85       	ldd	r18, Y+10	; 0x0a
    2d52:	3b 85       	ldd	r19, Y+11	; 0x0b
    2d54:	b9 01       	movw	r22, r18
    2d56:	68 50       	subi	r22, 0x08	; 8
    2d58:	71 09       	sbc	r23, r1
    2d5a:	19 85       	ldd	r17, Y+9	; 0x09
    2d5c:	9c 01       	movw	r18, r24
    2d5e:	ad 01       	movw	r20, r26
    2d60:	81 2f       	mov	r24, r17
    2d62:	09 95       	icall
    2d64:	22 c0       	rjmp	.+68     	; 0x2daa <hif_isr+0x2f4>
    2d66:	88 85       	ldd	r24, Y+8	; 0x08
    2d68:	85 30       	cpi	r24, 0x05	; 5
    2d6a:	e1 f4       	brne	.+56     	; 0x2da4 <hif_isr+0x2ee>
    2d6c:	80 91 a2 2e 	lds	r24, 0x2EA2	; 0x802ea2 <gstrHifCxt+0x18>
    2d70:	90 91 a3 2e 	lds	r25, 0x2EA3	; 0x802ea3 <gstrHifCxt+0x19>
    2d74:	89 2b       	or	r24, r25
    2d76:	c9 f0       	breq	.+50     	; 0x2daa <hif_isr+0x2f4>
    2d78:	e0 91 a2 2e 	lds	r30, 0x2EA2	; 0x802ea2 <gstrHifCxt+0x18>
    2d7c:	f0 91 a3 2e 	lds	r31, 0x2EA3	; 0x802ea3 <gstrHifCxt+0x19>
    2d80:	8c 85       	ldd	r24, Y+12	; 0x0c
    2d82:	9d 85       	ldd	r25, Y+13	; 0x0d
    2d84:	ae 85       	ldd	r26, Y+14	; 0x0e
    2d86:	bf 85       	ldd	r27, Y+15	; 0x0f
    2d88:	08 96       	adiw	r24, 0x08	; 8
    2d8a:	a1 1d       	adc	r26, r1
    2d8c:	b1 1d       	adc	r27, r1
    2d8e:	2a 85       	ldd	r18, Y+10	; 0x0a
    2d90:	3b 85       	ldd	r19, Y+11	; 0x0b
    2d92:	b9 01       	movw	r22, r18
    2d94:	68 50       	subi	r22, 0x08	; 8
    2d96:	71 09       	sbc	r23, r1
    2d98:	19 85       	ldd	r17, Y+9	; 0x09
    2d9a:	9c 01       	movw	r18, r24
    2d9c:	ad 01       	movw	r20, r26
    2d9e:	81 2f       	mov	r24, r17
    2da0:	09 95       	icall
    2da2:	03 c0       	rjmp	.+6      	; 0x2daa <hif_isr+0x2f4>
    2da4:	8a ef       	ldi	r24, 0xFA	; 250
    2da6:	89 83       	std	Y+1, r24	; 0x01
    2da8:	11 c0       	rjmp	.+34     	; 0x2dcc <hif_isr+0x316>
    2daa:	80 91 8c 2e 	lds	r24, 0x2E8C	; 0x802e8c <gstrHifCxt+0x2>
    2dae:	88 23       	and	r24, r24
    2db0:	69 f0       	breq	.+26     	; 0x2dcc <hif_isr+0x316>
    2db2:	0e 94 a0 12 	call	0x2540	; 0x2540 <hif_set_rx_done>
    2db6:	89 83       	std	Y+1, r24	; 0x01
    2db8:	09 c0       	rjmp	.+18     	; 0x2dcc <hif_isr+0x316>
    2dba:	8e ef       	ldi	r24, 0xFE	; 254
    2dbc:	89 83       	std	Y+1, r24	; 0x01
    2dbe:	06 c0       	rjmp	.+12     	; 0x2dcc <hif_isr+0x316>
    2dc0:	84 ef       	ldi	r24, 0xF4	; 244
    2dc2:	89 83       	std	Y+1, r24	; 0x01
    2dc4:	03 c0       	rjmp	.+6      	; 0x2dcc <hif_isr+0x316>
    2dc6:	00 00       	nop
    2dc8:	01 c0       	rjmp	.+2      	; 0x2dcc <hif_isr+0x316>
    2dca:	00 00       	nop
    2dcc:	89 81       	ldd	r24, Y+1	; 0x01
    2dce:	2f 96       	adiw	r28, 0x0f	; 15
    2dd0:	cd bf       	out	0x3d, r28	; 61
    2dd2:	de bf       	out	0x3e, r29	; 62
    2dd4:	df 91       	pop	r29
    2dd6:	cf 91       	pop	r28
    2dd8:	1f 91       	pop	r17
    2dda:	0f 91       	pop	r16
    2ddc:	08 95       	ret

00002dde <hif_handle_isr>:
    2dde:	cf 93       	push	r28
    2de0:	df 93       	push	r29
    2de2:	1f 92       	push	r1
    2de4:	cd b7       	in	r28, 0x3d	; 61
    2de6:	de b7       	in	r29, 0x3e	; 62
    2de8:	19 82       	std	Y+1, r1	; 0x01
    2dea:	0b c0       	rjmp	.+22     	; 0x2e02 <hif_handle_isr+0x24>
    2dec:	80 91 8d 2e 	lds	r24, 0x2E8D	; 0x802e8d <gstrHifCxt+0x3>
    2df0:	81 50       	subi	r24, 0x01	; 1
    2df2:	80 93 8d 2e 	sts	0x2E8D, r24	; 0x802e8d <gstrHifCxt+0x3>
    2df6:	0e 94 5b 15 	call	0x2ab6	; 0x2ab6 <hif_isr>
    2dfa:	89 83       	std	Y+1, r24	; 0x01
    2dfc:	89 81       	ldd	r24, Y+1	; 0x01
    2dfe:	88 23       	and	r24, r24
    2e00:	d1 f7       	brne	.-12     	; 0x2df6 <hif_handle_isr+0x18>
    2e02:	80 91 8d 2e 	lds	r24, 0x2E8D	; 0x802e8d <gstrHifCxt+0x3>
    2e06:	88 23       	and	r24, r24
    2e08:	89 f7       	brne	.-30     	; 0x2dec <hif_handle_isr+0xe>
    2e0a:	89 81       	ldd	r24, Y+1	; 0x01
    2e0c:	0f 90       	pop	r0
    2e0e:	df 91       	pop	r29
    2e10:	cf 91       	pop	r28
    2e12:	08 95       	ret

00002e14 <hif_receive>:
    2e14:	ef 92       	push	r14
    2e16:	ff 92       	push	r15
    2e18:	0f 93       	push	r16
    2e1a:	1f 93       	push	r17
    2e1c:	cf 93       	push	r28
    2e1e:	df 93       	push	r29
    2e20:	cd b7       	in	r28, 0x3d	; 61
    2e22:	de b7       	in	r29, 0x3e	; 62
    2e24:	2a 97       	sbiw	r28, 0x0a	; 10
    2e26:	cd bf       	out	0x3d, r28	; 61
    2e28:	de bf       	out	0x3e, r29	; 62
    2e2a:	6a 83       	std	Y+2, r22	; 0x02
    2e2c:	7b 83       	std	Y+3, r23	; 0x03
    2e2e:	8c 83       	std	Y+4, r24	; 0x04
    2e30:	9d 83       	std	Y+5, r25	; 0x05
    2e32:	4e 83       	std	Y+6, r20	; 0x06
    2e34:	5f 83       	std	Y+7, r21	; 0x07
    2e36:	28 87       	std	Y+8, r18	; 0x08
    2e38:	39 87       	std	Y+9, r19	; 0x09
    2e3a:	0a 87       	std	Y+10, r16	; 0x0a
    2e3c:	19 82       	std	Y+1, r1	; 0x01
    2e3e:	8a 81       	ldd	r24, Y+2	; 0x02
    2e40:	9b 81       	ldd	r25, Y+3	; 0x03
    2e42:	ac 81       	ldd	r26, Y+4	; 0x04
    2e44:	bd 81       	ldd	r27, Y+5	; 0x05
    2e46:	89 2b       	or	r24, r25
    2e48:	8a 2b       	or	r24, r26
    2e4a:	8b 2b       	or	r24, r27
    2e4c:	41 f0       	breq	.+16     	; 0x2e5e <hif_receive+0x4a>
    2e4e:	8e 81       	ldd	r24, Y+6	; 0x06
    2e50:	9f 81       	ldd	r25, Y+7	; 0x07
    2e52:	89 2b       	or	r24, r25
    2e54:	21 f0       	breq	.+8      	; 0x2e5e <hif_receive+0x4a>
    2e56:	88 85       	ldd	r24, Y+8	; 0x08
    2e58:	99 85       	ldd	r25, Y+9	; 0x09
    2e5a:	89 2b       	or	r24, r25
    2e5c:	51 f4       	brne	.+20     	; 0x2e72 <hif_receive+0x5e>
    2e5e:	8a 85       	ldd	r24, Y+10	; 0x0a
    2e60:	88 23       	and	r24, r24
    2e62:	21 f0       	breq	.+8      	; 0x2e6c <hif_receive+0x58>
    2e64:	0e 94 a0 12 	call	0x2540	; 0x2540 <hif_set_rx_done>
    2e68:	89 83       	std	Y+1, r24	; 0x01
    2e6a:	96 c0       	rjmp	.+300    	; 0x2f98 <hif_receive+0x184>
    2e6c:	84 ef       	ldi	r24, 0xF4	; 244
    2e6e:	89 83       	std	Y+1, r24	; 0x01
    2e70:	93 c0       	rjmp	.+294    	; 0x2f98 <hif_receive+0x184>
    2e72:	88 85       	ldd	r24, Y+8	; 0x08
    2e74:	99 85       	ldd	r25, Y+9	; 0x09
    2e76:	9c 01       	movw	r18, r24
    2e78:	40 e0       	ldi	r20, 0x00	; 0
    2e7a:	50 e0       	ldi	r21, 0x00	; 0
    2e7c:	80 91 92 2e 	lds	r24, 0x2E92	; 0x802e92 <gstrHifCxt+0x8>
    2e80:	90 91 93 2e 	lds	r25, 0x2E93	; 0x802e93 <gstrHifCxt+0x9>
    2e84:	a0 91 94 2e 	lds	r26, 0x2E94	; 0x802e94 <gstrHifCxt+0xa>
    2e88:	b0 91 95 2e 	lds	r27, 0x2E95	; 0x802e95 <gstrHifCxt+0xb>
    2e8c:	82 17       	cp	r24, r18
    2e8e:	93 07       	cpc	r25, r19
    2e90:	a4 07       	cpc	r26, r20
    2e92:	b5 07       	cpc	r27, r21
    2e94:	18 f4       	brcc	.+6      	; 0x2e9c <hif_receive+0x88>
    2e96:	84 ef       	ldi	r24, 0xF4	; 244
    2e98:	89 83       	std	Y+1, r24	; 0x01
    2e9a:	7e c0       	rjmp	.+252    	; 0x2f98 <hif_receive+0x184>
    2e9c:	20 91 8e 2e 	lds	r18, 0x2E8E	; 0x802e8e <gstrHifCxt+0x4>
    2ea0:	30 91 8f 2e 	lds	r19, 0x2E8F	; 0x802e8f <gstrHifCxt+0x5>
    2ea4:	40 91 90 2e 	lds	r20, 0x2E90	; 0x802e90 <gstrHifCxt+0x6>
    2ea8:	50 91 91 2e 	lds	r21, 0x2E91	; 0x802e91 <gstrHifCxt+0x7>
    2eac:	8a 81       	ldd	r24, Y+2	; 0x02
    2eae:	9b 81       	ldd	r25, Y+3	; 0x03
    2eb0:	ac 81       	ldd	r26, Y+4	; 0x04
    2eb2:	bd 81       	ldd	r27, Y+5	; 0x05
    2eb4:	82 17       	cp	r24, r18
    2eb6:	93 07       	cpc	r25, r19
    2eb8:	a4 07       	cpc	r26, r20
    2eba:	b5 07       	cpc	r27, r21
    2ebc:	30 f1       	brcs	.+76     	; 0x2f0a <hif_receive+0xf6>
    2ebe:	88 85       	ldd	r24, Y+8	; 0x08
    2ec0:	99 85       	ldd	r25, Y+9	; 0x09
    2ec2:	9c 01       	movw	r18, r24
    2ec4:	40 e0       	ldi	r20, 0x00	; 0
    2ec6:	50 e0       	ldi	r21, 0x00	; 0
    2ec8:	8a 81       	ldd	r24, Y+2	; 0x02
    2eca:	9b 81       	ldd	r25, Y+3	; 0x03
    2ecc:	ac 81       	ldd	r26, Y+4	; 0x04
    2ece:	bd 81       	ldd	r27, Y+5	; 0x05
    2ed0:	28 0f       	add	r18, r24
    2ed2:	39 1f       	adc	r19, r25
    2ed4:	4a 1f       	adc	r20, r26
    2ed6:	5b 1f       	adc	r21, r27
    2ed8:	e0 90 8e 2e 	lds	r14, 0x2E8E	; 0x802e8e <gstrHifCxt+0x4>
    2edc:	f0 90 8f 2e 	lds	r15, 0x2E8F	; 0x802e8f <gstrHifCxt+0x5>
    2ee0:	00 91 90 2e 	lds	r16, 0x2E90	; 0x802e90 <gstrHifCxt+0x6>
    2ee4:	10 91 91 2e 	lds	r17, 0x2E91	; 0x802e91 <gstrHifCxt+0x7>
    2ee8:	80 91 92 2e 	lds	r24, 0x2E92	; 0x802e92 <gstrHifCxt+0x8>
    2eec:	90 91 93 2e 	lds	r25, 0x2E93	; 0x802e93 <gstrHifCxt+0x9>
    2ef0:	a0 91 94 2e 	lds	r26, 0x2E94	; 0x802e94 <gstrHifCxt+0xa>
    2ef4:	b0 91 95 2e 	lds	r27, 0x2E95	; 0x802e95 <gstrHifCxt+0xb>
    2ef8:	8e 0d       	add	r24, r14
    2efa:	9f 1d       	adc	r25, r15
    2efc:	a0 1f       	adc	r26, r16
    2efe:	b1 1f       	adc	r27, r17
    2f00:	82 17       	cp	r24, r18
    2f02:	93 07       	cpc	r25, r19
    2f04:	a4 07       	cpc	r26, r20
    2f06:	b5 07       	cpc	r27, r21
    2f08:	18 f4       	brcc	.+6      	; 0x2f10 <hif_receive+0xfc>
    2f0a:	84 ef       	ldi	r24, 0xF4	; 244
    2f0c:	89 83       	std	Y+1, r24	; 0x01
    2f0e:	44 c0       	rjmp	.+136    	; 0x2f98 <hif_receive+0x184>
    2f10:	88 85       	ldd	r24, Y+8	; 0x08
    2f12:	99 85       	ldd	r25, Y+9	; 0x09
    2f14:	9c 01       	movw	r18, r24
    2f16:	40 e0       	ldi	r20, 0x00	; 0
    2f18:	50 e0       	ldi	r21, 0x00	; 0
    2f1a:	6e 81       	ldd	r22, Y+6	; 0x06
    2f1c:	7f 81       	ldd	r23, Y+7	; 0x07
    2f1e:	8a 81       	ldd	r24, Y+2	; 0x02
    2f20:	9b 81       	ldd	r25, Y+3	; 0x03
    2f22:	ac 81       	ldd	r26, Y+4	; 0x04
    2f24:	bd 81       	ldd	r27, Y+5	; 0x05
    2f26:	89 01       	movw	r16, r18
    2f28:	9a 01       	movw	r18, r20
    2f2a:	ab 01       	movw	r20, r22
    2f2c:	bc 01       	movw	r22, r24
    2f2e:	cd 01       	movw	r24, r26
    2f30:	0e 94 ce 22 	call	0x459c	; 0x459c <nm_read_block>
    2f34:	89 83       	std	Y+1, r24	; 0x01
    2f36:	89 81       	ldd	r24, Y+1	; 0x01
    2f38:	88 23       	and	r24, r24
    2f3a:	69 f5       	brne	.+90     	; 0x2f96 <hif_receive+0x182>
    2f3c:	20 91 8e 2e 	lds	r18, 0x2E8E	; 0x802e8e <gstrHifCxt+0x4>
    2f40:	30 91 8f 2e 	lds	r19, 0x2E8F	; 0x802e8f <gstrHifCxt+0x5>
    2f44:	40 91 90 2e 	lds	r20, 0x2E90	; 0x802e90 <gstrHifCxt+0x6>
    2f48:	50 91 91 2e 	lds	r21, 0x2E91	; 0x802e91 <gstrHifCxt+0x7>
    2f4c:	80 91 92 2e 	lds	r24, 0x2E92	; 0x802e92 <gstrHifCxt+0x8>
    2f50:	90 91 93 2e 	lds	r25, 0x2E93	; 0x802e93 <gstrHifCxt+0x9>
    2f54:	a0 91 94 2e 	lds	r26, 0x2E94	; 0x802e94 <gstrHifCxt+0xa>
    2f58:	b0 91 95 2e 	lds	r27, 0x2E95	; 0x802e95 <gstrHifCxt+0xb>
    2f5c:	28 0f       	add	r18, r24
    2f5e:	39 1f       	adc	r19, r25
    2f60:	4a 1f       	adc	r20, r26
    2f62:	5b 1f       	adc	r21, r27
    2f64:	88 85       	ldd	r24, Y+8	; 0x08
    2f66:	99 85       	ldd	r25, Y+9	; 0x09
    2f68:	7c 01       	movw	r14, r24
    2f6a:	00 e0       	ldi	r16, 0x00	; 0
    2f6c:	10 e0       	ldi	r17, 0x00	; 0
    2f6e:	8a 81       	ldd	r24, Y+2	; 0x02
    2f70:	9b 81       	ldd	r25, Y+3	; 0x03
    2f72:	ac 81       	ldd	r26, Y+4	; 0x04
    2f74:	bd 81       	ldd	r27, Y+5	; 0x05
    2f76:	8e 0d       	add	r24, r14
    2f78:	9f 1d       	adc	r25, r15
    2f7a:	a0 1f       	adc	r26, r16
    2f7c:	b1 1f       	adc	r27, r17
    2f7e:	28 17       	cp	r18, r24
    2f80:	39 07       	cpc	r19, r25
    2f82:	4a 07       	cpc	r20, r26
    2f84:	5b 07       	cpc	r21, r27
    2f86:	19 f0       	breq	.+6      	; 0x2f8e <hif_receive+0x17a>
    2f88:	8a 85       	ldd	r24, Y+10	; 0x0a
    2f8a:	88 23       	and	r24, r24
    2f8c:	29 f0       	breq	.+10     	; 0x2f98 <hif_receive+0x184>
    2f8e:	0e 94 a0 12 	call	0x2540	; 0x2540 <hif_set_rx_done>
    2f92:	89 83       	std	Y+1, r24	; 0x01
    2f94:	01 c0       	rjmp	.+2      	; 0x2f98 <hif_receive+0x184>
    2f96:	00 00       	nop
    2f98:	89 81       	ldd	r24, Y+1	; 0x01
    2f9a:	2a 96       	adiw	r28, 0x0a	; 10
    2f9c:	cd bf       	out	0x3d, r28	; 61
    2f9e:	de bf       	out	0x3e, r29	; 62
    2fa0:	df 91       	pop	r29
    2fa2:	cf 91       	pop	r28
    2fa4:	1f 91       	pop	r17
    2fa6:	0f 91       	pop	r16
    2fa8:	ff 90       	pop	r15
    2faa:	ef 90       	pop	r14
    2fac:	08 95       	ret

00002fae <hif_register_cb>:
    2fae:	cf 93       	push	r28
    2fb0:	df 93       	push	r29
    2fb2:	00 d0       	rcall	.+0      	; 0x2fb4 <hif_register_cb+0x6>
    2fb4:	00 d0       	rcall	.+0      	; 0x2fb6 <hif_register_cb+0x8>
    2fb6:	cd b7       	in	r28, 0x3d	; 61
    2fb8:	de b7       	in	r29, 0x3e	; 62
    2fba:	8a 83       	std	Y+2, r24	; 0x02
    2fbc:	6b 83       	std	Y+3, r22	; 0x03
    2fbe:	7c 83       	std	Y+4, r23	; 0x04
    2fc0:	19 82       	std	Y+1, r1	; 0x01
    2fc2:	8a 81       	ldd	r24, Y+2	; 0x02
    2fc4:	88 2f       	mov	r24, r24
    2fc6:	90 e0       	ldi	r25, 0x00	; 0
    2fc8:	09 2e       	mov	r0, r25
    2fca:	00 0c       	add	r0, r0
    2fcc:	aa 0b       	sbc	r26, r26
    2fce:	bb 0b       	sbc	r27, r27
    2fd0:	41 e0       	ldi	r20, 0x01	; 1
    2fd2:	50 e0       	ldi	r21, 0x00	; 0
    2fd4:	26 e0       	ldi	r18, 0x06	; 6
    2fd6:	30 e0       	ldi	r19, 0x00	; 0
    2fd8:	84 1b       	sub	r24, r20
    2fda:	95 0b       	sbc	r25, r21
    2fdc:	28 17       	cp	r18, r24
    2fde:	39 07       	cpc	r19, r25
    2fe0:	b0 f1       	brcs	.+108    	; 0x304e <hif_register_cb+0xa0>
    2fe2:	80 5b       	subi	r24, 0xB0	; 176
    2fe4:	9f 4f       	sbci	r25, 0xFF	; 255
    2fe6:	fc 01       	movw	r30, r24
    2fe8:	0c 94 10 39 	jmp	0x7220	; 0x7220 <__tablejump2__>
    2fec:	8b 81       	ldd	r24, Y+3	; 0x03
    2fee:	9c 81       	ldd	r25, Y+4	; 0x04
    2ff0:	80 93 98 2e 	sts	0x2E98, r24	; 0x802e98 <gstrHifCxt+0xe>
    2ff4:	90 93 99 2e 	sts	0x2E99, r25	; 0x802e99 <gstrHifCxt+0xf>
    2ff8:	2d c0       	rjmp	.+90     	; 0x3054 <hif_register_cb+0xa6>
    2ffa:	8b 81       	ldd	r24, Y+3	; 0x03
    2ffc:	9c 81       	ldd	r25, Y+4	; 0x04
    2ffe:	80 93 96 2e 	sts	0x2E96, r24	; 0x802e96 <gstrHifCxt+0xc>
    3002:	90 93 97 2e 	sts	0x2E97, r25	; 0x802e97 <gstrHifCxt+0xd>
    3006:	26 c0       	rjmp	.+76     	; 0x3054 <hif_register_cb+0xa6>
    3008:	8b 81       	ldd	r24, Y+3	; 0x03
    300a:	9c 81       	ldd	r25, Y+4	; 0x04
    300c:	80 93 9a 2e 	sts	0x2E9A, r24	; 0x802e9a <gstrHifCxt+0x10>
    3010:	90 93 9b 2e 	sts	0x2E9B, r25	; 0x802e9b <gstrHifCxt+0x11>
    3014:	1f c0       	rjmp	.+62     	; 0x3054 <hif_register_cb+0xa6>
    3016:	8b 81       	ldd	r24, Y+3	; 0x03
    3018:	9c 81       	ldd	r25, Y+4	; 0x04
    301a:	80 93 9e 2e 	sts	0x2E9E, r24	; 0x802e9e <gstrHifCxt+0x14>
    301e:	90 93 9f 2e 	sts	0x2E9F, r25	; 0x802e9f <gstrHifCxt+0x15>
    3022:	18 c0       	rjmp	.+48     	; 0x3054 <hif_register_cb+0xa6>
    3024:	8b 81       	ldd	r24, Y+3	; 0x03
    3026:	9c 81       	ldd	r25, Y+4	; 0x04
    3028:	80 93 a0 2e 	sts	0x2EA0, r24	; 0x802ea0 <gstrHifCxt+0x16>
    302c:	90 93 a1 2e 	sts	0x2EA1, r25	; 0x802ea1 <gstrHifCxt+0x17>
    3030:	11 c0       	rjmp	.+34     	; 0x3054 <hif_register_cb+0xa6>
    3032:	8b 81       	ldd	r24, Y+3	; 0x03
    3034:	9c 81       	ldd	r25, Y+4	; 0x04
    3036:	80 93 9c 2e 	sts	0x2E9C, r24	; 0x802e9c <gstrHifCxt+0x12>
    303a:	90 93 9d 2e 	sts	0x2E9D, r25	; 0x802e9d <gstrHifCxt+0x13>
    303e:	0a c0       	rjmp	.+20     	; 0x3054 <hif_register_cb+0xa6>
    3040:	8b 81       	ldd	r24, Y+3	; 0x03
    3042:	9c 81       	ldd	r25, Y+4	; 0x04
    3044:	80 93 a2 2e 	sts	0x2EA2, r24	; 0x802ea2 <gstrHifCxt+0x18>
    3048:	90 93 a3 2e 	sts	0x2EA3, r25	; 0x802ea3 <gstrHifCxt+0x19>
    304c:	03 c0       	rjmp	.+6      	; 0x3054 <hif_register_cb+0xa6>
    304e:	84 ef       	ldi	r24, 0xF4	; 244
    3050:	89 83       	std	Y+1, r24	; 0x01
    3052:	00 00       	nop
    3054:	89 81       	ldd	r24, Y+1	; 0x01
    3056:	24 96       	adiw	r28, 0x04	; 4
    3058:	cd bf       	out	0x3d, r28	; 61
    305a:	de bf       	out	0x3e, r29	; 62
    305c:	df 91       	pop	r29
    305e:	cf 91       	pop	r28
    3060:	08 95       	ret

00003062 <m2m_wifi_cb>:
    3062:	0f 93       	push	r16
    3064:	cf 93       	push	r28
    3066:	df 93       	push	r29
    3068:	cd b7       	in	r28, 0x3d	; 61
    306a:	de b7       	in	r29, 0x3e	; 62
    306c:	c5 5a       	subi	r28, 0xA5	; 165
    306e:	d1 09       	sbc	r29, r1
    3070:	cd bf       	out	0x3d, r28	; 61
    3072:	de bf       	out	0x3e, r29	; 62
    3074:	fe 01       	movw	r30, r28
    3076:	e1 56       	subi	r30, 0x61	; 97
    3078:	ff 4f       	sbci	r31, 0xFF	; 255
    307a:	80 83       	st	Z, r24
    307c:	ce 01       	movw	r24, r28
    307e:	80 56       	subi	r24, 0x60	; 96
    3080:	9f 4f       	sbci	r25, 0xFF	; 255
    3082:	fc 01       	movw	r30, r24
    3084:	60 83       	st	Z, r22
    3086:	71 83       	std	Z+1, r23	; 0x01
    3088:	ce 01       	movw	r24, r28
    308a:	8e 55       	subi	r24, 0x5E	; 94
    308c:	9f 4f       	sbci	r25, 0xFF	; 255
    308e:	fc 01       	movw	r30, r24
    3090:	20 83       	st	Z, r18
    3092:	31 83       	std	Z+1, r19	; 0x01
    3094:	42 83       	std	Z+2, r20	; 0x02
    3096:	53 83       	std	Z+3, r21	; 0x03
    3098:	ce 01       	movw	r24, r28
    309a:	81 56       	subi	r24, 0x61	; 97
    309c:	9f 4f       	sbci	r25, 0xFF	; 255
    309e:	fc 01       	movw	r30, r24
    30a0:	80 81       	ld	r24, Z
    30a2:	8c 32       	cpi	r24, 0x2C	; 44
    30a4:	39 f5       	brne	.+78     	; 0x30f4 <m2m_wifi_cb+0x92>
    30a6:	ae 01       	movw	r20, r28
    30a8:	47 5f       	subi	r20, 0xF7	; 247
    30aa:	5f 4f       	sbci	r21, 0xFF	; 255
    30ac:	ce 01       	movw	r24, r28
    30ae:	8e 55       	subi	r24, 0x5E	; 94
    30b0:	9f 4f       	sbci	r25, 0xFF	; 255
    30b2:	fc 01       	movw	r30, r24
    30b4:	80 81       	ld	r24, Z
    30b6:	91 81       	ldd	r25, Z+1	; 0x01
    30b8:	a2 81       	ldd	r26, Z+2	; 0x02
    30ba:	b3 81       	ldd	r27, Z+3	; 0x03
    30bc:	00 e0       	ldi	r16, 0x00	; 0
    30be:	24 e0       	ldi	r18, 0x04	; 4
    30c0:	30 e0       	ldi	r19, 0x00	; 0
    30c2:	bc 01       	movw	r22, r24
    30c4:	cd 01       	movw	r24, r26
    30c6:	0e 94 0a 17 	call	0x2e14	; 0x2e14 <hif_receive>
    30ca:	88 23       	and	r24, r24
    30cc:	09 f0       	breq	.+2      	; 0x30d0 <m2m_wifi_cb+0x6e>
    30ce:	62 c2       	rjmp	.+1220   	; 0x3594 <m2m_wifi_cb+0x532>
    30d0:	80 91 0b 2e 	lds	r24, 0x2E0B	; 0x802e0b <gpfAppWifiCb>
    30d4:	90 91 0c 2e 	lds	r25, 0x2E0C	; 0x802e0c <gpfAppWifiCb+0x1>
    30d8:	89 2b       	or	r24, r25
    30da:	09 f4       	brne	.+2      	; 0x30de <m2m_wifi_cb+0x7c>
    30dc:	5b c2       	rjmp	.+1206   	; 0x3594 <m2m_wifi_cb+0x532>
    30de:	20 91 0b 2e 	lds	r18, 0x2E0B	; 0x802e0b <gpfAppWifiCb>
    30e2:	30 91 0c 2e 	lds	r19, 0x2E0C	; 0x802e0c <gpfAppWifiCb+0x1>
    30e6:	ce 01       	movw	r24, r28
    30e8:	09 96       	adiw	r24, 0x09	; 9
    30ea:	bc 01       	movw	r22, r24
    30ec:	8c e2       	ldi	r24, 0x2C	; 44
    30ee:	f9 01       	movw	r30, r18
    30f0:	09 95       	icall
    30f2:	50 c2       	rjmp	.+1184   	; 0x3594 <m2m_wifi_cb+0x532>
    30f4:	ce 01       	movw	r24, r28
    30f6:	81 56       	subi	r24, 0x61	; 97
    30f8:	9f 4f       	sbci	r25, 0xFF	; 255
    30fa:	fc 01       	movw	r30, r24
    30fc:	80 81       	ld	r24, Z
    30fe:	8b 31       	cpi	r24, 0x1B	; 27
    3100:	39 f5       	brne	.+78     	; 0x3150 <m2m_wifi_cb+0xee>
    3102:	ae 01       	movw	r20, r28
    3104:	43 5f       	subi	r20, 0xF3	; 243
    3106:	5f 4f       	sbci	r21, 0xFF	; 255
    3108:	ce 01       	movw	r24, r28
    310a:	8e 55       	subi	r24, 0x5E	; 94
    310c:	9f 4f       	sbci	r25, 0xFF	; 255
    310e:	fc 01       	movw	r30, r24
    3110:	80 81       	ld	r24, Z
    3112:	91 81       	ldd	r25, Z+1	; 0x01
    3114:	a2 81       	ldd	r26, Z+2	; 0x02
    3116:	b3 81       	ldd	r27, Z+3	; 0x03
    3118:	00 e0       	ldi	r16, 0x00	; 0
    311a:	28 e0       	ldi	r18, 0x08	; 8
    311c:	30 e0       	ldi	r19, 0x00	; 0
    311e:	bc 01       	movw	r22, r24
    3120:	cd 01       	movw	r24, r26
    3122:	0e 94 0a 17 	call	0x2e14	; 0x2e14 <hif_receive>
    3126:	88 23       	and	r24, r24
    3128:	09 f0       	breq	.+2      	; 0x312c <m2m_wifi_cb+0xca>
    312a:	34 c2       	rjmp	.+1128   	; 0x3594 <m2m_wifi_cb+0x532>
    312c:	80 91 0b 2e 	lds	r24, 0x2E0B	; 0x802e0b <gpfAppWifiCb>
    3130:	90 91 0c 2e 	lds	r25, 0x2E0C	; 0x802e0c <gpfAppWifiCb+0x1>
    3134:	89 2b       	or	r24, r25
    3136:	09 f4       	brne	.+2      	; 0x313a <m2m_wifi_cb+0xd8>
    3138:	2d c2       	rjmp	.+1114   	; 0x3594 <m2m_wifi_cb+0x532>
    313a:	20 91 0b 2e 	lds	r18, 0x2E0B	; 0x802e0b <gpfAppWifiCb>
    313e:	30 91 0c 2e 	lds	r19, 0x2E0C	; 0x802e0c <gpfAppWifiCb+0x1>
    3142:	ce 01       	movw	r24, r28
    3144:	0d 96       	adiw	r24, 0x0d	; 13
    3146:	bc 01       	movw	r22, r24
    3148:	8b e1       	ldi	r24, 0x1B	; 27
    314a:	f9 01       	movw	r30, r18
    314c:	09 95       	icall
    314e:	22 c2       	rjmp	.+1092   	; 0x3594 <m2m_wifi_cb+0x532>
    3150:	ce 01       	movw	r24, r28
    3152:	81 56       	subi	r24, 0x61	; 97
    3154:	9f 4f       	sbci	r25, 0xFF	; 255
    3156:	fc 01       	movw	r30, r24
    3158:	80 81       	ld	r24, Z
    315a:	86 30       	cpi	r24, 0x06	; 6
    315c:	39 f5       	brne	.+78     	; 0x31ac <m2m_wifi_cb+0x14a>
    315e:	ae 01       	movw	r20, r28
    3160:	45 5c       	subi	r20, 0xC5	; 197
    3162:	5f 4f       	sbci	r21, 0xFF	; 255
    3164:	ce 01       	movw	r24, r28
    3166:	8e 55       	subi	r24, 0x5E	; 94
    3168:	9f 4f       	sbci	r25, 0xFF	; 255
    316a:	fc 01       	movw	r30, r24
    316c:	80 81       	ld	r24, Z
    316e:	91 81       	ldd	r25, Z+1	; 0x01
    3170:	a2 81       	ldd	r26, Z+2	; 0x02
    3172:	b3 81       	ldd	r27, Z+3	; 0x03
    3174:	01 e0       	ldi	r16, 0x01	; 1
    3176:	20 e3       	ldi	r18, 0x30	; 48
    3178:	30 e0       	ldi	r19, 0x00	; 0
    317a:	bc 01       	movw	r22, r24
    317c:	cd 01       	movw	r24, r26
    317e:	0e 94 0a 17 	call	0x2e14	; 0x2e14 <hif_receive>
    3182:	88 23       	and	r24, r24
    3184:	09 f0       	breq	.+2      	; 0x3188 <m2m_wifi_cb+0x126>
    3186:	06 c2       	rjmp	.+1036   	; 0x3594 <m2m_wifi_cb+0x532>
    3188:	80 91 0b 2e 	lds	r24, 0x2E0B	; 0x802e0b <gpfAppWifiCb>
    318c:	90 91 0c 2e 	lds	r25, 0x2E0C	; 0x802e0c <gpfAppWifiCb+0x1>
    3190:	89 2b       	or	r24, r25
    3192:	09 f4       	brne	.+2      	; 0x3196 <m2m_wifi_cb+0x134>
    3194:	ff c1       	rjmp	.+1022   	; 0x3594 <m2m_wifi_cb+0x532>
    3196:	20 91 0b 2e 	lds	r18, 0x2E0B	; 0x802e0b <gpfAppWifiCb>
    319a:	30 91 0c 2e 	lds	r19, 0x2E0C	; 0x802e0c <gpfAppWifiCb+0x1>
    319e:	ce 01       	movw	r24, r28
    31a0:	cb 96       	adiw	r24, 0x3b	; 59
    31a2:	bc 01       	movw	r22, r24
    31a4:	86 e0       	ldi	r24, 0x06	; 6
    31a6:	f9 01       	movw	r30, r18
    31a8:	09 95       	icall
    31aa:	f4 c1       	rjmp	.+1000   	; 0x3594 <m2m_wifi_cb+0x532>
    31ac:	ce 01       	movw	r24, r28
    31ae:	81 56       	subi	r24, 0x61	; 97
    31b0:	9f 4f       	sbci	r25, 0xFF	; 255
    31b2:	fc 01       	movw	r30, r24
    31b4:	80 81       	ld	r24, Z
    31b6:	8e 30       	cpi	r24, 0x0E	; 14
    31b8:	09 f4       	brne	.+2      	; 0x31bc <m2m_wifi_cb+0x15a>
    31ba:	ec c1       	rjmp	.+984    	; 0x3594 <m2m_wifi_cb+0x532>
    31bc:	ce 01       	movw	r24, r28
    31be:	81 56       	subi	r24, 0x61	; 97
    31c0:	9f 4f       	sbci	r25, 0xFF	; 255
    31c2:	fc 01       	movw	r30, r24
    31c4:	80 81       	ld	r24, Z
    31c6:	82 33       	cpi	r24, 0x32	; 50
    31c8:	39 f5       	brne	.+78     	; 0x3218 <m2m_wifi_cb+0x1b6>
    31ca:	ae 01       	movw	r20, r28
    31cc:	4b 5e       	subi	r20, 0xEB	; 235
    31ce:	5f 4f       	sbci	r21, 0xFF	; 255
    31d0:	ce 01       	movw	r24, r28
    31d2:	8e 55       	subi	r24, 0x5E	; 94
    31d4:	9f 4f       	sbci	r25, 0xFF	; 255
    31d6:	fc 01       	movw	r30, r24
    31d8:	80 81       	ld	r24, Z
    31da:	91 81       	ldd	r25, Z+1	; 0x01
    31dc:	a2 81       	ldd	r26, Z+2	; 0x02
    31de:	b3 81       	ldd	r27, Z+3	; 0x03
    31e0:	00 e0       	ldi	r16, 0x00	; 0
    31e2:	24 e1       	ldi	r18, 0x14	; 20
    31e4:	30 e0       	ldi	r19, 0x00	; 0
    31e6:	bc 01       	movw	r22, r24
    31e8:	cd 01       	movw	r24, r26
    31ea:	0e 94 0a 17 	call	0x2e14	; 0x2e14 <hif_receive>
    31ee:	88 23       	and	r24, r24
    31f0:	09 f0       	breq	.+2      	; 0x31f4 <m2m_wifi_cb+0x192>
    31f2:	d0 c1       	rjmp	.+928    	; 0x3594 <m2m_wifi_cb+0x532>
    31f4:	80 91 0b 2e 	lds	r24, 0x2E0B	; 0x802e0b <gpfAppWifiCb>
    31f8:	90 91 0c 2e 	lds	r25, 0x2E0C	; 0x802e0c <gpfAppWifiCb+0x1>
    31fc:	89 2b       	or	r24, r25
    31fe:	09 f4       	brne	.+2      	; 0x3202 <m2m_wifi_cb+0x1a0>
    3200:	c9 c1       	rjmp	.+914    	; 0x3594 <m2m_wifi_cb+0x532>
    3202:	20 91 0b 2e 	lds	r18, 0x2E0B	; 0x802e0b <gpfAppWifiCb>
    3206:	30 91 0c 2e 	lds	r19, 0x2E0C	; 0x802e0c <gpfAppWifiCb+0x1>
    320a:	ce 01       	movw	r24, r28
    320c:	45 96       	adiw	r24, 0x15	; 21
    320e:	bc 01       	movw	r22, r24
    3210:	82 e3       	ldi	r24, 0x32	; 50
    3212:	f9 01       	movw	r30, r18
    3214:	09 95       	icall
    3216:	be c1       	rjmp	.+892    	; 0x3594 <m2m_wifi_cb+0x532>
    3218:	ce 01       	movw	r24, r28
    321a:	81 56       	subi	r24, 0x61	; 97
    321c:	9f 4f       	sbci	r25, 0xFF	; 255
    321e:	fc 01       	movw	r30, r24
    3220:	80 81       	ld	r24, Z
    3222:	8f 32       	cpi	r24, 0x2F	; 47
    3224:	81 f5       	brne	.+96     	; 0x3286 <m2m_wifi_cb+0x224>
    3226:	ce 01       	movw	r24, r28
    3228:	cb 96       	adiw	r24, 0x3b	; 59
    322a:	24 e6       	ldi	r18, 0x64	; 100
    322c:	30 e0       	ldi	r19, 0x00	; 0
    322e:	40 e0       	ldi	r20, 0x00	; 0
    3230:	50 e0       	ldi	r21, 0x00	; 0
    3232:	60 e0       	ldi	r22, 0x00	; 0
    3234:	0e 94 35 12 	call	0x246a	; 0x246a <m2m_memset>
    3238:	ae 01       	movw	r20, r28
    323a:	45 5c       	subi	r20, 0xC5	; 197
    323c:	5f 4f       	sbci	r21, 0xFF	; 255
    323e:	ce 01       	movw	r24, r28
    3240:	8e 55       	subi	r24, 0x5E	; 94
    3242:	9f 4f       	sbci	r25, 0xFF	; 255
    3244:	fc 01       	movw	r30, r24
    3246:	80 81       	ld	r24, Z
    3248:	91 81       	ldd	r25, Z+1	; 0x01
    324a:	a2 81       	ldd	r26, Z+2	; 0x02
    324c:	b3 81       	ldd	r27, Z+3	; 0x03
    324e:	00 e0       	ldi	r16, 0x00	; 0
    3250:	24 e6       	ldi	r18, 0x64	; 100
    3252:	30 e0       	ldi	r19, 0x00	; 0
    3254:	bc 01       	movw	r22, r24
    3256:	cd 01       	movw	r24, r26
    3258:	0e 94 0a 17 	call	0x2e14	; 0x2e14 <hif_receive>
    325c:	88 23       	and	r24, r24
    325e:	09 f0       	breq	.+2      	; 0x3262 <m2m_wifi_cb+0x200>
    3260:	99 c1       	rjmp	.+818    	; 0x3594 <m2m_wifi_cb+0x532>
    3262:	80 91 0b 2e 	lds	r24, 0x2E0B	; 0x802e0b <gpfAppWifiCb>
    3266:	90 91 0c 2e 	lds	r25, 0x2E0C	; 0x802e0c <gpfAppWifiCb+0x1>
    326a:	89 2b       	or	r24, r25
    326c:	09 f4       	brne	.+2      	; 0x3270 <m2m_wifi_cb+0x20e>
    326e:	92 c1       	rjmp	.+804    	; 0x3594 <m2m_wifi_cb+0x532>
    3270:	20 91 0b 2e 	lds	r18, 0x2E0B	; 0x802e0b <gpfAppWifiCb>
    3274:	30 91 0c 2e 	lds	r19, 0x2E0C	; 0x802e0c <gpfAppWifiCb+0x1>
    3278:	ce 01       	movw	r24, r28
    327a:	cb 96       	adiw	r24, 0x3b	; 59
    327c:	bc 01       	movw	r22, r24
    327e:	8f e2       	ldi	r24, 0x2F	; 47
    3280:	f9 01       	movw	r30, r18
    3282:	09 95       	icall
    3284:	87 c1       	rjmp	.+782    	; 0x3594 <m2m_wifi_cb+0x532>
    3286:	ce 01       	movw	r24, r28
    3288:	81 56       	subi	r24, 0x61	; 97
    328a:	9f 4f       	sbci	r25, 0xFF	; 255
    328c:	fc 01       	movw	r30, r24
    328e:	80 81       	ld	r24, Z
    3290:	84 33       	cpi	r24, 0x34	; 52
    3292:	31 f5       	brne	.+76     	; 0x32e0 <m2m_wifi_cb+0x27e>
    3294:	ae 01       	movw	r20, r28
    3296:	47 5d       	subi	r20, 0xD7	; 215
    3298:	5f 4f       	sbci	r21, 0xFF	; 255
    329a:	ce 01       	movw	r24, r28
    329c:	8e 55       	subi	r24, 0x5E	; 94
    329e:	9f 4f       	sbci	r25, 0xFF	; 255
    32a0:	fc 01       	movw	r30, r24
    32a2:	80 81       	ld	r24, Z
    32a4:	91 81       	ldd	r25, Z+1	; 0x01
    32a6:	a2 81       	ldd	r26, Z+2	; 0x02
    32a8:	b3 81       	ldd	r27, Z+3	; 0x03
    32aa:	00 e0       	ldi	r16, 0x00	; 0
    32ac:	24 e0       	ldi	r18, 0x04	; 4
    32ae:	30 e0       	ldi	r19, 0x00	; 0
    32b0:	bc 01       	movw	r22, r24
    32b2:	cd 01       	movw	r24, r26
    32b4:	0e 94 0a 17 	call	0x2e14	; 0x2e14 <hif_receive>
    32b8:	88 23       	and	r24, r24
    32ba:	09 f0       	breq	.+2      	; 0x32be <m2m_wifi_cb+0x25c>
    32bc:	6b c1       	rjmp	.+726    	; 0x3594 <m2m_wifi_cb+0x532>
    32be:	80 91 0b 2e 	lds	r24, 0x2E0B	; 0x802e0b <gpfAppWifiCb>
    32c2:	90 91 0c 2e 	lds	r25, 0x2E0C	; 0x802e0c <gpfAppWifiCb+0x1>
    32c6:	89 2b       	or	r24, r25
    32c8:	09 f4       	brne	.+2      	; 0x32cc <m2m_wifi_cb+0x26a>
    32ca:	64 c1       	rjmp	.+712    	; 0x3594 <m2m_wifi_cb+0x532>
    32cc:	20 91 0b 2e 	lds	r18, 0x2E0B	; 0x802e0b <gpfAppWifiCb>
    32d0:	30 91 0c 2e 	lds	r19, 0x2E0C	; 0x802e0c <gpfAppWifiCb+0x1>
    32d4:	60 e0       	ldi	r22, 0x00	; 0
    32d6:	70 e0       	ldi	r23, 0x00	; 0
    32d8:	84 e3       	ldi	r24, 0x34	; 52
    32da:	f9 01       	movw	r30, r18
    32dc:	09 95       	icall
    32de:	5a c1       	rjmp	.+692    	; 0x3594 <m2m_wifi_cb+0x532>
    32e0:	ce 01       	movw	r24, r28
    32e2:	81 56       	subi	r24, 0x61	; 97
    32e4:	9f 4f       	sbci	r25, 0xFF	; 255
    32e6:	fc 01       	movw	r30, r24
    32e8:	80 81       	ld	r24, Z
    32ea:	81 31       	cpi	r24, 0x11	; 17
    32ec:	61 f5       	brne	.+88     	; 0x3346 <m2m_wifi_cb+0x2e4>
    32ee:	10 92 0a 2e 	sts	0x2E0A, r1	; 0x802e0a <gu8scanInProgress>
    32f2:	ae 01       	movw	r20, r28
    32f4:	43 5d       	subi	r20, 0xD3	; 211
    32f6:	5f 4f       	sbci	r21, 0xFF	; 255
    32f8:	ce 01       	movw	r24, r28
    32fa:	8e 55       	subi	r24, 0x5E	; 94
    32fc:	9f 4f       	sbci	r25, 0xFF	; 255
    32fe:	fc 01       	movw	r30, r24
    3300:	80 81       	ld	r24, Z
    3302:	91 81       	ldd	r25, Z+1	; 0x01
    3304:	a2 81       	ldd	r26, Z+2	; 0x02
    3306:	b3 81       	ldd	r27, Z+3	; 0x03
    3308:	00 e0       	ldi	r16, 0x00	; 0
    330a:	24 e0       	ldi	r18, 0x04	; 4
    330c:	30 e0       	ldi	r19, 0x00	; 0
    330e:	bc 01       	movw	r22, r24
    3310:	cd 01       	movw	r24, r26
    3312:	0e 94 0a 17 	call	0x2e14	; 0x2e14 <hif_receive>
    3316:	88 23       	and	r24, r24
    3318:	09 f0       	breq	.+2      	; 0x331c <m2m_wifi_cb+0x2ba>
    331a:	3c c1       	rjmp	.+632    	; 0x3594 <m2m_wifi_cb+0x532>
    331c:	8d a5       	ldd	r24, Y+45	; 0x2d
    331e:	80 93 09 2e 	sts	0x2E09, r24	; 0x802e09 <gu8ChNum>
    3322:	80 91 0b 2e 	lds	r24, 0x2E0B	; 0x802e0b <gpfAppWifiCb>
    3326:	90 91 0c 2e 	lds	r25, 0x2E0C	; 0x802e0c <gpfAppWifiCb+0x1>
    332a:	89 2b       	or	r24, r25
    332c:	09 f4       	brne	.+2      	; 0x3330 <m2m_wifi_cb+0x2ce>
    332e:	32 c1       	rjmp	.+612    	; 0x3594 <m2m_wifi_cb+0x532>
    3330:	20 91 0b 2e 	lds	r18, 0x2E0B	; 0x802e0b <gpfAppWifiCb>
    3334:	30 91 0c 2e 	lds	r19, 0x2E0C	; 0x802e0c <gpfAppWifiCb+0x1>
    3338:	ce 01       	movw	r24, r28
    333a:	8d 96       	adiw	r24, 0x2d	; 45
    333c:	bc 01       	movw	r22, r24
    333e:	81 e1       	ldi	r24, 0x11	; 17
    3340:	f9 01       	movw	r30, r18
    3342:	09 95       	icall
    3344:	27 c1       	rjmp	.+590    	; 0x3594 <m2m_wifi_cb+0x532>
    3346:	ce 01       	movw	r24, r28
    3348:	81 56       	subi	r24, 0x61	; 97
    334a:	9f 4f       	sbci	r25, 0xFF	; 255
    334c:	fc 01       	movw	r30, r24
    334e:	80 81       	ld	r24, Z
    3350:	83 31       	cpi	r24, 0x13	; 19
    3352:	39 f5       	brne	.+78     	; 0x33a2 <m2m_wifi_cb+0x340>
    3354:	ae 01       	movw	r20, r28
    3356:	45 5c       	subi	r20, 0xC5	; 197
    3358:	5f 4f       	sbci	r21, 0xFF	; 255
    335a:	ce 01       	movw	r24, r28
    335c:	8e 55       	subi	r24, 0x5E	; 94
    335e:	9f 4f       	sbci	r25, 0xFF	; 255
    3360:	fc 01       	movw	r30, r24
    3362:	80 81       	ld	r24, Z
    3364:	91 81       	ldd	r25, Z+1	; 0x01
    3366:	a2 81       	ldd	r26, Z+2	; 0x02
    3368:	b3 81       	ldd	r27, Z+3	; 0x03
    336a:	00 e0       	ldi	r16, 0x00	; 0
    336c:	2c e2       	ldi	r18, 0x2C	; 44
    336e:	30 e0       	ldi	r19, 0x00	; 0
    3370:	bc 01       	movw	r22, r24
    3372:	cd 01       	movw	r24, r26
    3374:	0e 94 0a 17 	call	0x2e14	; 0x2e14 <hif_receive>
    3378:	88 23       	and	r24, r24
    337a:	09 f0       	breq	.+2      	; 0x337e <m2m_wifi_cb+0x31c>
    337c:	0b c1       	rjmp	.+534    	; 0x3594 <m2m_wifi_cb+0x532>
    337e:	80 91 0b 2e 	lds	r24, 0x2E0B	; 0x802e0b <gpfAppWifiCb>
    3382:	90 91 0c 2e 	lds	r25, 0x2E0C	; 0x802e0c <gpfAppWifiCb+0x1>
    3386:	89 2b       	or	r24, r25
    3388:	09 f4       	brne	.+2      	; 0x338c <m2m_wifi_cb+0x32a>
    338a:	04 c1       	rjmp	.+520    	; 0x3594 <m2m_wifi_cb+0x532>
    338c:	20 91 0b 2e 	lds	r18, 0x2E0B	; 0x802e0b <gpfAppWifiCb>
    3390:	30 91 0c 2e 	lds	r19, 0x2E0C	; 0x802e0c <gpfAppWifiCb+0x1>
    3394:	ce 01       	movw	r24, r28
    3396:	cb 96       	adiw	r24, 0x3b	; 59
    3398:	bc 01       	movw	r22, r24
    339a:	83 e1       	ldi	r24, 0x13	; 19
    339c:	f9 01       	movw	r30, r18
    339e:	09 95       	icall
    33a0:	f9 c0       	rjmp	.+498    	; 0x3594 <m2m_wifi_cb+0x532>
    33a2:	ce 01       	movw	r24, r28
    33a4:	81 56       	subi	r24, 0x61	; 97
    33a6:	9f 4f       	sbci	r25, 0xFF	; 255
    33a8:	fc 01       	movw	r30, r24
    33aa:	80 81       	ld	r24, Z
    33ac:	84 30       	cpi	r24, 0x04	; 4
    33ae:	39 f5       	brne	.+78     	; 0x33fe <m2m_wifi_cb+0x39c>
    33b0:	ce 01       	movw	r24, r28
    33b2:	8e 55       	subi	r24, 0x5E	; 94
    33b4:	9f 4f       	sbci	r25, 0xFF	; 255
    33b6:	fc 01       	movw	r30, r24
    33b8:	80 81       	ld	r24, Z
    33ba:	91 81       	ldd	r25, Z+1	; 0x01
    33bc:	a2 81       	ldd	r26, Z+2	; 0x02
    33be:	b3 81       	ldd	r27, Z+3	; 0x03
    33c0:	00 e0       	ldi	r16, 0x00	; 0
    33c2:	24 e0       	ldi	r18, 0x04	; 4
    33c4:	30 e0       	ldi	r19, 0x00	; 0
    33c6:	ae 01       	movw	r20, r28
    33c8:	4f 5f       	subi	r20, 0xFF	; 255
    33ca:	5f 4f       	sbci	r21, 0xFF	; 255
    33cc:	bc 01       	movw	r22, r24
    33ce:	cd 01       	movw	r24, r26
    33d0:	0e 94 0a 17 	call	0x2e14	; 0x2e14 <hif_receive>
    33d4:	88 23       	and	r24, r24
    33d6:	09 f0       	breq	.+2      	; 0x33da <m2m_wifi_cb+0x378>
    33d8:	dd c0       	rjmp	.+442    	; 0x3594 <m2m_wifi_cb+0x532>
    33da:	80 91 0b 2e 	lds	r24, 0x2E0B	; 0x802e0b <gpfAppWifiCb>
    33de:	90 91 0c 2e 	lds	r25, 0x2E0C	; 0x802e0c <gpfAppWifiCb+0x1>
    33e2:	89 2b       	or	r24, r25
    33e4:	09 f4       	brne	.+2      	; 0x33e8 <m2m_wifi_cb+0x386>
    33e6:	d6 c0       	rjmp	.+428    	; 0x3594 <m2m_wifi_cb+0x532>
    33e8:	20 91 0b 2e 	lds	r18, 0x2E0B	; 0x802e0b <gpfAppWifiCb>
    33ec:	30 91 0c 2e 	lds	r19, 0x2E0C	; 0x802e0c <gpfAppWifiCb+0x1>
    33f0:	ce 01       	movw	r24, r28
    33f2:	01 96       	adiw	r24, 0x01	; 1
    33f4:	bc 01       	movw	r22, r24
    33f6:	84 e0       	ldi	r24, 0x04	; 4
    33f8:	f9 01       	movw	r30, r18
    33fa:	09 95       	icall
    33fc:	cb c0       	rjmp	.+406    	; 0x3594 <m2m_wifi_cb+0x532>
    33fe:	ce 01       	movw	r24, r28
    3400:	81 56       	subi	r24, 0x61	; 97
    3402:	9f 4f       	sbci	r25, 0xFF	; 255
    3404:	fc 01       	movw	r30, r24
    3406:	80 81       	ld	r24, Z
    3408:	85 36       	cpi	r24, 0x65	; 101
    340a:	39 f5       	brne	.+78     	; 0x345a <m2m_wifi_cb+0x3f8>
    340c:	ce 01       	movw	r24, r28
    340e:	8e 55       	subi	r24, 0x5E	; 94
    3410:	9f 4f       	sbci	r25, 0xFF	; 255
    3412:	fc 01       	movw	r30, r24
    3414:	80 81       	ld	r24, Z
    3416:	91 81       	ldd	r25, Z+1	; 0x01
    3418:	a2 81       	ldd	r26, Z+2	; 0x02
    341a:	b3 81       	ldd	r27, Z+3	; 0x03
    341c:	00 e0       	ldi	r16, 0x00	; 0
    341e:	24 e0       	ldi	r18, 0x04	; 4
    3420:	30 e0       	ldi	r19, 0x00	; 0
    3422:	ae 01       	movw	r20, r28
    3424:	4f 5f       	subi	r20, 0xFF	; 255
    3426:	5f 4f       	sbci	r21, 0xFF	; 255
    3428:	bc 01       	movw	r22, r24
    342a:	cd 01       	movw	r24, r26
    342c:	0e 94 0a 17 	call	0x2e14	; 0x2e14 <hif_receive>
    3430:	88 23       	and	r24, r24
    3432:	09 f0       	breq	.+2      	; 0x3436 <m2m_wifi_cb+0x3d4>
    3434:	af c0       	rjmp	.+350    	; 0x3594 <m2m_wifi_cb+0x532>
    3436:	80 91 0b 2e 	lds	r24, 0x2E0B	; 0x802e0b <gpfAppWifiCb>
    343a:	90 91 0c 2e 	lds	r25, 0x2E0C	; 0x802e0c <gpfAppWifiCb+0x1>
    343e:	89 2b       	or	r24, r25
    3440:	09 f4       	brne	.+2      	; 0x3444 <m2m_wifi_cb+0x3e2>
    3442:	a8 c0       	rjmp	.+336    	; 0x3594 <m2m_wifi_cb+0x532>
    3444:	20 91 0b 2e 	lds	r18, 0x2E0B	; 0x802e0b <gpfAppWifiCb>
    3448:	30 91 0c 2e 	lds	r19, 0x2E0C	; 0x802e0c <gpfAppWifiCb+0x1>
    344c:	ce 01       	movw	r24, r28
    344e:	01 96       	adiw	r24, 0x01	; 1
    3450:	bc 01       	movw	r22, r24
    3452:	85 e6       	ldi	r24, 0x65	; 101
    3454:	f9 01       	movw	r30, r18
    3456:	09 95       	icall
    3458:	9d c0       	rjmp	.+314    	; 0x3594 <m2m_wifi_cb+0x532>
    345a:	ce 01       	movw	r24, r28
    345c:	81 56       	subi	r24, 0x61	; 97
    345e:	9f 4f       	sbci	r25, 0xFF	; 255
    3460:	fc 01       	movw	r30, r24
    3462:	80 81       	ld	r24, Z
    3464:	89 30       	cpi	r24, 0x09	; 9
    3466:	39 f5       	brne	.+78     	; 0x34b6 <m2m_wifi_cb+0x454>
    3468:	ae 01       	movw	r20, r28
    346a:	45 5c       	subi	r20, 0xC5	; 197
    346c:	5f 4f       	sbci	r21, 0xFF	; 255
    346e:	ce 01       	movw	r24, r28
    3470:	8e 55       	subi	r24, 0x5E	; 94
    3472:	9f 4f       	sbci	r25, 0xFF	; 255
    3474:	fc 01       	movw	r30, r24
    3476:	80 81       	ld	r24, Z
    3478:	91 81       	ldd	r25, Z+1	; 0x01
    347a:	a2 81       	ldd	r26, Z+2	; 0x02
    347c:	b3 81       	ldd	r27, Z+3	; 0x03
    347e:	01 e0       	ldi	r16, 0x01	; 1
    3480:	24 e6       	ldi	r18, 0x64	; 100
    3482:	30 e0       	ldi	r19, 0x00	; 0
    3484:	bc 01       	movw	r22, r24
    3486:	cd 01       	movw	r24, r26
    3488:	0e 94 0a 17 	call	0x2e14	; 0x2e14 <hif_receive>
    348c:	88 23       	and	r24, r24
    348e:	09 f0       	breq	.+2      	; 0x3492 <m2m_wifi_cb+0x430>
    3490:	81 c0       	rjmp	.+258    	; 0x3594 <m2m_wifi_cb+0x532>
    3492:	80 91 0b 2e 	lds	r24, 0x2E0B	; 0x802e0b <gpfAppWifiCb>
    3496:	90 91 0c 2e 	lds	r25, 0x2E0C	; 0x802e0c <gpfAppWifiCb+0x1>
    349a:	89 2b       	or	r24, r25
    349c:	09 f4       	brne	.+2      	; 0x34a0 <m2m_wifi_cb+0x43e>
    349e:	7a c0       	rjmp	.+244    	; 0x3594 <m2m_wifi_cb+0x532>
    34a0:	20 91 0b 2e 	lds	r18, 0x2E0B	; 0x802e0b <gpfAppWifiCb>
    34a4:	30 91 0c 2e 	lds	r19, 0x2E0C	; 0x802e0c <gpfAppWifiCb+0x1>
    34a8:	ce 01       	movw	r24, r28
    34aa:	cb 96       	adiw	r24, 0x3b	; 59
    34ac:	bc 01       	movw	r22, r24
    34ae:	89 e0       	ldi	r24, 0x09	; 9
    34b0:	f9 01       	movw	r30, r18
    34b2:	09 95       	icall
    34b4:	6f c0       	rjmp	.+222    	; 0x3594 <m2m_wifi_cb+0x532>
    34b6:	ce 01       	movw	r24, r28
    34b8:	81 56       	subi	r24, 0x61	; 97
    34ba:	9f 4f       	sbci	r25, 0xFF	; 255
    34bc:	fc 01       	movw	r30, r24
    34be:	80 81       	ld	r24, Z
    34c0:	8a 32       	cpi	r24, 0x2A	; 42
    34c2:	39 f5       	brne	.+78     	; 0x3512 <m2m_wifi_cb+0x4b0>
    34c4:	ae 01       	movw	r20, r28
    34c6:	4f 5c       	subi	r20, 0xCF	; 207
    34c8:	5f 4f       	sbci	r21, 0xFF	; 255
    34ca:	ce 01       	movw	r24, r28
    34cc:	8e 55       	subi	r24, 0x5E	; 94
    34ce:	9f 4f       	sbci	r25, 0xFF	; 255
    34d0:	fc 01       	movw	r30, r24
    34d2:	80 81       	ld	r24, Z
    34d4:	91 81       	ldd	r25, Z+1	; 0x01
    34d6:	a2 81       	ldd	r26, Z+2	; 0x02
    34d8:	b3 81       	ldd	r27, Z+3	; 0x03
    34da:	01 e0       	ldi	r16, 0x01	; 1
    34dc:	24 e0       	ldi	r18, 0x04	; 4
    34de:	30 e0       	ldi	r19, 0x00	; 0
    34e0:	bc 01       	movw	r22, r24
    34e2:	cd 01       	movw	r24, r26
    34e4:	0e 94 0a 17 	call	0x2e14	; 0x2e14 <hif_receive>
    34e8:	88 23       	and	r24, r24
    34ea:	09 f0       	breq	.+2      	; 0x34ee <m2m_wifi_cb+0x48c>
    34ec:	53 c0       	rjmp	.+166    	; 0x3594 <m2m_wifi_cb+0x532>
    34ee:	80 91 0b 2e 	lds	r24, 0x2E0B	; 0x802e0b <gpfAppWifiCb>
    34f2:	90 91 0c 2e 	lds	r25, 0x2E0C	; 0x802e0c <gpfAppWifiCb+0x1>
    34f6:	89 2b       	or	r24, r25
    34f8:	09 f4       	brne	.+2      	; 0x34fc <m2m_wifi_cb+0x49a>
    34fa:	4c c0       	rjmp	.+152    	; 0x3594 <m2m_wifi_cb+0x532>
    34fc:	20 91 0b 2e 	lds	r18, 0x2E0B	; 0x802e0b <gpfAppWifiCb>
    3500:	30 91 0c 2e 	lds	r19, 0x2E0C	; 0x802e0c <gpfAppWifiCb+0x1>
    3504:	ce 01       	movw	r24, r28
    3506:	c1 96       	adiw	r24, 0x31	; 49
    3508:	bc 01       	movw	r22, r24
    350a:	8a e2       	ldi	r24, 0x2A	; 42
    350c:	f9 01       	movw	r30, r18
    350e:	09 95       	icall
    3510:	41 c0       	rjmp	.+130    	; 0x3594 <m2m_wifi_cb+0x532>
    3512:	ce 01       	movw	r24, r28
    3514:	81 56       	subi	r24, 0x61	; 97
    3516:	9f 4f       	sbci	r25, 0xFF	; 255
    3518:	fc 01       	movw	r30, r24
    351a:	80 81       	ld	r24, Z
    351c:	80 32       	cpi	r24, 0x20	; 32
    351e:	d1 f5       	brne	.+116    	; 0x3594 <m2m_wifi_cb+0x532>
    3520:	ae 01       	movw	r20, r28
    3522:	4b 5c       	subi	r20, 0xCB	; 203
    3524:	5f 4f       	sbci	r21, 0xFF	; 255
    3526:	ce 01       	movw	r24, r28
    3528:	8e 55       	subi	r24, 0x5E	; 94
    352a:	9f 4f       	sbci	r25, 0xFF	; 255
    352c:	fc 01       	movw	r30, r24
    352e:	80 81       	ld	r24, Z
    3530:	91 81       	ldd	r25, Z+1	; 0x01
    3532:	a2 81       	ldd	r26, Z+2	; 0x02
    3534:	b3 81       	ldd	r27, Z+3	; 0x03
    3536:	00 e0       	ldi	r16, 0x00	; 0
    3538:	26 e0       	ldi	r18, 0x06	; 6
    353a:	30 e0       	ldi	r19, 0x00	; 0
    353c:	bc 01       	movw	r22, r24
    353e:	cd 01       	movw	r24, r26
    3540:	0e 94 0a 17 	call	0x2e14	; 0x2e14 <hif_receive>
    3544:	88 23       	and	r24, r24
    3546:	31 f5       	brne	.+76     	; 0x3594 <m2m_wifi_cb+0x532>
    3548:	2f a9       	ldd	r18, Y+55	; 0x37
    354a:	38 ad       	ldd	r19, Y+56	; 0x38
    354c:	4d a9       	ldd	r20, Y+53	; 0x35
    354e:	5e a9       	ldd	r21, Y+54	; 0x36
    3550:	ce 01       	movw	r24, r28
    3552:	8e 55       	subi	r24, 0x5E	; 94
    3554:	9f 4f       	sbci	r25, 0xFF	; 255
    3556:	fc 01       	movw	r30, r24
    3558:	80 81       	ld	r24, Z
    355a:	91 81       	ldd	r25, Z+1	; 0x01
    355c:	a2 81       	ldd	r26, Z+2	; 0x02
    355e:	b3 81       	ldd	r27, Z+3	; 0x03
    3560:	06 96       	adiw	r24, 0x06	; 6
    3562:	a1 1d       	adc	r26, r1
    3564:	b1 1d       	adc	r27, r1
    3566:	01 e0       	ldi	r16, 0x01	; 1
    3568:	bc 01       	movw	r22, r24
    356a:	cd 01       	movw	r24, r26
    356c:	0e 94 0a 17 	call	0x2e14	; 0x2e14 <hif_receive>
    3570:	88 23       	and	r24, r24
    3572:	81 f4       	brne	.+32     	; 0x3594 <m2m_wifi_cb+0x532>
    3574:	80 91 0b 2e 	lds	r24, 0x2E0B	; 0x802e0b <gpfAppWifiCb>
    3578:	90 91 0c 2e 	lds	r25, 0x2E0C	; 0x802e0c <gpfAppWifiCb+0x1>
    357c:	89 2b       	or	r24, r25
    357e:	51 f0       	breq	.+20     	; 0x3594 <m2m_wifi_cb+0x532>
    3580:	20 91 0b 2e 	lds	r18, 0x2E0B	; 0x802e0b <gpfAppWifiCb>
    3584:	30 91 0c 2e 	lds	r19, 0x2E0C	; 0x802e0c <gpfAppWifiCb+0x1>
    3588:	ce 01       	movw	r24, r28
    358a:	c5 96       	adiw	r24, 0x35	; 53
    358c:	bc 01       	movw	r22, r24
    358e:	80 e2       	ldi	r24, 0x20	; 32
    3590:	f9 01       	movw	r30, r18
    3592:	09 95       	icall
    3594:	00 00       	nop
    3596:	cb 55       	subi	r28, 0x5B	; 91
    3598:	df 4f       	sbci	r29, 0xFF	; 255
    359a:	cd bf       	out	0x3d, r28	; 61
    359c:	de bf       	out	0x3e, r29	; 62
    359e:	df 91       	pop	r29
    35a0:	cf 91       	pop	r28
    35a2:	0f 91       	pop	r16
    35a4:	08 95       	ret

000035a6 <m2m_wifi_init>:
    35a6:	cf 93       	push	r28
    35a8:	df 93       	push	r29
    35aa:	cd b7       	in	r28, 0x3d	; 61
    35ac:	de b7       	in	r29, 0x3e	; 62
    35ae:	aa 97       	sbiw	r28, 0x2a	; 42
    35b0:	cd bf       	out	0x3d, r28	; 61
    35b2:	de bf       	out	0x3e, r29	; 62
    35b4:	89 a7       	std	Y+41, r24	; 0x29
    35b6:	9a a7       	std	Y+42, r25	; 0x2a
    35b8:	19 82       	std	Y+1, r1	; 0x01
    35ba:	81 e0       	ldi	r24, 0x01	; 1
    35bc:	88 a7       	std	Y+40, r24	; 0x28
    35be:	89 a5       	ldd	r24, Y+41	; 0x29
    35c0:	9a a5       	ldd	r25, Y+42	; 0x2a
    35c2:	89 2b       	or	r24, r25
    35c4:	19 f4       	brne	.+6      	; 0x35cc <m2m_wifi_init+0x26>
    35c6:	84 ef       	ldi	r24, 0xF4	; 244
    35c8:	89 83       	std	Y+1, r24	; 0x01
    35ca:	2d c0       	rjmp	.+90     	; 0x3626 <m2m_wifi_init+0x80>
    35cc:	89 a5       	ldd	r24, Y+41	; 0x29
    35ce:	9a a5       	ldd	r25, Y+42	; 0x2a
    35d0:	fc 01       	movw	r30, r24
    35d2:	80 81       	ld	r24, Z
    35d4:	91 81       	ldd	r25, Z+1	; 0x01
    35d6:	80 93 0b 2e 	sts	0x2E0B, r24	; 0x802e0b <gpfAppWifiCb>
    35da:	90 93 0c 2e 	sts	0x2E0C, r25	; 0x802e0c <gpfAppWifiCb+0x1>
    35de:	10 92 0a 2e 	sts	0x2E0A, r1	; 0x802e0a <gu8scanInProgress>
    35e2:	ce 01       	movw	r24, r28
    35e4:	88 96       	adiw	r24, 0x28	; 40
    35e6:	0e 94 2f 25 	call	0x4a5e	; 0x4a5e <nm_drv_init>
    35ea:	89 83       	std	Y+1, r24	; 0x01
    35ec:	89 81       	ldd	r24, Y+1	; 0x01
    35ee:	88 23       	and	r24, r24
    35f0:	c9 f4       	brne	.+50     	; 0x3624 <m2m_wifi_init+0x7e>
    35f2:	80 e0       	ldi	r24, 0x00	; 0
    35f4:	90 e0       	ldi	r25, 0x00	; 0
    35f6:	0e 94 44 13 	call	0x2688	; 0x2688 <hif_init>
    35fa:	89 83       	std	Y+1, r24	; 0x01
    35fc:	89 81       	ldd	r24, Y+1	; 0x01
    35fe:	88 23       	and	r24, r24
    3600:	59 f4       	brne	.+22     	; 0x3618 <m2m_wifi_init+0x72>
    3602:	61 e3       	ldi	r22, 0x31	; 49
    3604:	78 e1       	ldi	r23, 0x18	; 24
    3606:	81 e0       	ldi	r24, 0x01	; 1
    3608:	0e 94 d7 17 	call	0x2fae	; 0x2fae <hif_register_cb>
    360c:	ce 01       	movw	r24, r28
    360e:	02 96       	adiw	r24, 0x02	; 2
    3610:	0e 94 33 24 	call	0x4866	; 0x4866 <nm_get_firmware_full_info>
    3614:	89 83       	std	Y+1, r24	; 0x01
    3616:	07 c0       	rjmp	.+14     	; 0x3626 <m2m_wifi_init+0x80>
    3618:	00 00       	nop
    361a:	80 e0       	ldi	r24, 0x00	; 0
    361c:	90 e0       	ldi	r25, 0x00	; 0
    361e:	0e 94 82 25 	call	0x4b04	; 0x4b04 <nm_drv_deinit>
    3622:	01 c0       	rjmp	.+2      	; 0x3626 <m2m_wifi_init+0x80>
    3624:	00 00       	nop
    3626:	89 81       	ldd	r24, Y+1	; 0x01
    3628:	aa 96       	adiw	r28, 0x2a	; 42
    362a:	cd bf       	out	0x3d, r28	; 61
    362c:	de bf       	out	0x3e, r29	; 62
    362e:	df 91       	pop	r29
    3630:	cf 91       	pop	r28
    3632:	08 95       	ret

00003634 <m2m_wifi_handle_events>:
    3634:	cf 93       	push	r28
    3636:	df 93       	push	r29
    3638:	00 d0       	rcall	.+0      	; 0x363a <m2m_wifi_handle_events+0x6>
    363a:	cd b7       	in	r28, 0x3d	; 61
    363c:	de b7       	in	r29, 0x3e	; 62
    363e:	89 83       	std	Y+1, r24	; 0x01
    3640:	9a 83       	std	Y+2, r25	; 0x02
    3642:	0e 94 ef 16 	call	0x2dde	; 0x2dde <hif_handle_isr>
    3646:	0f 90       	pop	r0
    3648:	0f 90       	pop	r0
    364a:	df 91       	pop	r29
    364c:	cf 91       	pop	r28
    364e:	08 95       	ret

00003650 <m2m_wifi_connect>:
    3650:	ef 92       	push	r14
    3652:	0f 93       	push	r16
    3654:	1f 93       	push	r17
    3656:	cf 93       	push	r28
    3658:	df 93       	push	r29
    365a:	cd b7       	in	r28, 0x3d	; 61
    365c:	de b7       	in	r29, 0x3e	; 62
    365e:	28 97       	sbiw	r28, 0x08	; 8
    3660:	cd bf       	out	0x3d, r28	; 61
    3662:	de bf       	out	0x3e, r29	; 62
    3664:	89 83       	std	Y+1, r24	; 0x01
    3666:	9a 83       	std	Y+2, r25	; 0x02
    3668:	6b 83       	std	Y+3, r22	; 0x03
    366a:	4c 83       	std	Y+4, r20	; 0x04
    366c:	2d 83       	std	Y+5, r18	; 0x05
    366e:	3e 83       	std	Y+6, r19	; 0x06
    3670:	0f 83       	std	Y+7, r16	; 0x07
    3672:	18 87       	std	Y+8, r17	; 0x08
    3674:	4f 81       	ldd	r20, Y+7	; 0x07
    3676:	58 85       	ldd	r21, Y+8	; 0x08
    3678:	2d 81       	ldd	r18, Y+5	; 0x05
    367a:	3e 81       	ldd	r19, Y+6	; 0x06
    367c:	89 81       	ldd	r24, Y+1	; 0x01
    367e:	9a 81       	ldd	r25, Y+2	; 0x02
    3680:	e1 2c       	mov	r14, r1
    3682:	8a 01       	movw	r16, r20
    3684:	4c 81       	ldd	r20, Y+4	; 0x04
    3686:	6b 81       	ldd	r22, Y+3	; 0x03
    3688:	0e 94 4f 1b 	call	0x369e	; 0x369e <m2m_wifi_connect_sc>
    368c:	28 96       	adiw	r28, 0x08	; 8
    368e:	cd bf       	out	0x3d, r28	; 61
    3690:	de bf       	out	0x3e, r29	; 62
    3692:	df 91       	pop	r29
    3694:	cf 91       	pop	r28
    3696:	1f 91       	pop	r17
    3698:	0f 91       	pop	r16
    369a:	ef 90       	pop	r14
    369c:	08 95       	ret

0000369e <m2m_wifi_connect_sc>:
    369e:	cf 92       	push	r12
    36a0:	df 92       	push	r13
    36a2:	ef 92       	push	r14
    36a4:	ff 92       	push	r15
    36a6:	0f 93       	push	r16
    36a8:	1f 93       	push	r17
    36aa:	cf 93       	push	r28
    36ac:	df 93       	push	r29
    36ae:	cd b7       	in	r28, 0x3d	; 61
    36b0:	de b7       	in	r29, 0x3e	; 62
    36b2:	c3 58       	subi	r28, 0x83	; 131
    36b4:	d1 09       	sbc	r29, r1
    36b6:	cd bf       	out	0x3d, r28	; 61
    36b8:	de bf       	out	0x3e, r29	; 62
    36ba:	fe 01       	movw	r30, r28
    36bc:	e7 58       	subi	r30, 0x87	; 135
    36be:	ff 4f       	sbci	r31, 0xFF	; 255
    36c0:	80 83       	st	Z, r24
    36c2:	91 83       	std	Z+1, r25	; 0x01
    36c4:	ce 01       	movw	r24, r28
    36c6:	85 58       	subi	r24, 0x85	; 133
    36c8:	9f 4f       	sbci	r25, 0xFF	; 255
    36ca:	dc 01       	movw	r26, r24
    36cc:	6c 93       	st	X, r22
    36ce:	ce 01       	movw	r24, r28
    36d0:	84 58       	subi	r24, 0x84	; 132
    36d2:	9f 4f       	sbci	r25, 0xFF	; 255
    36d4:	fc 01       	movw	r30, r24
    36d6:	40 83       	st	Z, r20
    36d8:	ce 01       	movw	r24, r28
    36da:	83 58       	subi	r24, 0x83	; 131
    36dc:	9f 4f       	sbci	r25, 0xFF	; 255
    36de:	dc 01       	movw	r26, r24
    36e0:	2d 93       	st	X+, r18
    36e2:	3c 93       	st	X, r19
    36e4:	ce 01       	movw	r24, r28
    36e6:	81 58       	subi	r24, 0x81	; 129
    36e8:	9f 4f       	sbci	r25, 0xFF	; 255
    36ea:	fc 01       	movw	r30, r24
    36ec:	00 83       	st	Z, r16
    36ee:	11 83       	std	Z+1, r17	; 0x01
    36f0:	ce 01       	movw	r24, r28
    36f2:	8f 57       	subi	r24, 0x7F	; 127
    36f4:	9f 4f       	sbci	r25, 0xFF	; 255
    36f6:	dc 01       	movw	r26, r24
    36f8:	ec 92       	st	X, r14
    36fa:	19 82       	std	Y+1, r1	; 0x01
    36fc:	ce 01       	movw	r24, r28
    36fe:	84 58       	subi	r24, 0x84	; 132
    3700:	9f 4f       	sbci	r25, 0xFF	; 255
    3702:	fc 01       	movw	r30, r24
    3704:	80 81       	ld	r24, Z
    3706:	81 30       	cpi	r24, 0x01	; 1
    3708:	09 f4       	brne	.+2      	; 0x370c <m2m_wifi_connect_sc+0x6e>
    370a:	75 c0       	rjmp	.+234    	; 0x37f6 <m2m_wifi_connect_sc+0x158>
    370c:	ce 01       	movw	r24, r28
    370e:	83 58       	subi	r24, 0x83	; 131
    3710:	9f 4f       	sbci	r25, 0xFF	; 255
    3712:	dc 01       	movw	r26, r24
    3714:	8d 91       	ld	r24, X+
    3716:	9c 91       	ld	r25, X
    3718:	89 2b       	or	r24, r25
    371a:	19 f4       	brne	.+6      	; 0x3722 <m2m_wifi_connect_sc+0x84>
    371c:	84 ef       	ldi	r24, 0xF4	; 244
    371e:	89 83       	std	Y+1, r24	; 0x01
    3720:	bd c1       	rjmp	.+890    	; 0x3a9c <m2m_wifi_connect_sc+0x3fe>
    3722:	ce 01       	movw	r24, r28
    3724:	84 58       	subi	r24, 0x84	; 132
    3726:	9f 4f       	sbci	r25, 0xFF	; 255
    3728:	fc 01       	movw	r30, r24
    372a:	80 81       	ld	r24, Z
    372c:	82 30       	cpi	r24, 0x02	; 2
    372e:	09 f0       	breq	.+2      	; 0x3732 <m2m_wifi_connect_sc+0x94>
    3730:	62 c0       	rjmp	.+196    	; 0x37f6 <m2m_wifi_connect_sc+0x158>
    3732:	ce 01       	movw	r24, r28
    3734:	83 58       	subi	r24, 0x83	; 131
    3736:	9f 4f       	sbci	r25, 0xFF	; 255
    3738:	dc 01       	movw	r26, r24
    373a:	8d 91       	ld	r24, X+
    373c:	9c 91       	ld	r25, X
    373e:	0e 94 70 12 	call	0x24e0	; 0x24e0 <m2m_strlen>
    3742:	80 34       	cpi	r24, 0x40	; 64
    3744:	91 05       	cpc	r25, r1
    3746:	09 f0       	breq	.+2      	; 0x374a <m2m_wifi_connect_sc+0xac>
    3748:	56 c0       	rjmp	.+172    	; 0x37f6 <m2m_wifi_connect_sc+0x158>
    374a:	1a 82       	std	Y+2, r1	; 0x02
    374c:	ce 01       	movw	r24, r28
    374e:	83 58       	subi	r24, 0x83	; 131
    3750:	9f 4f       	sbci	r25, 0xFF	; 255
    3752:	fc 01       	movw	r30, r24
    3754:	80 81       	ld	r24, Z
    3756:	91 81       	ldd	r25, Z+1	; 0x01
    3758:	8b 83       	std	Y+3, r24	; 0x03
    375a:	9c 83       	std	Y+4, r25	; 0x04
    375c:	48 c0       	rjmp	.+144    	; 0x37ee <m2m_wifi_connect_sc+0x150>
    375e:	8a 81       	ldd	r24, Y+2	; 0x02
    3760:	88 2f       	mov	r24, r24
    3762:	90 e0       	ldi	r25, 0x00	; 0
    3764:	2b 81       	ldd	r18, Y+3	; 0x03
    3766:	3c 81       	ldd	r19, Y+4	; 0x04
    3768:	82 0f       	add	r24, r18
    376a:	93 1f       	adc	r25, r19
    376c:	dc 01       	movw	r26, r24
    376e:	8c 91       	ld	r24, X
    3770:	80 33       	cpi	r24, 0x30	; 48
    3772:	b8 f1       	brcs	.+110    	; 0x37e2 <m2m_wifi_connect_sc+0x144>
    3774:	8a 81       	ldd	r24, Y+2	; 0x02
    3776:	88 2f       	mov	r24, r24
    3778:	90 e0       	ldi	r25, 0x00	; 0
    377a:	2b 81       	ldd	r18, Y+3	; 0x03
    377c:	3c 81       	ldd	r19, Y+4	; 0x04
    377e:	82 0f       	add	r24, r18
    3780:	93 1f       	adc	r25, r19
    3782:	fc 01       	movw	r30, r24
    3784:	80 81       	ld	r24, Z
    3786:	8a 33       	cpi	r24, 0x3A	; 58
    3788:	58 f0       	brcs	.+22     	; 0x37a0 <m2m_wifi_connect_sc+0x102>
    378a:	8a 81       	ldd	r24, Y+2	; 0x02
    378c:	88 2f       	mov	r24, r24
    378e:	90 e0       	ldi	r25, 0x00	; 0
    3790:	2b 81       	ldd	r18, Y+3	; 0x03
    3792:	3c 81       	ldd	r19, Y+4	; 0x04
    3794:	82 0f       	add	r24, r18
    3796:	93 1f       	adc	r25, r19
    3798:	dc 01       	movw	r26, r24
    379a:	8c 91       	ld	r24, X
    379c:	81 34       	cpi	r24, 0x41	; 65
    379e:	08 f1       	brcs	.+66     	; 0x37e2 <m2m_wifi_connect_sc+0x144>
    37a0:	8a 81       	ldd	r24, Y+2	; 0x02
    37a2:	88 2f       	mov	r24, r24
    37a4:	90 e0       	ldi	r25, 0x00	; 0
    37a6:	2b 81       	ldd	r18, Y+3	; 0x03
    37a8:	3c 81       	ldd	r19, Y+4	; 0x04
    37aa:	82 0f       	add	r24, r18
    37ac:	93 1f       	adc	r25, r19
    37ae:	fc 01       	movw	r30, r24
    37b0:	80 81       	ld	r24, Z
    37b2:	87 34       	cpi	r24, 0x47	; 71
    37b4:	58 f0       	brcs	.+22     	; 0x37cc <m2m_wifi_connect_sc+0x12e>
    37b6:	8a 81       	ldd	r24, Y+2	; 0x02
    37b8:	88 2f       	mov	r24, r24
    37ba:	90 e0       	ldi	r25, 0x00	; 0
    37bc:	2b 81       	ldd	r18, Y+3	; 0x03
    37be:	3c 81       	ldd	r19, Y+4	; 0x04
    37c0:	82 0f       	add	r24, r18
    37c2:	93 1f       	adc	r25, r19
    37c4:	dc 01       	movw	r26, r24
    37c6:	8c 91       	ld	r24, X
    37c8:	81 36       	cpi	r24, 0x61	; 97
    37ca:	58 f0       	brcs	.+22     	; 0x37e2 <m2m_wifi_connect_sc+0x144>
    37cc:	8a 81       	ldd	r24, Y+2	; 0x02
    37ce:	88 2f       	mov	r24, r24
    37d0:	90 e0       	ldi	r25, 0x00	; 0
    37d2:	2b 81       	ldd	r18, Y+3	; 0x03
    37d4:	3c 81       	ldd	r19, Y+4	; 0x04
    37d6:	82 0f       	add	r24, r18
    37d8:	93 1f       	adc	r25, r19
    37da:	fc 01       	movw	r30, r24
    37dc:	80 81       	ld	r24, Z
    37de:	87 36       	cpi	r24, 0x67	; 103
    37e0:	18 f0       	brcs	.+6      	; 0x37e8 <m2m_wifi_connect_sc+0x14a>
    37e2:	84 ef       	ldi	r24, 0xF4	; 244
    37e4:	89 83       	std	Y+1, r24	; 0x01
    37e6:	5a c1       	rjmp	.+692    	; 0x3a9c <m2m_wifi_connect_sc+0x3fe>
    37e8:	8a 81       	ldd	r24, Y+2	; 0x02
    37ea:	8f 5f       	subi	r24, 0xFF	; 255
    37ec:	8a 83       	std	Y+2, r24	; 0x02
    37ee:	8a 81       	ldd	r24, Y+2	; 0x02
    37f0:	80 34       	cpi	r24, 0x40	; 64
    37f2:	08 f4       	brcc	.+2      	; 0x37f6 <m2m_wifi_connect_sc+0x158>
    37f4:	b4 cf       	rjmp	.-152    	; 0x375e <m2m_wifi_connect_sc+0xc0>
    37f6:	ce 01       	movw	r24, r28
    37f8:	85 58       	subi	r24, 0x85	; 133
    37fa:	9f 4f       	sbci	r25, 0xFF	; 255
    37fc:	dc 01       	movw	r26, r24
    37fe:	8c 91       	ld	r24, X
    3800:	88 23       	and	r24, r24
    3802:	39 f0       	breq	.+14     	; 0x3812 <m2m_wifi_connect_sc+0x174>
    3804:	ce 01       	movw	r24, r28
    3806:	85 58       	subi	r24, 0x85	; 133
    3808:	9f 4f       	sbci	r25, 0xFF	; 255
    380a:	fc 01       	movw	r30, r24
    380c:	80 81       	ld	r24, Z
    380e:	81 32       	cpi	r24, 0x21	; 33
    3810:	18 f0       	brcs	.+6      	; 0x3818 <m2m_wifi_connect_sc+0x17a>
    3812:	84 ef       	ldi	r24, 0xF4	; 244
    3814:	89 83       	std	Y+1, r24	; 0x01
    3816:	42 c1       	rjmp	.+644    	; 0x3a9c <m2m_wifi_connect_sc+0x3fe>
    3818:	ce 01       	movw	r24, r28
    381a:	81 58       	subi	r24, 0x81	; 129
    381c:	9f 4f       	sbci	r25, 0xFF	; 255
    381e:	dc 01       	movw	r26, r24
    3820:	8d 91       	ld	r24, X+
    3822:	9c 91       	ld	r25, X
    3824:	89 2b       	or	r24, r25
    3826:	41 f0       	breq	.+16     	; 0x3838 <m2m_wifi_connect_sc+0x19a>
    3828:	ce 01       	movw	r24, r28
    382a:	81 58       	subi	r24, 0x81	; 129
    382c:	9f 4f       	sbci	r25, 0xFF	; 255
    382e:	fc 01       	movw	r30, r24
    3830:	80 81       	ld	r24, Z
    3832:	91 81       	ldd	r25, Z+1	; 0x01
    3834:	0f 97       	sbiw	r24, 0x0f	; 15
    3836:	60 f0       	brcs	.+24     	; 0x3850 <m2m_wifi_connect_sc+0x1b2>
    3838:	ce 01       	movw	r24, r28
    383a:	81 58       	subi	r24, 0x81	; 129
    383c:	9f 4f       	sbci	r25, 0xFF	; 255
    383e:	dc 01       	movw	r26, r24
    3840:	8d 91       	ld	r24, X+
    3842:	9c 91       	ld	r25, X
    3844:	8f 3f       	cpi	r24, 0xFF	; 255
    3846:	91 05       	cpc	r25, r1
    3848:	19 f0       	breq	.+6      	; 0x3850 <m2m_wifi_connect_sc+0x1b2>
    384a:	84 ef       	ldi	r24, 0xF4	; 244
    384c:	89 83       	std	Y+1, r24	; 0x01
    384e:	26 c1       	rjmp	.+588    	; 0x3a9c <m2m_wifi_connect_sc+0x3fe>
    3850:	ce 01       	movw	r24, r28
    3852:	85 58       	subi	r24, 0x85	; 133
    3854:	9f 4f       	sbci	r25, 0xFF	; 255
    3856:	fc 01       	movw	r30, r24
    3858:	80 81       	ld	r24, Z
    385a:	88 2f       	mov	r24, r24
    385c:	90 e0       	ldi	r25, 0x00	; 0
    385e:	a0 e0       	ldi	r26, 0x00	; 0
    3860:	b0 e0       	ldi	r27, 0x00	; 0
    3862:	9e 01       	movw	r18, r28
    3864:	27 58       	subi	r18, 0x87	; 135
    3866:	3f 4f       	sbci	r19, 0xFF	; 255
    3868:	f9 01       	movw	r30, r18
    386a:	60 81       	ld	r22, Z
    386c:	71 81       	ldd	r23, Z+1	; 0x01
    386e:	9e 01       	movw	r18, r28
    3870:	23 5f       	subi	r18, 0xF3	; 243
    3872:	3f 4f       	sbci	r19, 0xFF	; 255
    3874:	f9 01       	movw	r30, r18
    3876:	ea 5b       	subi	r30, 0xBA	; 186
    3878:	ff 4f       	sbci	r31, 0xFF	; 255
    387a:	9c 01       	movw	r18, r24
    387c:	ad 01       	movw	r20, r26
    387e:	cf 01       	movw	r24, r30
    3880:	0e 94 f1 11 	call	0x23e2	; 0x23e2 <m2m_memcpy>
    3884:	ce 01       	movw	r24, r28
    3886:	85 58       	subi	r24, 0x85	; 133
    3888:	9f 4f       	sbci	r25, 0xFF	; 255
    388a:	dc 01       	movw	r26, r24
    388c:	8c 91       	ld	r24, X
    388e:	88 2f       	mov	r24, r24
    3890:	90 e0       	ldi	r25, 0x00	; 0
    3892:	9e 01       	movw	r18, r28
    3894:	2d 5a       	subi	r18, 0xAD	; 173
    3896:	3f 4f       	sbci	r19, 0xFF	; 255
    3898:	82 0f       	add	r24, r18
    389a:	93 1f       	adc	r25, r19
    389c:	fc 01       	movw	r30, r24
    389e:	10 82       	st	Z, r1
    38a0:	ce 01       	movw	r24, r28
    38a2:	8f 5a       	subi	r24, 0xAF	; 175
    38a4:	9f 4f       	sbci	r25, 0xFF	; 255
    38a6:	9e 01       	movw	r18, r28
    38a8:	21 58       	subi	r18, 0x81	; 129
    38aa:	3f 4f       	sbci	r19, 0xFF	; 255
    38ac:	d9 01       	movw	r26, r18
    38ae:	2d 91       	ld	r18, X+
    38b0:	3c 91       	ld	r19, X
    38b2:	fc 01       	movw	r30, r24
    38b4:	20 83       	st	Z, r18
    38b6:	31 83       	std	Z+1, r19	; 0x01
    38b8:	ce 01       	movw	r24, r28
    38ba:	8f 57       	subi	r24, 0x7F	; 127
    38bc:	9f 4f       	sbci	r25, 0xFF	; 255
    38be:	21 e0       	ldi	r18, 0x01	; 1
    38c0:	dc 01       	movw	r26, r24
    38c2:	8c 91       	ld	r24, X
    38c4:	88 23       	and	r24, r24
    38c6:	09 f4       	brne	.+2      	; 0x38ca <m2m_wifi_connect_sc+0x22c>
    38c8:	20 e0       	ldi	r18, 0x00	; 0
    38ca:	ce 01       	movw	r24, r28
    38cc:	8c 58       	subi	r24, 0x8C	; 140
    38ce:	9f 4f       	sbci	r25, 0xFF	; 255
    38d0:	fc 01       	movw	r30, r24
    38d2:	20 83       	st	Z, r18
    38d4:	ce 01       	movw	r24, r28
    38d6:	0d 96       	adiw	r24, 0x0d	; 13
    38d8:	8d 83       	std	Y+5, r24	; 0x05
    38da:	9e 83       	std	Y+6, r25	; 0x06
    38dc:	8d 81       	ldd	r24, Y+5	; 0x05
    38de:	9e 81       	ldd	r25, Y+6	; 0x06
    38e0:	8f 5b       	subi	r24, 0xBF	; 191
    38e2:	9f 4f       	sbci	r25, 0xFF	; 255
    38e4:	9e 01       	movw	r18, r28
    38e6:	24 58       	subi	r18, 0x84	; 132
    38e8:	3f 4f       	sbci	r19, 0xFF	; 255
    38ea:	d9 01       	movw	r26, r18
    38ec:	2c 91       	ld	r18, X
    38ee:	fc 01       	movw	r30, r24
    38f0:	20 83       	st	Z, r18
    38f2:	ce 01       	movw	r24, r28
    38f4:	84 58       	subi	r24, 0x84	; 132
    38f6:	9f 4f       	sbci	r25, 0xFF	; 255
    38f8:	dc 01       	movw	r26, r24
    38fa:	8c 91       	ld	r24, X
    38fc:	83 30       	cpi	r24, 0x03	; 3
    38fe:	09 f0       	breq	.+2      	; 0x3902 <m2m_wifi_connect_sc+0x264>
    3900:	5f c0       	rjmp	.+190    	; 0x39c0 <m2m_wifi_connect_sc+0x322>
    3902:	ce 01       	movw	r24, r28
    3904:	83 58       	subi	r24, 0x83	; 131
    3906:	9f 4f       	sbci	r25, 0xFF	; 255
    3908:	fc 01       	movw	r30, r24
    390a:	80 81       	ld	r24, Z
    390c:	91 81       	ldd	r25, Z+1	; 0x01
    390e:	8f 83       	std	Y+7, r24	; 0x07
    3910:	98 87       	std	Y+8, r25	; 0x08
    3912:	8d 81       	ldd	r24, Y+5	; 0x05
    3914:	9e 81       	ldd	r25, Y+6	; 0x06
    3916:	89 87       	std	Y+9, r24	; 0x09
    3918:	9a 87       	std	Y+10, r25	; 0x0a
    391a:	8f 81       	ldd	r24, Y+7	; 0x07
    391c:	98 85       	ldd	r25, Y+8	; 0x08
    391e:	dc 01       	movw	r26, r24
    3920:	8c 91       	ld	r24, X
    3922:	2f ef       	ldi	r18, 0xFF	; 255
    3924:	28 0f       	add	r18, r24
    3926:	89 85       	ldd	r24, Y+9	; 0x09
    3928:	9a 85       	ldd	r25, Y+10	; 0x0a
    392a:	fc 01       	movw	r30, r24
    392c:	20 83       	st	Z, r18
    392e:	89 85       	ldd	r24, Y+9	; 0x09
    3930:	9a 85       	ldd	r25, Y+10	; 0x0a
    3932:	dc 01       	movw	r26, r24
    3934:	8c 91       	ld	r24, X
    3936:	84 30       	cpi	r24, 0x04	; 4
    3938:	18 f0       	brcs	.+6      	; 0x3940 <m2m_wifi_connect_sc+0x2a2>
    393a:	84 ef       	ldi	r24, 0xF4	; 244
    393c:	89 83       	std	Y+1, r24	; 0x01
    393e:	ae c0       	rjmp	.+348    	; 0x3a9c <m2m_wifi_connect_sc+0x3fe>
    3940:	8f 81       	ldd	r24, Y+7	; 0x07
    3942:	98 85       	ldd	r25, Y+8	; 0x08
    3944:	fc 01       	movw	r30, r24
    3946:	81 81       	ldd	r24, Z+1	; 0x01
    3948:	2f ef       	ldi	r18, 0xFF	; 255
    394a:	28 0f       	add	r18, r24
    394c:	89 85       	ldd	r24, Y+9	; 0x09
    394e:	9a 85       	ldd	r25, Y+10	; 0x0a
    3950:	dc 01       	movw	r26, r24
    3952:	11 96       	adiw	r26, 0x01	; 1
    3954:	2c 93       	st	X, r18
    3956:	89 85       	ldd	r24, Y+9	; 0x09
    3958:	9a 85       	ldd	r25, Y+10	; 0x0a
    395a:	fc 01       	movw	r30, r24
    395c:	81 81       	ldd	r24, Z+1	; 0x01
    395e:	8a 30       	cpi	r24, 0x0A	; 10
    3960:	51 f0       	breq	.+20     	; 0x3976 <m2m_wifi_connect_sc+0x2d8>
    3962:	89 85       	ldd	r24, Y+9	; 0x09
    3964:	9a 85       	ldd	r25, Y+10	; 0x0a
    3966:	dc 01       	movw	r26, r24
    3968:	11 96       	adiw	r26, 0x01	; 1
    396a:	8c 91       	ld	r24, X
    396c:	8a 31       	cpi	r24, 0x1A	; 26
    396e:	19 f0       	breq	.+6      	; 0x3976 <m2m_wifi_connect_sc+0x2d8>
    3970:	84 ef       	ldi	r24, 0xF4	; 244
    3972:	89 83       	std	Y+1, r24	; 0x01
    3974:	93 c0       	rjmp	.+294    	; 0x3a9c <m2m_wifi_connect_sc+0x3fe>
    3976:	8f 81       	ldd	r24, Y+7	; 0x07
    3978:	98 85       	ldd	r25, Y+8	; 0x08
    397a:	fc 01       	movw	r30, r24
    397c:	81 81       	ldd	r24, Z+1	; 0x01
    397e:	88 2f       	mov	r24, r24
    3980:	90 e0       	ldi	r25, 0x00	; 0
    3982:	a0 e0       	ldi	r26, 0x00	; 0
    3984:	b0 e0       	ldi	r27, 0x00	; 0
    3986:	2f 81       	ldd	r18, Y+7	; 0x07
    3988:	38 85       	ldd	r19, Y+8	; 0x08
    398a:	b9 01       	movw	r22, r18
    398c:	6e 5f       	subi	r22, 0xFE	; 254
    398e:	7f 4f       	sbci	r23, 0xFF	; 255
    3990:	29 85       	ldd	r18, Y+9	; 0x09
    3992:	3a 85       	ldd	r19, Y+10	; 0x0a
    3994:	f9 01       	movw	r30, r18
    3996:	32 96       	adiw	r30, 0x02	; 2
    3998:	9c 01       	movw	r18, r24
    399a:	ad 01       	movw	r20, r26
    399c:	cf 01       	movw	r24, r30
    399e:	0e 94 f1 11 	call	0x23e2	; 0x23e2 <m2m_memcpy>
    39a2:	8f 81       	ldd	r24, Y+7	; 0x07
    39a4:	98 85       	ldd	r25, Y+8	; 0x08
    39a6:	dc 01       	movw	r26, r24
    39a8:	11 96       	adiw	r26, 0x01	; 1
    39aa:	8c 91       	ld	r24, X
    39ac:	88 2f       	mov	r24, r24
    39ae:	90 e0       	ldi	r25, 0x00	; 0
    39b0:	29 85       	ldd	r18, Y+9	; 0x09
    39b2:	3a 85       	ldd	r19, Y+10	; 0x0a
    39b4:	82 0f       	add	r24, r18
    39b6:	93 1f       	adc	r25, r19
    39b8:	02 96       	adiw	r24, 0x02	; 2
    39ba:	fc 01       	movw	r30, r24
    39bc:	10 82       	st	Z, r1
    39be:	5e c0       	rjmp	.+188    	; 0x3a7c <m2m_wifi_connect_sc+0x3de>
    39c0:	ce 01       	movw	r24, r28
    39c2:	84 58       	subi	r24, 0x84	; 132
    39c4:	9f 4f       	sbci	r25, 0xFF	; 255
    39c6:	dc 01       	movw	r26, r24
    39c8:	8c 91       	ld	r24, X
    39ca:	82 30       	cpi	r24, 0x02	; 2
    39cc:	a9 f5       	brne	.+106    	; 0x3a38 <m2m_wifi_connect_sc+0x39a>
    39ce:	ce 01       	movw	r24, r28
    39d0:	83 58       	subi	r24, 0x83	; 131
    39d2:	9f 4f       	sbci	r25, 0xFF	; 255
    39d4:	fc 01       	movw	r30, r24
    39d6:	80 81       	ld	r24, Z
    39d8:	91 81       	ldd	r25, Z+1	; 0x01
    39da:	0e 94 70 12 	call	0x24e0	; 0x24e0 <m2m_strlen>
    39de:	8b 87       	std	Y+11, r24	; 0x0b
    39e0:	9c 87       	std	Y+12, r25	; 0x0c
    39e2:	8b 85       	ldd	r24, Y+11	; 0x0b
    39e4:	9c 85       	ldd	r25, Y+12	; 0x0c
    39e6:	89 2b       	or	r24, r25
    39e8:	29 f0       	breq	.+10     	; 0x39f4 <m2m_wifi_connect_sc+0x356>
    39ea:	8b 85       	ldd	r24, Y+11	; 0x0b
    39ec:	9c 85       	ldd	r25, Y+12	; 0x0c
    39ee:	81 34       	cpi	r24, 0x41	; 65
    39f0:	91 05       	cpc	r25, r1
    39f2:	18 f0       	brcs	.+6      	; 0x39fa <m2m_wifi_connect_sc+0x35c>
    39f4:	84 ef       	ldi	r24, 0xF4	; 244
    39f6:	89 83       	std	Y+1, r24	; 0x01
    39f8:	51 c0       	rjmp	.+162    	; 0x3a9c <m2m_wifi_connect_sc+0x3fe>
    39fa:	8b 85       	ldd	r24, Y+11	; 0x0b
    39fc:	9c 85       	ldd	r25, Y+12	; 0x0c
    39fe:	01 96       	adiw	r24, 0x01	; 1
    3a00:	cc 01       	movw	r24, r24
    3a02:	a0 e0       	ldi	r26, 0x00	; 0
    3a04:	b0 e0       	ldi	r27, 0x00	; 0
    3a06:	ed 81       	ldd	r30, Y+5	; 0x05
    3a08:	fe 81       	ldd	r31, Y+6	; 0x06
    3a0a:	ce 57       	subi	r28, 0x7E	; 126
    3a0c:	df 4f       	sbci	r29, 0xFF	; 255
    3a0e:	e8 83       	st	Y, r30
    3a10:	f9 83       	std	Y+1, r31	; 0x01
    3a12:	c2 58       	subi	r28, 0x82	; 130
    3a14:	d0 40       	sbci	r29, 0x00	; 0
    3a16:	9e 01       	movw	r18, r28
    3a18:	23 58       	subi	r18, 0x83	; 131
    3a1a:	3f 4f       	sbci	r19, 0xFF	; 255
    3a1c:	f9 01       	movw	r30, r18
    3a1e:	60 81       	ld	r22, Z
    3a20:	71 81       	ldd	r23, Z+1	; 0x01
    3a22:	9c 01       	movw	r18, r24
    3a24:	ad 01       	movw	r20, r26
    3a26:	ce 57       	subi	r28, 0x7E	; 126
    3a28:	df 4f       	sbci	r29, 0xFF	; 255
    3a2a:	88 81       	ld	r24, Y
    3a2c:	99 81       	ldd	r25, Y+1	; 0x01
    3a2e:	c2 58       	subi	r28, 0x82	; 130
    3a30:	d0 40       	sbci	r29, 0x00	; 0
    3a32:	0e 94 f1 11 	call	0x23e2	; 0x23e2 <m2m_memcpy>
    3a36:	22 c0       	rjmp	.+68     	; 0x3a7c <m2m_wifi_connect_sc+0x3de>
    3a38:	ce 01       	movw	r24, r28
    3a3a:	84 58       	subi	r24, 0x84	; 132
    3a3c:	9f 4f       	sbci	r25, 0xFF	; 255
    3a3e:	dc 01       	movw	r26, r24
    3a40:	8c 91       	ld	r24, X
    3a42:	84 30       	cpi	r24, 0x04	; 4
    3a44:	89 f4       	brne	.+34     	; 0x3a68 <m2m_wifi_connect_sc+0x3ca>
    3a46:	ed 81       	ldd	r30, Y+5	; 0x05
    3a48:	fe 81       	ldd	r31, Y+6	; 0x06
    3a4a:	ce 01       	movw	r24, r28
    3a4c:	83 58       	subi	r24, 0x83	; 131
    3a4e:	9f 4f       	sbci	r25, 0xFF	; 255
    3a50:	dc 01       	movw	r26, r24
    3a52:	8d 91       	ld	r24, X+
    3a54:	9c 91       	ld	r25, X
    3a56:	2e e3       	ldi	r18, 0x3E	; 62
    3a58:	30 e0       	ldi	r19, 0x00	; 0
    3a5a:	40 e0       	ldi	r20, 0x00	; 0
    3a5c:	50 e0       	ldi	r21, 0x00	; 0
    3a5e:	bc 01       	movw	r22, r24
    3a60:	cf 01       	movw	r24, r30
    3a62:	0e 94 f1 11 	call	0x23e2	; 0x23e2 <m2m_memcpy>
    3a66:	0a c0       	rjmp	.+20     	; 0x3a7c <m2m_wifi_connect_sc+0x3de>
    3a68:	ce 01       	movw	r24, r28
    3a6a:	84 58       	subi	r24, 0x84	; 132
    3a6c:	9f 4f       	sbci	r25, 0xFF	; 255
    3a6e:	fc 01       	movw	r30, r24
    3a70:	80 81       	ld	r24, Z
    3a72:	81 30       	cpi	r24, 0x01	; 1
    3a74:	19 f0       	breq	.+6      	; 0x3a7c <m2m_wifi_connect_sc+0x3de>
    3a76:	84 ef       	ldi	r24, 0xF4	; 244
    3a78:	89 83       	std	Y+1, r24	; 0x01
    3a7a:	10 c0       	rjmp	.+32     	; 0x3a9c <m2m_wifi_connect_sc+0x3fe>
    3a7c:	ce 01       	movw	r24, r28
    3a7e:	0d 96       	adiw	r24, 0x0d	; 13
    3a80:	c1 2c       	mov	r12, r1
    3a82:	d1 2c       	mov	r13, r1
    3a84:	e1 2c       	mov	r14, r1
    3a86:	f1 2c       	mov	r15, r1
    3a88:	00 e0       	ldi	r16, 0x00	; 0
    3a8a:	10 e0       	ldi	r17, 0x00	; 0
    3a8c:	2c e6       	ldi	r18, 0x6C	; 108
    3a8e:	30 e0       	ldi	r19, 0x00	; 0
    3a90:	ac 01       	movw	r20, r24
    3a92:	68 e2       	ldi	r22, 0x28	; 40
    3a94:	81 e0       	ldi	r24, 0x01	; 1
    3a96:	0e 94 63 13 	call	0x26c6	; 0x26c6 <hif_send>
    3a9a:	89 83       	std	Y+1, r24	; 0x01
    3a9c:	89 81       	ldd	r24, Y+1	; 0x01
    3a9e:	cd 57       	subi	r28, 0x7D	; 125
    3aa0:	df 4f       	sbci	r29, 0xFF	; 255
    3aa2:	cd bf       	out	0x3d, r28	; 61
    3aa4:	de bf       	out	0x3e, r29	; 62
    3aa6:	df 91       	pop	r29
    3aa8:	cf 91       	pop	r28
    3aaa:	1f 91       	pop	r17
    3aac:	0f 91       	pop	r16
    3aae:	ff 90       	pop	r15
    3ab0:	ef 90       	pop	r14
    3ab2:	df 90       	pop	r13
    3ab4:	cf 90       	pop	r12
    3ab6:	08 95       	ret

00003ab8 <chip_apply_conf>:
    3ab8:	cf 93       	push	r28
    3aba:	df 93       	push	r29
    3abc:	cd b7       	in	r28, 0x3d	; 61
    3abe:	de b7       	in	r29, 0x3e	; 62
    3ac0:	2d 97       	sbiw	r28, 0x0d	; 13
    3ac2:	cd bf       	out	0x3d, r28	; 61
    3ac4:	de bf       	out	0x3e, r29	; 62
    3ac6:	6a 87       	std	Y+10, r22	; 0x0a
    3ac8:	7b 87       	std	Y+11, r23	; 0x0b
    3aca:	8c 87       	std	Y+12, r24	; 0x0c
    3acc:	9d 87       	std	Y+13, r25	; 0x0d
    3ace:	19 82       	std	Y+1, r1	; 0x01
    3ad0:	8a 85       	ldd	r24, Y+10	; 0x0a
    3ad2:	9b 85       	ldd	r25, Y+11	; 0x0b
    3ad4:	ac 85       	ldd	r26, Y+12	; 0x0c
    3ad6:	bd 85       	ldd	r27, Y+13	; 0x0d
    3ad8:	8a 83       	std	Y+2, r24	; 0x02
    3ada:	9b 83       	std	Y+3, r25	; 0x03
    3adc:	ac 83       	std	Y+4, r26	; 0x04
    3ade:	bd 83       	std	Y+5, r27	; 0x05
    3ae0:	8a 81       	ldd	r24, Y+2	; 0x02
    3ae2:	9b 81       	ldd	r25, Y+3	; 0x03
    3ae4:	ac 81       	ldd	r26, Y+4	; 0x04
    3ae6:	bd 81       	ldd	r27, Y+5	; 0x05
    3ae8:	91 60       	ori	r25, 0x01	; 1
    3aea:	8a 83       	std	Y+2, r24	; 0x02
    3aec:	9b 83       	std	Y+3, r25	; 0x03
    3aee:	ac 83       	std	Y+4, r26	; 0x04
    3af0:	bd 83       	std	Y+5, r27	; 0x05
    3af2:	8a 81       	ldd	r24, Y+2	; 0x02
    3af4:	9b 81       	ldd	r25, Y+3	; 0x03
    3af6:	ac 81       	ldd	r26, Y+4	; 0x04
    3af8:	bd 81       	ldd	r27, Y+5	; 0x05
    3afa:	9c 01       	movw	r18, r24
    3afc:	ad 01       	movw	r20, r26
    3afe:	60 ea       	ldi	r22, 0xA0	; 160
    3b00:	74 e1       	ldi	r23, 0x14	; 20
    3b02:	80 e0       	ldi	r24, 0x00	; 0
    3b04:	90 e0       	ldi	r25, 0x00	; 0
    3b06:	0e 94 8c 22 	call	0x4518	; 0x4518 <nm_write_reg>
    3b0a:	8a 81       	ldd	r24, Y+2	; 0x02
    3b0c:	9b 81       	ldd	r25, Y+3	; 0x03
    3b0e:	ac 81       	ldd	r26, Y+4	; 0x04
    3b10:	bd 81       	ldd	r27, Y+5	; 0x05
    3b12:	89 2b       	or	r24, r25
    3b14:	8a 2b       	or	r24, r26
    3b16:	8b 2b       	or	r24, r27
    3b18:	f9 f0       	breq	.+62     	; 0x3b58 <chip_apply_conf+0xa0>
    3b1a:	1e 82       	std	Y+6, r1	; 0x06
    3b1c:	1f 82       	std	Y+7, r1	; 0x07
    3b1e:	18 86       	std	Y+8, r1	; 0x08
    3b20:	19 86       	std	Y+9, r1	; 0x09
    3b22:	ce 01       	movw	r24, r28
    3b24:	06 96       	adiw	r24, 0x06	; 6
    3b26:	ac 01       	movw	r20, r24
    3b28:	60 ea       	ldi	r22, 0xA0	; 160
    3b2a:	74 e1       	ldi	r23, 0x14	; 20
    3b2c:	80 e0       	ldi	r24, 0x00	; 0
    3b2e:	90 e0       	ldi	r25, 0x00	; 0
    3b30:	0e 94 6e 22 	call	0x44dc	; 0x44dc <nm_read_reg_with_ret>
    3b34:	89 83       	std	Y+1, r24	; 0x01
    3b36:	89 81       	ldd	r24, Y+1	; 0x01
    3b38:	88 23       	and	r24, r24
    3b3a:	d9 f6       	brne	.-74     	; 0x3af2 <chip_apply_conf+0x3a>
    3b3c:	2e 81       	ldd	r18, Y+6	; 0x06
    3b3e:	3f 81       	ldd	r19, Y+7	; 0x07
    3b40:	48 85       	ldd	r20, Y+8	; 0x08
    3b42:	59 85       	ldd	r21, Y+9	; 0x09
    3b44:	8a 81       	ldd	r24, Y+2	; 0x02
    3b46:	9b 81       	ldd	r25, Y+3	; 0x03
    3b48:	ac 81       	ldd	r26, Y+4	; 0x04
    3b4a:	bd 81       	ldd	r27, Y+5	; 0x05
    3b4c:	28 17       	cp	r18, r24
    3b4e:	39 07       	cpc	r19, r25
    3b50:	4a 07       	cpc	r20, r26
    3b52:	5b 07       	cpc	r21, r27
    3b54:	19 f0       	breq	.+6      	; 0x3b5c <chip_apply_conf+0xa4>
    3b56:	cd cf       	rjmp	.-102    	; 0x3af2 <chip_apply_conf+0x3a>
    3b58:	00 00       	nop
    3b5a:	01 c0       	rjmp	.+2      	; 0x3b5e <chip_apply_conf+0xa6>
    3b5c:	00 00       	nop
    3b5e:	80 e0       	ldi	r24, 0x00	; 0
    3b60:	2d 96       	adiw	r28, 0x0d	; 13
    3b62:	cd bf       	out	0x3d, r28	; 61
    3b64:	de bf       	out	0x3e, r29	; 62
    3b66:	df 91       	pop	r29
    3b68:	cf 91       	pop	r28
    3b6a:	08 95       	ret

00003b6c <enable_interrupts>:
    3b6c:	cf 93       	push	r28
    3b6e:	df 93       	push	r29
    3b70:	cd b7       	in	r28, 0x3d	; 61
    3b72:	de b7       	in	r29, 0x3e	; 62
    3b74:	25 97       	sbiw	r28, 0x05	; 5
    3b76:	cd bf       	out	0x3d, r28	; 61
    3b78:	de bf       	out	0x3e, r29	; 62
    3b7a:	1a 82       	std	Y+2, r1	; 0x02
    3b7c:	1b 82       	std	Y+3, r1	; 0x03
    3b7e:	1c 82       	std	Y+4, r1	; 0x04
    3b80:	1d 82       	std	Y+5, r1	; 0x05
    3b82:	19 82       	std	Y+1, r1	; 0x01
    3b84:	ce 01       	movw	r24, r28
    3b86:	02 96       	adiw	r24, 0x02	; 2
    3b88:	ac 01       	movw	r20, r24
    3b8a:	68 e0       	ldi	r22, 0x08	; 8
    3b8c:	74 e1       	ldi	r23, 0x14	; 20
    3b8e:	80 e0       	ldi	r24, 0x00	; 0
    3b90:	90 e0       	ldi	r25, 0x00	; 0
    3b92:	0e 94 6e 22 	call	0x44dc	; 0x44dc <nm_read_reg_with_ret>
    3b96:	89 83       	std	Y+1, r24	; 0x01
    3b98:	89 81       	ldd	r24, Y+1	; 0x01
    3b9a:	88 23       	and	r24, r24
    3b9c:	e9 f5       	brne	.+122    	; 0x3c18 <enable_interrupts+0xac>
    3b9e:	8a 81       	ldd	r24, Y+2	; 0x02
    3ba0:	9b 81       	ldd	r25, Y+3	; 0x03
    3ba2:	ac 81       	ldd	r26, Y+4	; 0x04
    3ba4:	bd 81       	ldd	r27, Y+5	; 0x05
    3ba6:	91 60       	ori	r25, 0x01	; 1
    3ba8:	8a 83       	std	Y+2, r24	; 0x02
    3baa:	9b 83       	std	Y+3, r25	; 0x03
    3bac:	ac 83       	std	Y+4, r26	; 0x04
    3bae:	bd 83       	std	Y+5, r27	; 0x05
    3bb0:	8a 81       	ldd	r24, Y+2	; 0x02
    3bb2:	9b 81       	ldd	r25, Y+3	; 0x03
    3bb4:	ac 81       	ldd	r26, Y+4	; 0x04
    3bb6:	bd 81       	ldd	r27, Y+5	; 0x05
    3bb8:	9c 01       	movw	r18, r24
    3bba:	ad 01       	movw	r20, r26
    3bbc:	68 e0       	ldi	r22, 0x08	; 8
    3bbe:	74 e1       	ldi	r23, 0x14	; 20
    3bc0:	80 e0       	ldi	r24, 0x00	; 0
    3bc2:	90 e0       	ldi	r25, 0x00	; 0
    3bc4:	0e 94 8c 22 	call	0x4518	; 0x4518 <nm_write_reg>
    3bc8:	89 83       	std	Y+1, r24	; 0x01
    3bca:	89 81       	ldd	r24, Y+1	; 0x01
    3bcc:	88 23       	and	r24, r24
    3bce:	31 f5       	brne	.+76     	; 0x3c1c <enable_interrupts+0xb0>
    3bd0:	ce 01       	movw	r24, r28
    3bd2:	02 96       	adiw	r24, 0x02	; 2
    3bd4:	ac 01       	movw	r20, r24
    3bd6:	60 e0       	ldi	r22, 0x00	; 0
    3bd8:	7a e1       	ldi	r23, 0x1A	; 26
    3bda:	80 e0       	ldi	r24, 0x00	; 0
    3bdc:	90 e0       	ldi	r25, 0x00	; 0
    3bde:	0e 94 6e 22 	call	0x44dc	; 0x44dc <nm_read_reg_with_ret>
    3be2:	89 83       	std	Y+1, r24	; 0x01
    3be4:	89 81       	ldd	r24, Y+1	; 0x01
    3be6:	88 23       	and	r24, r24
    3be8:	d9 f4       	brne	.+54     	; 0x3c20 <enable_interrupts+0xb4>
    3bea:	8a 81       	ldd	r24, Y+2	; 0x02
    3bec:	9b 81       	ldd	r25, Y+3	; 0x03
    3bee:	ac 81       	ldd	r26, Y+4	; 0x04
    3bf0:	bd 81       	ldd	r27, Y+5	; 0x05
    3bf2:	a1 60       	ori	r26, 0x01	; 1
    3bf4:	8a 83       	std	Y+2, r24	; 0x02
    3bf6:	9b 83       	std	Y+3, r25	; 0x03
    3bf8:	ac 83       	std	Y+4, r26	; 0x04
    3bfa:	bd 83       	std	Y+5, r27	; 0x05
    3bfc:	8a 81       	ldd	r24, Y+2	; 0x02
    3bfe:	9b 81       	ldd	r25, Y+3	; 0x03
    3c00:	ac 81       	ldd	r26, Y+4	; 0x04
    3c02:	bd 81       	ldd	r27, Y+5	; 0x05
    3c04:	9c 01       	movw	r18, r24
    3c06:	ad 01       	movw	r20, r26
    3c08:	60 e0       	ldi	r22, 0x00	; 0
    3c0a:	7a e1       	ldi	r23, 0x1A	; 26
    3c0c:	80 e0       	ldi	r24, 0x00	; 0
    3c0e:	90 e0       	ldi	r25, 0x00	; 0
    3c10:	0e 94 8c 22 	call	0x4518	; 0x4518 <nm_write_reg>
    3c14:	89 83       	std	Y+1, r24	; 0x01
    3c16:	05 c0       	rjmp	.+10     	; 0x3c22 <enable_interrupts+0xb6>
    3c18:	00 00       	nop
    3c1a:	03 c0       	rjmp	.+6      	; 0x3c22 <enable_interrupts+0xb6>
    3c1c:	00 00       	nop
    3c1e:	01 c0       	rjmp	.+2      	; 0x3c22 <enable_interrupts+0xb6>
    3c20:	00 00       	nop
    3c22:	89 81       	ldd	r24, Y+1	; 0x01
    3c24:	25 96       	adiw	r28, 0x05	; 5
    3c26:	cd bf       	out	0x3d, r28	; 61
    3c28:	de bf       	out	0x3e, r29	; 62
    3c2a:	df 91       	pop	r29
    3c2c:	cf 91       	pop	r28
    3c2e:	08 95       	ret

00003c30 <nmi_get_chipid>:
    3c30:	cf 93       	push	r28
    3c32:	df 93       	push	r29
    3c34:	00 d0       	rcall	.+0      	; 0x3c36 <nmi_get_chipid+0x6>
    3c36:	00 d0       	rcall	.+0      	; 0x3c38 <nmi_get_chipid+0x8>
    3c38:	cd b7       	in	r28, 0x3d	; 61
    3c3a:	de b7       	in	r29, 0x3e	; 62
    3c3c:	80 91 0d 2e 	lds	r24, 0x2E0D	; 0x802e0d <chipid.2327>
    3c40:	90 91 0e 2e 	lds	r25, 0x2E0E	; 0x802e0e <chipid.2327+0x1>
    3c44:	a0 91 0f 2e 	lds	r26, 0x2E0F	; 0x802e0f <chipid.2327+0x2>
    3c48:	b0 91 10 2e 	lds	r27, 0x2E10	; 0x802e10 <chipid.2327+0x3>
    3c4c:	89 2b       	or	r24, r25
    3c4e:	8a 2b       	or	r24, r26
    3c50:	8b 2b       	or	r24, r27
    3c52:	09 f0       	breq	.+2      	; 0x3c56 <nmi_get_chipid+0x26>
    3c54:	cd c0       	rjmp	.+410    	; 0x3df0 <nmi_get_chipid+0x1c0>
    3c56:	4d e0       	ldi	r20, 0x0D	; 13
    3c58:	5e e2       	ldi	r21, 0x2E	; 46
    3c5a:	60 e0       	ldi	r22, 0x00	; 0
    3c5c:	70 e1       	ldi	r23, 0x10	; 16
    3c5e:	80 e0       	ldi	r24, 0x00	; 0
    3c60:	90 e0       	ldi	r25, 0x00	; 0
    3c62:	0e 94 6e 22 	call	0x44dc	; 0x44dc <nm_read_reg_with_ret>
    3c66:	88 23       	and	r24, r24
    3c68:	61 f0       	breq	.+24     	; 0x3c82 <nmi_get_chipid+0x52>
    3c6a:	10 92 0d 2e 	sts	0x2E0D, r1	; 0x802e0d <chipid.2327>
    3c6e:	10 92 0e 2e 	sts	0x2E0E, r1	; 0x802e0e <chipid.2327+0x1>
    3c72:	10 92 0f 2e 	sts	0x2E0F, r1	; 0x802e0f <chipid.2327+0x2>
    3c76:	10 92 10 2e 	sts	0x2E10, r1	; 0x802e10 <chipid.2327+0x3>
    3c7a:	80 e0       	ldi	r24, 0x00	; 0
    3c7c:	90 e0       	ldi	r25, 0x00	; 0
    3c7e:	dc 01       	movw	r26, r24
    3c80:	bf c0       	rjmp	.+382    	; 0x3e00 <nmi_get_chipid+0x1d0>
    3c82:	ce 01       	movw	r24, r28
    3c84:	01 96       	adiw	r24, 0x01	; 1
    3c86:	ac 01       	movw	r20, r24
    3c88:	64 ef       	ldi	r22, 0xF4	; 244
    3c8a:	73 e1       	ldi	r23, 0x13	; 19
    3c8c:	80 e0       	ldi	r24, 0x00	; 0
    3c8e:	90 e0       	ldi	r25, 0x00	; 0
    3c90:	0e 94 6e 22 	call	0x44dc	; 0x44dc <nm_read_reg_with_ret>
    3c94:	88 23       	and	r24, r24
    3c96:	61 f0       	breq	.+24     	; 0x3cb0 <nmi_get_chipid+0x80>
    3c98:	10 92 0d 2e 	sts	0x2E0D, r1	; 0x802e0d <chipid.2327>
    3c9c:	10 92 0e 2e 	sts	0x2E0E, r1	; 0x802e0e <chipid.2327+0x1>
    3ca0:	10 92 0f 2e 	sts	0x2E0F, r1	; 0x802e0f <chipid.2327+0x2>
    3ca4:	10 92 10 2e 	sts	0x2E10, r1	; 0x802e10 <chipid.2327+0x3>
    3ca8:	80 e0       	ldi	r24, 0x00	; 0
    3caa:	90 e0       	ldi	r25, 0x00	; 0
    3cac:	dc 01       	movw	r26, r24
    3cae:	a8 c0       	rjmp	.+336    	; 0x3e00 <nmi_get_chipid+0x1d0>
    3cb0:	80 91 0d 2e 	lds	r24, 0x2E0D	; 0x802e0d <chipid.2327>
    3cb4:	90 91 0e 2e 	lds	r25, 0x2E0E	; 0x802e0e <chipid.2327+0x1>
    3cb8:	a0 91 0f 2e 	lds	r26, 0x2E0F	; 0x802e0f <chipid.2327+0x2>
    3cbc:	b0 91 10 2e 	lds	r27, 0x2E10	; 0x802e10 <chipid.2327+0x3>
    3cc0:	80 3a       	cpi	r24, 0xA0	; 160
    3cc2:	92 40       	sbci	r25, 0x02	; 2
    3cc4:	a0 41       	sbci	r26, 0x10	; 16
    3cc6:	b1 05       	cpc	r27, r1
    3cc8:	b1 f4       	brne	.+44     	; 0x3cf6 <nmi_get_chipid+0xc6>
    3cca:	89 81       	ldd	r24, Y+1	; 0x01
    3ccc:	9a 81       	ldd	r25, Y+2	; 0x02
    3cce:	ab 81       	ldd	r26, Y+3	; 0x03
    3cd0:	bc 81       	ldd	r27, Y+4	; 0x04
    3cd2:	01 97       	sbiw	r24, 0x01	; 1
    3cd4:	a1 05       	cpc	r26, r1
    3cd6:	b1 05       	cpc	r27, r1
    3cd8:	09 f4       	brne	.+2      	; 0x3cdc <nmi_get_chipid+0xac>
    3cda:	68 c0       	rjmp	.+208    	; 0x3dac <nmi_get_chipid+0x17c>
    3cdc:	81 ea       	ldi	r24, 0xA1	; 161
    3cde:	92 e0       	ldi	r25, 0x02	; 2
    3ce0:	a0 e1       	ldi	r26, 0x10	; 16
    3ce2:	b0 e0       	ldi	r27, 0x00	; 0
    3ce4:	80 93 0d 2e 	sts	0x2E0D, r24	; 0x802e0d <chipid.2327>
    3ce8:	90 93 0e 2e 	sts	0x2E0E, r25	; 0x802e0e <chipid.2327+0x1>
    3cec:	a0 93 0f 2e 	sts	0x2E0F, r26	; 0x802e0f <chipid.2327+0x2>
    3cf0:	b0 93 10 2e 	sts	0x2E10, r27	; 0x802e10 <chipid.2327+0x3>
    3cf4:	5b c0       	rjmp	.+182    	; 0x3dac <nmi_get_chipid+0x17c>
    3cf6:	80 91 0d 2e 	lds	r24, 0x2E0D	; 0x802e0d <chipid.2327>
    3cfa:	90 91 0e 2e 	lds	r25, 0x2E0E	; 0x802e0e <chipid.2327+0x1>
    3cfe:	a0 91 0f 2e 	lds	r26, 0x2E0F	; 0x802e0f <chipid.2327+0x2>
    3d02:	b0 91 10 2e 	lds	r27, 0x2E10	; 0x802e10 <chipid.2327+0x3>
    3d06:	80 3b       	cpi	r24, 0xB0	; 176
    3d08:	92 40       	sbci	r25, 0x02	; 2
    3d0a:	a0 41       	sbci	r26, 0x10	; 16
    3d0c:	b1 05       	cpc	r27, r1
    3d0e:	59 f5       	brne	.+86     	; 0x3d66 <nmi_get_chipid+0x136>
    3d10:	89 81       	ldd	r24, Y+1	; 0x01
    3d12:	9a 81       	ldd	r25, Y+2	; 0x02
    3d14:	ab 81       	ldd	r26, Y+3	; 0x03
    3d16:	bc 81       	ldd	r27, Y+4	; 0x04
    3d18:	03 97       	sbiw	r24, 0x03	; 3
    3d1a:	a1 05       	cpc	r26, r1
    3d1c:	b1 05       	cpc	r27, r1
    3d1e:	09 f4       	brne	.+2      	; 0x3d22 <nmi_get_chipid+0xf2>
    3d20:	45 c0       	rjmp	.+138    	; 0x3dac <nmi_get_chipid+0x17c>
    3d22:	89 81       	ldd	r24, Y+1	; 0x01
    3d24:	9a 81       	ldd	r25, Y+2	; 0x02
    3d26:	ab 81       	ldd	r26, Y+3	; 0x03
    3d28:	bc 81       	ldd	r27, Y+4	; 0x04
    3d2a:	04 97       	sbiw	r24, 0x04	; 4
    3d2c:	a1 05       	cpc	r26, r1
    3d2e:	b1 05       	cpc	r27, r1
    3d30:	69 f4       	brne	.+26     	; 0x3d4c <nmi_get_chipid+0x11c>
    3d32:	81 eb       	ldi	r24, 0xB1	; 177
    3d34:	92 e0       	ldi	r25, 0x02	; 2
    3d36:	a0 e1       	ldi	r26, 0x10	; 16
    3d38:	b0 e0       	ldi	r27, 0x00	; 0
    3d3a:	80 93 0d 2e 	sts	0x2E0D, r24	; 0x802e0d <chipid.2327>
    3d3e:	90 93 0e 2e 	sts	0x2E0E, r25	; 0x802e0e <chipid.2327+0x1>
    3d42:	a0 93 0f 2e 	sts	0x2E0F, r26	; 0x802e0f <chipid.2327+0x2>
    3d46:	b0 93 10 2e 	sts	0x2E10, r27	; 0x802e10 <chipid.2327+0x3>
    3d4a:	30 c0       	rjmp	.+96     	; 0x3dac <nmi_get_chipid+0x17c>
    3d4c:	82 eb       	ldi	r24, 0xB2	; 178
    3d4e:	92 e0       	ldi	r25, 0x02	; 2
    3d50:	a0 e1       	ldi	r26, 0x10	; 16
    3d52:	b0 e0       	ldi	r27, 0x00	; 0
    3d54:	80 93 0d 2e 	sts	0x2E0D, r24	; 0x802e0d <chipid.2327>
    3d58:	90 93 0e 2e 	sts	0x2E0E, r25	; 0x802e0e <chipid.2327+0x1>
    3d5c:	a0 93 0f 2e 	sts	0x2E0F, r26	; 0x802e0f <chipid.2327+0x2>
    3d60:	b0 93 10 2e 	sts	0x2E10, r27	; 0x802e10 <chipid.2327+0x3>
    3d64:	23 c0       	rjmp	.+70     	; 0x3dac <nmi_get_chipid+0x17c>
    3d66:	80 91 0d 2e 	lds	r24, 0x2E0D	; 0x802e0d <chipid.2327>
    3d6a:	90 91 0e 2e 	lds	r25, 0x2E0E	; 0x802e0e <chipid.2327+0x1>
    3d6e:	a0 91 0f 2e 	lds	r26, 0x2E0F	; 0x802e0f <chipid.2327+0x2>
    3d72:	b0 91 10 2e 	lds	r27, 0x2E10	; 0x802e10 <chipid.2327+0x3>
    3d76:	80 3f       	cpi	r24, 0xF0	; 240
    3d78:	91 05       	cpc	r25, r1
    3d7a:	a0 41       	sbci	r26, 0x10	; 16
    3d7c:	b1 05       	cpc	r27, r1
    3d7e:	b1 f4       	brne	.+44     	; 0x3dac <nmi_get_chipid+0x17c>
    3d80:	4d e0       	ldi	r20, 0x0D	; 13
    3d82:	5e e2       	ldi	r21, 0x2E	; 46
    3d84:	60 e0       	ldi	r22, 0x00	; 0
    3d86:	70 e0       	ldi	r23, 0x00	; 0
    3d88:	8b e3       	ldi	r24, 0x3B	; 59
    3d8a:	90 e0       	ldi	r25, 0x00	; 0
    3d8c:	0e 94 6e 22 	call	0x44dc	; 0x44dc <nm_read_reg_with_ret>
    3d90:	88 23       	and	r24, r24
    3d92:	61 f0       	breq	.+24     	; 0x3dac <nmi_get_chipid+0x17c>
    3d94:	10 92 0d 2e 	sts	0x2E0D, r1	; 0x802e0d <chipid.2327>
    3d98:	10 92 0e 2e 	sts	0x2E0E, r1	; 0x802e0e <chipid.2327+0x1>
    3d9c:	10 92 0f 2e 	sts	0x2E0F, r1	; 0x802e0f <chipid.2327+0x2>
    3da0:	10 92 10 2e 	sts	0x2E10, r1	; 0x802e10 <chipid.2327+0x3>
    3da4:	80 e0       	ldi	r24, 0x00	; 0
    3da6:	90 e0       	ldi	r25, 0x00	; 0
    3da8:	dc 01       	movw	r26, r24
    3daa:	2a c0       	rjmp	.+84     	; 0x3e00 <nmi_get_chipid+0x1d0>
    3dac:	80 91 0d 2e 	lds	r24, 0x2E0D	; 0x802e0d <chipid.2327>
    3db0:	90 91 0e 2e 	lds	r25, 0x2E0E	; 0x802e0e <chipid.2327+0x1>
    3db4:	a0 91 0f 2e 	lds	r26, 0x2E0F	; 0x802e0f <chipid.2327+0x2>
    3db8:	b0 91 10 2e 	lds	r27, 0x2E10	; 0x802e10 <chipid.2327+0x3>
    3dbc:	a0 7f       	andi	r26, 0xF0	; 240
    3dbe:	80 93 0d 2e 	sts	0x2E0D, r24	; 0x802e0d <chipid.2327>
    3dc2:	90 93 0e 2e 	sts	0x2E0E, r25	; 0x802e0e <chipid.2327+0x1>
    3dc6:	a0 93 0f 2e 	sts	0x2E0F, r26	; 0x802e0f <chipid.2327+0x2>
    3dca:	b0 93 10 2e 	sts	0x2E10, r27	; 0x802e10 <chipid.2327+0x3>
    3dce:	80 91 0d 2e 	lds	r24, 0x2E0D	; 0x802e0d <chipid.2327>
    3dd2:	90 91 0e 2e 	lds	r25, 0x2E0E	; 0x802e0e <chipid.2327+0x1>
    3dd6:	a0 91 0f 2e 	lds	r26, 0x2E0F	; 0x802e0f <chipid.2327+0x2>
    3dda:	b0 91 10 2e 	lds	r27, 0x2E10	; 0x802e10 <chipid.2327+0x3>
    3dde:	a5 60       	ori	r26, 0x05	; 5
    3de0:	80 93 0d 2e 	sts	0x2E0D, r24	; 0x802e0d <chipid.2327>
    3de4:	90 93 0e 2e 	sts	0x2E0E, r25	; 0x802e0e <chipid.2327+0x1>
    3de8:	a0 93 0f 2e 	sts	0x2E0F, r26	; 0x802e0f <chipid.2327+0x2>
    3dec:	b0 93 10 2e 	sts	0x2E10, r27	; 0x802e10 <chipid.2327+0x3>
    3df0:	80 91 0d 2e 	lds	r24, 0x2E0D	; 0x802e0d <chipid.2327>
    3df4:	90 91 0e 2e 	lds	r25, 0x2E0E	; 0x802e0e <chipid.2327+0x1>
    3df8:	a0 91 0f 2e 	lds	r26, 0x2E0F	; 0x802e0f <chipid.2327+0x2>
    3dfc:	b0 91 10 2e 	lds	r27, 0x2E10	; 0x802e10 <chipid.2327+0x3>
    3e00:	bc 01       	movw	r22, r24
    3e02:	cd 01       	movw	r24, r26
    3e04:	24 96       	adiw	r28, 0x04	; 4
    3e06:	cd bf       	out	0x3d, r28	; 61
    3e08:	de bf       	out	0x3e, r29	; 62
    3e0a:	df 91       	pop	r29
    3e0c:	cf 91       	pop	r28
    3e0e:	08 95       	ret

00003e10 <chip_sleep>:
    3e10:	cf 93       	push	r28
    3e12:	df 93       	push	r29
    3e14:	cd b7       	in	r28, 0x3d	; 61
    3e16:	de b7       	in	r29, 0x3e	; 62
    3e18:	25 97       	sbiw	r28, 0x05	; 5
    3e1a:	cd bf       	out	0x3d, r28	; 61
    3e1c:	de bf       	out	0x3e, r29	; 62
    3e1e:	19 82       	std	Y+1, r1	; 0x01
    3e20:	ce 01       	movw	r24, r28
    3e22:	02 96       	adiw	r24, 0x02	; 2
    3e24:	ac 01       	movw	r20, r24
    3e26:	60 e1       	ldi	r22, 0x10	; 16
    3e28:	70 e0       	ldi	r23, 0x00	; 0
    3e2a:	80 e0       	ldi	r24, 0x00	; 0
    3e2c:	90 e0       	ldi	r25, 0x00	; 0
    3e2e:	0e 94 6e 22 	call	0x44dc	; 0x44dc <nm_read_reg_with_ret>
    3e32:	89 83       	std	Y+1, r24	; 0x01
    3e34:	89 81       	ldd	r24, Y+1	; 0x01
    3e36:	88 23       	and	r24, r24
    3e38:	09 f0       	breq	.+2      	; 0x3e3c <chip_sleep+0x2c>
    3e3a:	71 c0       	rjmp	.+226    	; 0x3f1e <chip_sleep+0x10e>
    3e3c:	8a 81       	ldd	r24, Y+2	; 0x02
    3e3e:	9b 81       	ldd	r25, Y+3	; 0x03
    3e40:	ac 81       	ldd	r26, Y+4	; 0x04
    3e42:	bd 81       	ldd	r27, Y+5	; 0x05
    3e44:	81 70       	andi	r24, 0x01	; 1
    3e46:	99 27       	eor	r25, r25
    3e48:	aa 27       	eor	r26, r26
    3e4a:	bb 27       	eor	r27, r27
    3e4c:	89 2b       	or	r24, r25
    3e4e:	8a 2b       	or	r24, r26
    3e50:	8b 2b       	or	r24, r27
    3e52:	09 f0       	breq	.+2      	; 0x3e56 <chip_sleep+0x46>
    3e54:	e5 cf       	rjmp	.-54     	; 0x3e20 <chip_sleep+0x10>
    3e56:	00 00       	nop
    3e58:	ce 01       	movw	r24, r28
    3e5a:	02 96       	adiw	r24, 0x02	; 2
    3e5c:	ac 01       	movw	r20, r24
    3e5e:	61 e0       	ldi	r22, 0x01	; 1
    3e60:	70 e0       	ldi	r23, 0x00	; 0
    3e62:	80 e0       	ldi	r24, 0x00	; 0
    3e64:	90 e0       	ldi	r25, 0x00	; 0
    3e66:	0e 94 6e 22 	call	0x44dc	; 0x44dc <nm_read_reg_with_ret>
    3e6a:	89 83       	std	Y+1, r24	; 0x01
    3e6c:	89 81       	ldd	r24, Y+1	; 0x01
    3e6e:	88 23       	and	r24, r24
    3e70:	09 f0       	breq	.+2      	; 0x3e74 <chip_sleep+0x64>
    3e72:	57 c0       	rjmp	.+174    	; 0x3f22 <chip_sleep+0x112>
    3e74:	8a 81       	ldd	r24, Y+2	; 0x02
    3e76:	9b 81       	ldd	r25, Y+3	; 0x03
    3e78:	ac 81       	ldd	r26, Y+4	; 0x04
    3e7a:	bd 81       	ldd	r27, Y+5	; 0x05
    3e7c:	82 70       	andi	r24, 0x02	; 2
    3e7e:	99 27       	eor	r25, r25
    3e80:	aa 27       	eor	r26, r26
    3e82:	bb 27       	eor	r27, r27
    3e84:	89 2b       	or	r24, r25
    3e86:	8a 2b       	or	r24, r26
    3e88:	8b 2b       	or	r24, r27
    3e8a:	c9 f0       	breq	.+50     	; 0x3ebe <chip_sleep+0xae>
    3e8c:	8a 81       	ldd	r24, Y+2	; 0x02
    3e8e:	9b 81       	ldd	r25, Y+3	; 0x03
    3e90:	ac 81       	ldd	r26, Y+4	; 0x04
    3e92:	bd 81       	ldd	r27, Y+5	; 0x05
    3e94:	8d 7f       	andi	r24, 0xFD	; 253
    3e96:	8a 83       	std	Y+2, r24	; 0x02
    3e98:	9b 83       	std	Y+3, r25	; 0x03
    3e9a:	ac 83       	std	Y+4, r26	; 0x04
    3e9c:	bd 83       	std	Y+5, r27	; 0x05
    3e9e:	8a 81       	ldd	r24, Y+2	; 0x02
    3ea0:	9b 81       	ldd	r25, Y+3	; 0x03
    3ea2:	ac 81       	ldd	r26, Y+4	; 0x04
    3ea4:	bd 81       	ldd	r27, Y+5	; 0x05
    3ea6:	9c 01       	movw	r18, r24
    3ea8:	ad 01       	movw	r20, r26
    3eaa:	61 e0       	ldi	r22, 0x01	; 1
    3eac:	70 e0       	ldi	r23, 0x00	; 0
    3eae:	80 e0       	ldi	r24, 0x00	; 0
    3eb0:	90 e0       	ldi	r25, 0x00	; 0
    3eb2:	0e 94 8c 22 	call	0x4518	; 0x4518 <nm_write_reg>
    3eb6:	89 83       	std	Y+1, r24	; 0x01
    3eb8:	89 81       	ldd	r24, Y+1	; 0x01
    3eba:	88 23       	and	r24, r24
    3ebc:	a1 f5       	brne	.+104    	; 0x3f26 <chip_sleep+0x116>
    3ebe:	ce 01       	movw	r24, r28
    3ec0:	02 96       	adiw	r24, 0x02	; 2
    3ec2:	ac 01       	movw	r20, r24
    3ec4:	6b e0       	ldi	r22, 0x0B	; 11
    3ec6:	70 e0       	ldi	r23, 0x00	; 0
    3ec8:	80 e0       	ldi	r24, 0x00	; 0
    3eca:	90 e0       	ldi	r25, 0x00	; 0
    3ecc:	0e 94 6e 22 	call	0x44dc	; 0x44dc <nm_read_reg_with_ret>
    3ed0:	89 83       	std	Y+1, r24	; 0x01
    3ed2:	89 81       	ldd	r24, Y+1	; 0x01
    3ed4:	88 23       	and	r24, r24
    3ed6:	49 f5       	brne	.+82     	; 0x3f2a <chip_sleep+0x11a>
    3ed8:	8a 81       	ldd	r24, Y+2	; 0x02
    3eda:	9b 81       	ldd	r25, Y+3	; 0x03
    3edc:	ac 81       	ldd	r26, Y+4	; 0x04
    3ede:	bd 81       	ldd	r27, Y+5	; 0x05
    3ee0:	81 70       	andi	r24, 0x01	; 1
    3ee2:	99 27       	eor	r25, r25
    3ee4:	aa 27       	eor	r26, r26
    3ee6:	bb 27       	eor	r27, r27
    3ee8:	89 2b       	or	r24, r25
    3eea:	8a 2b       	or	r24, r26
    3eec:	8b 2b       	or	r24, r27
    3eee:	f1 f0       	breq	.+60     	; 0x3f2c <chip_sleep+0x11c>
    3ef0:	8a 81       	ldd	r24, Y+2	; 0x02
    3ef2:	9b 81       	ldd	r25, Y+3	; 0x03
    3ef4:	ac 81       	ldd	r26, Y+4	; 0x04
    3ef6:	bd 81       	ldd	r27, Y+5	; 0x05
    3ef8:	8e 7f       	andi	r24, 0xFE	; 254
    3efa:	8a 83       	std	Y+2, r24	; 0x02
    3efc:	9b 83       	std	Y+3, r25	; 0x03
    3efe:	ac 83       	std	Y+4, r26	; 0x04
    3f00:	bd 83       	std	Y+5, r27	; 0x05
    3f02:	8a 81       	ldd	r24, Y+2	; 0x02
    3f04:	9b 81       	ldd	r25, Y+3	; 0x03
    3f06:	ac 81       	ldd	r26, Y+4	; 0x04
    3f08:	bd 81       	ldd	r27, Y+5	; 0x05
    3f0a:	9c 01       	movw	r18, r24
    3f0c:	ad 01       	movw	r20, r26
    3f0e:	6b e0       	ldi	r22, 0x0B	; 11
    3f10:	70 e0       	ldi	r23, 0x00	; 0
    3f12:	80 e0       	ldi	r24, 0x00	; 0
    3f14:	90 e0       	ldi	r25, 0x00	; 0
    3f16:	0e 94 8c 22 	call	0x4518	; 0x4518 <nm_write_reg>
    3f1a:	89 83       	std	Y+1, r24	; 0x01
    3f1c:	07 c0       	rjmp	.+14     	; 0x3f2c <chip_sleep+0x11c>
    3f1e:	00 00       	nop
    3f20:	05 c0       	rjmp	.+10     	; 0x3f2c <chip_sleep+0x11c>
    3f22:	00 00       	nop
    3f24:	03 c0       	rjmp	.+6      	; 0x3f2c <chip_sleep+0x11c>
    3f26:	00 00       	nop
    3f28:	01 c0       	rjmp	.+2      	; 0x3f2c <chip_sleep+0x11c>
    3f2a:	00 00       	nop
    3f2c:	89 81       	ldd	r24, Y+1	; 0x01
    3f2e:	25 96       	adiw	r28, 0x05	; 5
    3f30:	cd bf       	out	0x3d, r28	; 61
    3f32:	de bf       	out	0x3e, r29	; 62
    3f34:	df 91       	pop	r29
    3f36:	cf 91       	pop	r28
    3f38:	08 95       	ret

00003f3a <chip_wake>:
    3f3a:	cf 93       	push	r28
    3f3c:	df 93       	push	r29
    3f3e:	cd b7       	in	r28, 0x3d	; 61
    3f40:	de b7       	in	r29, 0x3e	; 62
    3f42:	2d 97       	sbiw	r28, 0x0d	; 13
    3f44:	cd bf       	out	0x3d, r28	; 61
    3f46:	de bf       	out	0x3e, r29	; 62
    3f48:	19 82       	std	Y+1, r1	; 0x01
    3f4a:	1e 82       	std	Y+6, r1	; 0x06
    3f4c:	1f 82       	std	Y+7, r1	; 0x07
    3f4e:	18 86       	std	Y+8, r1	; 0x08
    3f50:	19 86       	std	Y+9, r1	; 0x09
    3f52:	1a 86       	std	Y+10, r1	; 0x0a
    3f54:	1b 86       	std	Y+11, r1	; 0x0b
    3f56:	1c 86       	std	Y+12, r1	; 0x0c
    3f58:	1d 86       	std	Y+13, r1	; 0x0d
    3f5a:	1a 82       	std	Y+2, r1	; 0x02
    3f5c:	1b 82       	std	Y+3, r1	; 0x03
    3f5e:	1c 82       	std	Y+4, r1	; 0x04
    3f60:	1d 82       	std	Y+5, r1	; 0x05
    3f62:	ce 01       	movw	r24, r28
    3f64:	06 96       	adiw	r24, 0x06	; 6
    3f66:	ac 01       	movw	r20, r24
    3f68:	6b e0       	ldi	r22, 0x0B	; 11
    3f6a:	70 e0       	ldi	r23, 0x00	; 0
    3f6c:	80 e0       	ldi	r24, 0x00	; 0
    3f6e:	90 e0       	ldi	r25, 0x00	; 0
    3f70:	0e 94 6e 22 	call	0x44dc	; 0x44dc <nm_read_reg_with_ret>
    3f74:	89 83       	std	Y+1, r24	; 0x01
    3f76:	89 81       	ldd	r24, Y+1	; 0x01
    3f78:	88 23       	and	r24, r24
    3f7a:	09 f0       	breq	.+2      	; 0x3f7e <chip_wake+0x44>
    3f7c:	83 c0       	rjmp	.+262    	; 0x4084 <__RODATA_PM_OFFSET__+0x84>
    3f7e:	8e 81       	ldd	r24, Y+6	; 0x06
    3f80:	9f 81       	ldd	r25, Y+7	; 0x07
    3f82:	a8 85       	ldd	r26, Y+8	; 0x08
    3f84:	b9 85       	ldd	r27, Y+9	; 0x09
    3f86:	81 70       	andi	r24, 0x01	; 1
    3f88:	99 27       	eor	r25, r25
    3f8a:	aa 27       	eor	r26, r26
    3f8c:	bb 27       	eor	r27, r27
    3f8e:	89 2b       	or	r24, r25
    3f90:	8a 2b       	or	r24, r26
    3f92:	8b 2b       	or	r24, r27
    3f94:	91 f4       	brne	.+36     	; 0x3fba <chip_wake+0x80>
    3f96:	8e 81       	ldd	r24, Y+6	; 0x06
    3f98:	9f 81       	ldd	r25, Y+7	; 0x07
    3f9a:	a8 85       	ldd	r26, Y+8	; 0x08
    3f9c:	b9 85       	ldd	r27, Y+9	; 0x09
    3f9e:	81 60       	ori	r24, 0x01	; 1
    3fa0:	9c 01       	movw	r18, r24
    3fa2:	ad 01       	movw	r20, r26
    3fa4:	6b e0       	ldi	r22, 0x0B	; 11
    3fa6:	70 e0       	ldi	r23, 0x00	; 0
    3fa8:	80 e0       	ldi	r24, 0x00	; 0
    3faa:	90 e0       	ldi	r25, 0x00	; 0
    3fac:	0e 94 8c 22 	call	0x4518	; 0x4518 <nm_write_reg>
    3fb0:	89 83       	std	Y+1, r24	; 0x01
    3fb2:	89 81       	ldd	r24, Y+1	; 0x01
    3fb4:	88 23       	and	r24, r24
    3fb6:	09 f0       	breq	.+2      	; 0x3fba <chip_wake+0x80>
    3fb8:	67 c0       	rjmp	.+206    	; 0x4088 <__RODATA_PM_OFFSET__+0x88>
    3fba:	ce 01       	movw	r24, r28
    3fbc:	06 96       	adiw	r24, 0x06	; 6
    3fbe:	ac 01       	movw	r20, r24
    3fc0:	61 e0       	ldi	r22, 0x01	; 1
    3fc2:	70 e0       	ldi	r23, 0x00	; 0
    3fc4:	80 e0       	ldi	r24, 0x00	; 0
    3fc6:	90 e0       	ldi	r25, 0x00	; 0
    3fc8:	0e 94 6e 22 	call	0x44dc	; 0x44dc <nm_read_reg_with_ret>
    3fcc:	89 83       	std	Y+1, r24	; 0x01
    3fce:	89 81       	ldd	r24, Y+1	; 0x01
    3fd0:	88 23       	and	r24, r24
    3fd2:	09 f0       	breq	.+2      	; 0x3fd6 <chip_wake+0x9c>
    3fd4:	5b c0       	rjmp	.+182    	; 0x408c <__RODATA_PM_OFFSET__+0x8c>
    3fd6:	8e 81       	ldd	r24, Y+6	; 0x06
    3fd8:	9f 81       	ldd	r25, Y+7	; 0x07
    3fda:	a8 85       	ldd	r26, Y+8	; 0x08
    3fdc:	b9 85       	ldd	r27, Y+9	; 0x09
    3fde:	82 70       	andi	r24, 0x02	; 2
    3fe0:	99 27       	eor	r25, r25
    3fe2:	aa 27       	eor	r26, r26
    3fe4:	bb 27       	eor	r27, r27
    3fe6:	89 2b       	or	r24, r25
    3fe8:	8a 2b       	or	r24, r26
    3fea:	8b 2b       	or	r24, r27
    3fec:	91 f4       	brne	.+36     	; 0x4012 <__RODATA_PM_OFFSET__+0x12>
    3fee:	8e 81       	ldd	r24, Y+6	; 0x06
    3ff0:	9f 81       	ldd	r25, Y+7	; 0x07
    3ff2:	a8 85       	ldd	r26, Y+8	; 0x08
    3ff4:	b9 85       	ldd	r27, Y+9	; 0x09
    3ff6:	82 60       	ori	r24, 0x02	; 2
    3ff8:	9c 01       	movw	r18, r24
    3ffa:	ad 01       	movw	r20, r26
    3ffc:	61 e0       	ldi	r22, 0x01	; 1
    3ffe:	70 e0       	ldi	r23, 0x00	; 0
    4000:	80 e0       	ldi	r24, 0x00	; 0
    4002:	90 e0       	ldi	r25, 0x00	; 0
    4004:	0e 94 8c 22 	call	0x4518	; 0x4518 <nm_write_reg>
    4008:	89 83       	std	Y+1, r24	; 0x01
    400a:	89 81       	ldd	r24, Y+1	; 0x01
    400c:	88 23       	and	r24, r24
    400e:	09 f0       	breq	.+2      	; 0x4012 <__RODATA_PM_OFFSET__+0x12>
    4010:	3f c0       	rjmp	.+126    	; 0x4090 <__RODATA_PM_OFFSET__+0x90>
    4012:	ce 01       	movw	r24, r28
    4014:	0a 96       	adiw	r24, 0x0a	; 10
    4016:	ac 01       	movw	r20, r24
    4018:	6f e0       	ldi	r22, 0x0F	; 15
    401a:	70 e0       	ldi	r23, 0x00	; 0
    401c:	80 e0       	ldi	r24, 0x00	; 0
    401e:	90 e0       	ldi	r25, 0x00	; 0
    4020:	0e 94 6e 22 	call	0x44dc	; 0x44dc <nm_read_reg_with_ret>
    4024:	89 83       	std	Y+1, r24	; 0x01
    4026:	89 81       	ldd	r24, Y+1	; 0x01
    4028:	88 23       	and	r24, r24
    402a:	a1 f5       	brne	.+104    	; 0x4094 <__RODATA_PM_OFFSET__+0x94>
    402c:	8a 85       	ldd	r24, Y+10	; 0x0a
    402e:	9b 85       	ldd	r25, Y+11	; 0x0b
    4030:	ac 85       	ldd	r26, Y+12	; 0x0c
    4032:	bd 85       	ldd	r27, Y+13	; 0x0d
    4034:	84 70       	andi	r24, 0x04	; 4
    4036:	99 27       	eor	r25, r25
    4038:	aa 27       	eor	r26, r26
    403a:	bb 27       	eor	r27, r27
    403c:	89 2b       	or	r24, r25
    403e:	8a 2b       	or	r24, r26
    4040:	8b 2b       	or	r24, r27
    4042:	e1 f4       	brne	.+56     	; 0x407c <__RODATA_PM_OFFSET__+0x7c>
    4044:	62 e0       	ldi	r22, 0x02	; 2
    4046:	70 e0       	ldi	r23, 0x00	; 0
    4048:	80 e0       	ldi	r24, 0x00	; 0
    404a:	90 e0       	ldi	r25, 0x00	; 0
    404c:	0e 94 5c 0f 	call	0x1eb8	; 0x1eb8 <nm_bsp_sleep>
    4050:	8a 81       	ldd	r24, Y+2	; 0x02
    4052:	9b 81       	ldd	r25, Y+3	; 0x03
    4054:	ac 81       	ldd	r26, Y+4	; 0x04
    4056:	bd 81       	ldd	r27, Y+5	; 0x05
    4058:	01 96       	adiw	r24, 0x01	; 1
    405a:	a1 1d       	adc	r26, r1
    405c:	b1 1d       	adc	r27, r1
    405e:	8a 83       	std	Y+2, r24	; 0x02
    4060:	9b 83       	std	Y+3, r25	; 0x03
    4062:	ac 83       	std	Y+4, r26	; 0x04
    4064:	bd 83       	std	Y+5, r27	; 0x05
    4066:	8a 81       	ldd	r24, Y+2	; 0x02
    4068:	9b 81       	ldd	r25, Y+3	; 0x03
    406a:	ac 81       	ldd	r26, Y+4	; 0x04
    406c:	bd 81       	ldd	r27, Y+5	; 0x05
    406e:	05 97       	sbiw	r24, 0x05	; 5
    4070:	a1 05       	cpc	r26, r1
    4072:	b1 05       	cpc	r27, r1
    4074:	70 f2       	brcs	.-100    	; 0x4012 <__RODATA_PM_OFFSET__+0x12>
    4076:	8c ef       	ldi	r24, 0xFC	; 252
    4078:	89 83       	std	Y+1, r24	; 0x01
    407a:	0d c0       	rjmp	.+26     	; 0x4096 <__RODATA_PM_OFFSET__+0x96>
    407c:	00 00       	nop
    407e:	0e 94 46 22 	call	0x448c	; 0x448c <nm_bus_reset>
    4082:	09 c0       	rjmp	.+18     	; 0x4096 <__RODATA_PM_OFFSET__+0x96>
    4084:	00 00       	nop
    4086:	07 c0       	rjmp	.+14     	; 0x4096 <__RODATA_PM_OFFSET__+0x96>
    4088:	00 00       	nop
    408a:	05 c0       	rjmp	.+10     	; 0x4096 <__RODATA_PM_OFFSET__+0x96>
    408c:	00 00       	nop
    408e:	03 c0       	rjmp	.+6      	; 0x4096 <__RODATA_PM_OFFSET__+0x96>
    4090:	00 00       	nop
    4092:	01 c0       	rjmp	.+2      	; 0x4096 <__RODATA_PM_OFFSET__+0x96>
    4094:	00 00       	nop
    4096:	89 81       	ldd	r24, Y+1	; 0x01
    4098:	2d 96       	adiw	r28, 0x0d	; 13
    409a:	cd bf       	out	0x3d, r28	; 61
    409c:	de bf       	out	0x3e, r29	; 62
    409e:	df 91       	pop	r29
    40a0:	cf 91       	pop	r28
    40a2:	08 95       	ret

000040a4 <wait_for_bootrom>:
    40a4:	cf 93       	push	r28
    40a6:	df 93       	push	r29
    40a8:	cd b7       	in	r28, 0x3d	; 61
    40aa:	de b7       	in	r29, 0x3e	; 62
    40ac:	62 97       	sbiw	r28, 0x12	; 18
    40ae:	cd bf       	out	0x3d, r28	; 61
    40b0:	de bf       	out	0x3e, r29	; 62
    40b2:	8a 8b       	std	Y+18, r24	; 0x12
    40b4:	1d 86       	std	Y+13, r1	; 0x0d
    40b6:	19 82       	std	Y+1, r1	; 0x01
    40b8:	1a 82       	std	Y+2, r1	; 0x02
    40ba:	1b 82       	std	Y+3, r1	; 0x03
    40bc:	1c 82       	std	Y+4, r1	; 0x04
    40be:	1d 82       	std	Y+5, r1	; 0x05
    40c0:	1e 82       	std	Y+6, r1	; 0x06
    40c2:	1f 82       	std	Y+7, r1	; 0x07
    40c4:	18 86       	std	Y+8, r1	; 0x08
    40c6:	19 86       	std	Y+9, r1	; 0x09
    40c8:	1a 86       	std	Y+10, r1	; 0x0a
    40ca:	1b 86       	std	Y+11, r1	; 0x0b
    40cc:	1c 86       	std	Y+12, r1	; 0x0c
    40ce:	82 e5       	ldi	r24, 0x52	; 82
    40d0:	93 e1       	ldi	r25, 0x13	; 19
    40d2:	dc 01       	movw	r26, r24
    40d4:	8e 87       	std	Y+14, r24	; 0x0e
    40d6:	9f 87       	std	Y+15, r25	; 0x0f
    40d8:	a8 8b       	std	Y+16, r26	; 0x10
    40da:	b9 8b       	std	Y+17, r27	; 0x11
    40dc:	19 82       	std	Y+1, r1	; 0x01
    40de:	1a 82       	std	Y+2, r1	; 0x02
    40e0:	1b 82       	std	Y+3, r1	; 0x03
    40e2:	1c 82       	std	Y+4, r1	; 0x04
    40e4:	64 e1       	ldi	r22, 0x14	; 20
    40e6:	70 e1       	ldi	r23, 0x10	; 16
    40e8:	80 e0       	ldi	r24, 0x00	; 0
    40ea:	90 e0       	ldi	r25, 0x00	; 0
    40ec:	0e 94 52 22 	call	0x44a4	; 0x44a4 <nm_read_reg>
    40f0:	dc 01       	movw	r26, r24
    40f2:	cb 01       	movw	r24, r22
    40f4:	89 83       	std	Y+1, r24	; 0x01
    40f6:	9a 83       	std	Y+2, r25	; 0x02
    40f8:	ab 83       	std	Y+3, r26	; 0x03
    40fa:	bc 83       	std	Y+4, r27	; 0x04
    40fc:	89 81       	ldd	r24, Y+1	; 0x01
    40fe:	9a 81       	ldd	r25, Y+2	; 0x02
    4100:	ab 81       	ldd	r26, Y+3	; 0x03
    4102:	bc 81       	ldd	r27, Y+4	; 0x04
    4104:	bb 23       	and	r27, r27
    4106:	3c f0       	brlt	.+14     	; 0x4116 <wait_for_bootrom+0x72>
    4108:	61 e0       	ldi	r22, 0x01	; 1
    410a:	70 e0       	ldi	r23, 0x00	; 0
    410c:	80 e0       	ldi	r24, 0x00	; 0
    410e:	90 e0       	ldi	r25, 0x00	; 0
    4110:	0e 94 5c 0f 	call	0x1eb8	; 0x1eb8 <nm_bsp_sleep>
    4114:	e7 cf       	rjmp	.-50     	; 0x40e4 <wait_for_bootrom+0x40>
    4116:	00 00       	nop
    4118:	6c eb       	ldi	r22, 0xBC	; 188
    411a:	77 e0       	ldi	r23, 0x07	; 7
    411c:	82 e0       	ldi	r24, 0x02	; 2
    411e:	90 e0       	ldi	r25, 0x00	; 0
    4120:	0e 94 52 22 	call	0x44a4	; 0x44a4 <nm_read_reg>
    4124:	dc 01       	movw	r26, r24
    4126:	cb 01       	movw	r24, r22
    4128:	89 83       	std	Y+1, r24	; 0x01
    412a:	9a 83       	std	Y+2, r25	; 0x02
    412c:	ab 83       	std	Y+3, r26	; 0x03
    412e:	bc 83       	std	Y+4, r27	; 0x04
    4130:	89 81       	ldd	r24, Y+1	; 0x01
    4132:	9a 81       	ldd	r25, Y+2	; 0x02
    4134:	ab 81       	ldd	r26, Y+3	; 0x03
    4136:	bc 81       	ldd	r27, Y+4	; 0x04
    4138:	81 70       	andi	r24, 0x01	; 1
    413a:	99 27       	eor	r25, r25
    413c:	aa 27       	eor	r26, r26
    413e:	bb 27       	eor	r27, r27
    4140:	89 83       	std	Y+1, r24	; 0x01
    4142:	9a 83       	std	Y+2, r25	; 0x02
    4144:	ab 83       	std	Y+3, r26	; 0x03
    4146:	bc 83       	std	Y+4, r27	; 0x04
    4148:	89 81       	ldd	r24, Y+1	; 0x01
    414a:	9a 81       	ldd	r25, Y+2	; 0x02
    414c:	ab 81       	ldd	r26, Y+3	; 0x03
    414e:	bc 81       	ldd	r27, Y+4	; 0x04
    4150:	89 2b       	or	r24, r25
    4152:	8a 2b       	or	r24, r26
    4154:	8b 2b       	or	r24, r27
    4156:	51 f5       	brne	.+84     	; 0x41ac <wait_for_bootrom+0x108>
    4158:	19 82       	std	Y+1, r1	; 0x01
    415a:	1a 82       	std	Y+2, r1	; 0x02
    415c:	1b 82       	std	Y+3, r1	; 0x03
    415e:	1c 82       	std	Y+4, r1	; 0x04
    4160:	1c c0       	rjmp	.+56     	; 0x419a <wait_for_bootrom+0xf6>
    4162:	61 e0       	ldi	r22, 0x01	; 1
    4164:	70 e0       	ldi	r23, 0x00	; 0
    4166:	80 e0       	ldi	r24, 0x00	; 0
    4168:	90 e0       	ldi	r25, 0x00	; 0
    416a:	0e 94 5c 0f 	call	0x1eb8	; 0x1eb8 <nm_bsp_sleep>
    416e:	6c e0       	ldi	r22, 0x0C	; 12
    4170:	70 e0       	ldi	r23, 0x00	; 0
    4172:	cb 01       	movw	r24, r22
    4174:	0e 94 52 22 	call	0x44a4	; 0x44a4 <nm_read_reg>
    4178:	dc 01       	movw	r26, r24
    417a:	cb 01       	movw	r24, r22
    417c:	89 83       	std	Y+1, r24	; 0x01
    417e:	9a 83       	std	Y+2, r25	; 0x02
    4180:	ab 83       	std	Y+3, r26	; 0x03
    4182:	bc 83       	std	Y+4, r27	; 0x04
    4184:	8d 81       	ldd	r24, Y+5	; 0x05
    4186:	9e 81       	ldd	r25, Y+6	; 0x06
    4188:	af 81       	ldd	r26, Y+7	; 0x07
    418a:	b8 85       	ldd	r27, Y+8	; 0x08
    418c:	01 96       	adiw	r24, 0x01	; 1
    418e:	a1 1d       	adc	r26, r1
    4190:	b1 1d       	adc	r27, r1
    4192:	8d 83       	std	Y+5, r24	; 0x05
    4194:	9e 83       	std	Y+6, r25	; 0x06
    4196:	af 83       	std	Y+7, r26	; 0x07
    4198:	b8 87       	std	Y+8, r27	; 0x08
    419a:	89 81       	ldd	r24, Y+1	; 0x01
    419c:	9a 81       	ldd	r25, Y+2	; 0x02
    419e:	ab 81       	ldd	r26, Y+3	; 0x03
    41a0:	bc 81       	ldd	r27, Y+4	; 0x04
    41a2:	8e 39       	cpi	r24, 0x9E	; 158
    41a4:	90 4d       	sbci	r25, 0xD0	; 208
    41a6:	ad 4a       	sbci	r26, 0xAD	; 173
    41a8:	b0 41       	sbci	r27, 0x10	; 16
    41aa:	d9 f6       	brne	.-74     	; 0x4162 <wait_for_bootrom+0xbe>
    41ac:	8a 89       	ldd	r24, Y+18	; 0x12
    41ae:	82 30       	cpi	r24, 0x02	; 2
    41b0:	a9 f4       	brne	.+42     	; 0x41dc <wait_for_bootrom+0x138>
    41b2:	2d e7       	ldi	r18, 0x7D	; 125
    41b4:	35 ed       	ldi	r19, 0xD5	; 213
    41b6:	4c e1       	ldi	r20, 0x1C	; 28
    41b8:	5c e3       	ldi	r21, 0x3C	; 60
    41ba:	6c ea       	ldi	r22, 0xAC	; 172
    41bc:	77 e0       	ldi	r23, 0x07	; 7
    41be:	82 e0       	ldi	r24, 0x02	; 2
    41c0:	90 e0       	ldi	r25, 0x00	; 0
    41c2:	0e 94 8c 22 	call	0x4518	; 0x4518 <nm_write_reg>
    41c6:	20 e0       	ldi	r18, 0x00	; 0
    41c8:	30 e0       	ldi	r19, 0x00	; 0
    41ca:	40 e1       	ldi	r20, 0x10	; 16
    41cc:	50 e0       	ldi	r21, 0x00	; 0
    41ce:	6c e8       	ldi	r22, 0x8C	; 140
    41d0:	70 e1       	ldi	r23, 0x10	; 16
    41d2:	80 e0       	ldi	r24, 0x00	; 0
    41d4:	90 e0       	ldi	r25, 0x00	; 0
    41d6:	0e 94 8c 22 	call	0x4518	; 0x4518 <nm_write_reg>
    41da:	3b c0       	rjmp	.+118    	; 0x4252 <wait_for_bootrom+0x1ae>
    41dc:	8a 89       	ldd	r24, Y+18	; 0x12
    41de:	83 30       	cpi	r24, 0x03	; 3
    41e0:	a1 f4       	brne	.+40     	; 0x420a <wait_for_bootrom+0x166>
    41e2:	2d e7       	ldi	r18, 0x7D	; 125
    41e4:	35 ed       	ldi	r19, 0xD5	; 213
    41e6:	4c e1       	ldi	r20, 0x1C	; 28
    41e8:	5c e3       	ldi	r21, 0x3C	; 60
    41ea:	6c ea       	ldi	r22, 0xAC	; 172
    41ec:	77 e0       	ldi	r23, 0x07	; 7
    41ee:	82 e0       	ldi	r24, 0x02	; 2
    41f0:	90 e0       	ldi	r25, 0x00	; 0
    41f2:	0e 94 8c 22 	call	0x4518	; 0x4518 <nm_write_reg>
    41f6:	20 e0       	ldi	r18, 0x00	; 0
    41f8:	30 e0       	ldi	r19, 0x00	; 0
    41fa:	a9 01       	movw	r20, r18
    41fc:	6c e8       	ldi	r22, 0x8C	; 140
    41fe:	70 e1       	ldi	r23, 0x10	; 16
    4200:	80 e0       	ldi	r24, 0x00	; 0
    4202:	90 e0       	ldi	r25, 0x00	; 0
    4204:	0e 94 8c 22 	call	0x4518	; 0x4518 <nm_write_reg>
    4208:	24 c0       	rjmp	.+72     	; 0x4252 <wait_for_bootrom+0x1ae>
    420a:	8a 89       	ldd	r24, Y+18	; 0x12
    420c:	84 30       	cpi	r24, 0x04	; 4
    420e:	a9 f4       	brne	.+42     	; 0x423a <wait_for_bootrom+0x196>
    4210:	80 e8       	ldi	r24, 0x80	; 128
    4212:	90 e0       	ldi	r25, 0x00	; 0
    4214:	a0 e0       	ldi	r26, 0x00	; 0
    4216:	b0 e0       	ldi	r27, 0x00	; 0
    4218:	89 87       	std	Y+9, r24	; 0x09
    421a:	9a 87       	std	Y+10, r25	; 0x0a
    421c:	ab 87       	std	Y+11, r26	; 0x0b
    421e:	bc 87       	std	Y+12, r27	; 0x0c
    4220:	8e 85       	ldd	r24, Y+14	; 0x0e
    4222:	9f 85       	ldd	r25, Y+15	; 0x0f
    4224:	a8 89       	ldd	r26, Y+16	; 0x10
    4226:	b9 89       	ldd	r27, Y+17	; 0x11
    4228:	9c 01       	movw	r18, r24
    422a:	ad 01       	movw	r20, r26
    422c:	6c e8       	ldi	r22, 0x8C	; 140
    422e:	70 e1       	ldi	r23, 0x10	; 16
    4230:	80 e0       	ldi	r24, 0x00	; 0
    4232:	90 e0       	ldi	r25, 0x00	; 0
    4234:	0e 94 8c 22 	call	0x4518	; 0x4518 <nm_write_reg>
    4238:	0c c0       	rjmp	.+24     	; 0x4252 <wait_for_bootrom+0x1ae>
    423a:	8e 85       	ldd	r24, Y+14	; 0x0e
    423c:	9f 85       	ldd	r25, Y+15	; 0x0f
    423e:	a8 89       	ldd	r26, Y+16	; 0x10
    4240:	b9 89       	ldd	r27, Y+17	; 0x11
    4242:	9c 01       	movw	r18, r24
    4244:	ad 01       	movw	r20, r26
    4246:	6c e8       	ldi	r22, 0x8C	; 140
    4248:	70 e1       	ldi	r23, 0x10	; 16
    424a:	80 e0       	ldi	r24, 0x00	; 0
    424c:	90 e0       	ldi	r25, 0x00	; 0
    424e:	0e 94 8c 22 	call	0x4518	; 0x4518 <nm_write_reg>
    4252:	0e 94 18 1e 	call	0x3c30	; 0x3c30 <nmi_get_chipid>
    4256:	dc 01       	movw	r26, r24
    4258:	cb 01       	movw	r24, r22
    425a:	9f 70       	andi	r25, 0x0F	; 15
    425c:	aa 27       	eor	r26, r26
    425e:	bb 27       	eor	r27, r27
    4260:	80 3a       	cpi	r24, 0xA0	; 160
    4262:	93 40       	sbci	r25, 0x03	; 3
    4264:	a1 05       	cpc	r26, r1
    4266:	b1 05       	cpc	r27, r1
    4268:	50 f0       	brcs	.+20     	; 0x427e <wait_for_bootrom+0x1da>
    426a:	89 85       	ldd	r24, Y+9	; 0x09
    426c:	9a 85       	ldd	r25, Y+10	; 0x0a
    426e:	ab 85       	ldd	r26, Y+11	; 0x0b
    4270:	bc 85       	ldd	r27, Y+12	; 0x0c
    4272:	82 60       	ori	r24, 0x02	; 2
    4274:	bc 01       	movw	r22, r24
    4276:	cd 01       	movw	r24, r26
    4278:	0e 94 5c 1d 	call	0x3ab8	; 0x3ab8 <chip_apply_conf>
    427c:	08 c0       	rjmp	.+16     	; 0x428e <wait_for_bootrom+0x1ea>
    427e:	89 85       	ldd	r24, Y+9	; 0x09
    4280:	9a 85       	ldd	r25, Y+10	; 0x0a
    4282:	ab 85       	ldd	r26, Y+11	; 0x0b
    4284:	bc 85       	ldd	r27, Y+12	; 0x0c
    4286:	bc 01       	movw	r22, r24
    4288:	cd 01       	movw	r24, r26
    428a:	0e 94 5c 1d 	call	0x3ab8	; 0x3ab8 <chip_apply_conf>
    428e:	21 e6       	ldi	r18, 0x61	; 97
    4290:	3f e2       	ldi	r19, 0x2F	; 47
    4292:	42 e5       	ldi	r20, 0x52	; 82
    4294:	5f ee       	ldi	r21, 0xEF	; 239
    4296:	6c e0       	ldi	r22, 0x0C	; 12
    4298:	70 e0       	ldi	r23, 0x00	; 0
    429a:	cb 01       	movw	r24, r22
    429c:	0e 94 8c 22 	call	0x4518	; 0x4518 <nm_write_reg>
    42a0:	8d 85       	ldd	r24, Y+13	; 0x0d
    42a2:	62 96       	adiw	r28, 0x12	; 18
    42a4:	cd bf       	out	0x3d, r28	; 61
    42a6:	de bf       	out	0x3e, r29	; 62
    42a8:	df 91       	pop	r29
    42aa:	cf 91       	pop	r28
    42ac:	08 95       	ret

000042ae <wait_for_firmware_start>:
    42ae:	cf 93       	push	r28
    42b0:	df 93       	push	r29
    42b2:	cd b7       	in	r28, 0x3d	; 61
    42b4:	de b7       	in	r29, 0x3e	; 62
    42b6:	66 97       	sbiw	r28, 0x16	; 22
    42b8:	cd bf       	out	0x3d, r28	; 61
    42ba:	de bf       	out	0x3e, r29	; 62
    42bc:	8e 8b       	std	Y+22, r24	; 0x16
    42be:	19 82       	std	Y+1, r1	; 0x01
    42c0:	1a 82       	std	Y+2, r1	; 0x02
    42c2:	1b 82       	std	Y+3, r1	; 0x03
    42c4:	1c 82       	std	Y+4, r1	; 0x04
    42c6:	1d 82       	std	Y+5, r1	; 0x05
    42c8:	1e 82       	std	Y+6, r1	; 0x06
    42ca:	1f 82       	std	Y+7, r1	; 0x07
    42cc:	18 86       	std	Y+8, r1	; 0x08
    42ce:	19 86       	std	Y+9, r1	; 0x09
    42d0:	8f ef       	ldi	r24, 0xFF	; 255
    42d2:	9f ef       	ldi	r25, 0xFF	; 255
    42d4:	dc 01       	movw	r26, r24
    42d6:	8a 87       	std	Y+10, r24	; 0x0a
    42d8:	9b 87       	std	Y+11, r25	; 0x0b
    42da:	ac 87       	std	Y+12, r26	; 0x0c
    42dc:	bd 87       	std	Y+13, r27	; 0x0d
    42de:	8c e8       	ldi	r24, 0x8C	; 140
    42e0:	90 e1       	ldi	r25, 0x10	; 16
    42e2:	a0 e0       	ldi	r26, 0x00	; 0
    42e4:	b0 e0       	ldi	r27, 0x00	; 0
    42e6:	8e 87       	std	Y+14, r24	; 0x0e
    42e8:	9f 87       	std	Y+15, r25	; 0x0f
    42ea:	a8 8b       	std	Y+16, r26	; 0x10
    42ec:	b9 8b       	std	Y+17, r27	; 0x11
    42ee:	86 e3       	ldi	r24, 0x36	; 54
    42f0:	96 e2       	ldi	r25, 0x26	; 38
    42f2:	a3 e5       	ldi	r26, 0x53	; 83
    42f4:	b2 e0       	ldi	r27, 0x02	; 2
    42f6:	8a 8b       	std	Y+18, r24	; 0x12
    42f8:	9b 8b       	std	Y+19, r25	; 0x13
    42fa:	ac 8b       	std	Y+20, r26	; 0x14
    42fc:	bd 8b       	std	Y+21, r27	; 0x15
    42fe:	8e 89       	ldd	r24, Y+22	; 0x16
    4300:	82 30       	cpi	r24, 0x02	; 2
    4302:	21 f0       	breq	.+8      	; 0x430c <wait_for_firmware_start+0x5e>
    4304:	8e 89       	ldd	r24, Y+22	; 0x16
    4306:	83 30       	cpi	r24, 0x03	; 3
    4308:	09 f0       	breq	.+2      	; 0x430c <wait_for_firmware_start+0x5e>
    430a:	40 c0       	rjmp	.+128    	; 0x438c <wait_for_firmware_start+0xde>
    430c:	8c ea       	ldi	r24, 0xAC	; 172
    430e:	97 e0       	ldi	r25, 0x07	; 7
    4310:	a2 e0       	ldi	r26, 0x02	; 2
    4312:	b0 e0       	ldi	r27, 0x00	; 0
    4314:	8e 87       	std	Y+14, r24	; 0x0e
    4316:	9f 87       	std	Y+15, r25	; 0x0f
    4318:	a8 8b       	std	Y+16, r26	; 0x10
    431a:	b9 8b       	std	Y+17, r27	; 0x11
    431c:	83 ec       	ldi	r24, 0xC3	; 195
    431e:	91 ec       	ldi	r25, 0xC1	; 193
    4320:	ad e5       	ldi	r26, 0x5D	; 93
    4322:	b7 ed       	ldi	r27, 0xD7	; 215
    4324:	8a 8b       	std	Y+18, r24	; 0x12
    4326:	9b 8b       	std	Y+19, r25	; 0x13
    4328:	ac 8b       	std	Y+20, r26	; 0x14
    432a:	bd 8b       	std	Y+21, r27	; 0x15
    432c:	2f c0       	rjmp	.+94     	; 0x438c <wait_for_firmware_start+0xde>
    432e:	62 e0       	ldi	r22, 0x02	; 2
    4330:	70 e0       	ldi	r23, 0x00	; 0
    4332:	80 e0       	ldi	r24, 0x00	; 0
    4334:	90 e0       	ldi	r25, 0x00	; 0
    4336:	0e 94 5c 0f 	call	0x1eb8	; 0x1eb8 <nm_bsp_sleep>
    433a:	8e 85       	ldd	r24, Y+14	; 0x0e
    433c:	9f 85       	ldd	r25, Y+15	; 0x0f
    433e:	a8 89       	ldd	r26, Y+16	; 0x10
    4340:	b9 89       	ldd	r27, Y+17	; 0x11
    4342:	bc 01       	movw	r22, r24
    4344:	cd 01       	movw	r24, r26
    4346:	0e 94 52 22 	call	0x44a4	; 0x44a4 <nm_read_reg>
    434a:	dc 01       	movw	r26, r24
    434c:	cb 01       	movw	r24, r22
    434e:	8a 83       	std	Y+2, r24	; 0x02
    4350:	9b 83       	std	Y+3, r25	; 0x03
    4352:	ac 83       	std	Y+4, r26	; 0x04
    4354:	bd 83       	std	Y+5, r27	; 0x05
    4356:	8e 81       	ldd	r24, Y+6	; 0x06
    4358:	9f 81       	ldd	r25, Y+7	; 0x07
    435a:	a8 85       	ldd	r26, Y+8	; 0x08
    435c:	b9 85       	ldd	r27, Y+9	; 0x09
    435e:	01 96       	adiw	r24, 0x01	; 1
    4360:	a1 1d       	adc	r26, r1
    4362:	b1 1d       	adc	r27, r1
    4364:	8e 83       	std	Y+6, r24	; 0x06
    4366:	9f 83       	std	Y+7, r25	; 0x07
    4368:	a8 87       	std	Y+8, r26	; 0x08
    436a:	b9 87       	std	Y+9, r27	; 0x09
    436c:	2e 81       	ldd	r18, Y+6	; 0x06
    436e:	3f 81       	ldd	r19, Y+7	; 0x07
    4370:	48 85       	ldd	r20, Y+8	; 0x08
    4372:	59 85       	ldd	r21, Y+9	; 0x09
    4374:	8a 85       	ldd	r24, Y+10	; 0x0a
    4376:	9b 85       	ldd	r25, Y+11	; 0x0b
    4378:	ac 85       	ldd	r26, Y+12	; 0x0c
    437a:	bd 85       	ldd	r27, Y+13	; 0x0d
    437c:	28 17       	cp	r18, r24
    437e:	39 07       	cpc	r19, r25
    4380:	4a 07       	cpc	r20, r26
    4382:	5b 07       	cpc	r21, r27
    4384:	18 f0       	brcs	.+6      	; 0x438c <wait_for_firmware_start+0xde>
    4386:	8b ef       	ldi	r24, 0xFB	; 251
    4388:	89 83       	std	Y+1, r24	; 0x01
    438a:	1f c0       	rjmp	.+62     	; 0x43ca <wait_for_firmware_start+0x11c>
    438c:	2a 89       	ldd	r18, Y+18	; 0x12
    438e:	3b 89       	ldd	r19, Y+19	; 0x13
    4390:	4c 89       	ldd	r20, Y+20	; 0x14
    4392:	5d 89       	ldd	r21, Y+21	; 0x15
    4394:	8a 81       	ldd	r24, Y+2	; 0x02
    4396:	9b 81       	ldd	r25, Y+3	; 0x03
    4398:	ac 81       	ldd	r26, Y+4	; 0x04
    439a:	bd 81       	ldd	r27, Y+5	; 0x05
    439c:	28 17       	cp	r18, r24
    439e:	39 07       	cpc	r19, r25
    43a0:	4a 07       	cpc	r20, r26
    43a2:	5b 07       	cpc	r21, r27
    43a4:	21 f6       	brne	.-120    	; 0x432e <wait_for_firmware_start+0x80>
    43a6:	8a 89       	ldd	r24, Y+18	; 0x12
    43a8:	9b 89       	ldd	r25, Y+19	; 0x13
    43aa:	ac 89       	ldd	r26, Y+20	; 0x14
    43ac:	bd 89       	ldd	r27, Y+21	; 0x15
    43ae:	86 33       	cpi	r24, 0x36	; 54
    43b0:	96 42       	sbci	r25, 0x26	; 38
    43b2:	a3 45       	sbci	r26, 0x53	; 83
    43b4:	b2 40       	sbci	r27, 0x02	; 2
    43b6:	49 f4       	brne	.+18     	; 0x43ca <wait_for_firmware_start+0x11c>
    43b8:	20 e0       	ldi	r18, 0x00	; 0
    43ba:	30 e0       	ldi	r19, 0x00	; 0
    43bc:	a9 01       	movw	r20, r18
    43be:	6c e8       	ldi	r22, 0x8C	; 140
    43c0:	70 e1       	ldi	r23, 0x10	; 16
    43c2:	80 e0       	ldi	r24, 0x00	; 0
    43c4:	90 e0       	ldi	r25, 0x00	; 0
    43c6:	0e 94 8c 22 	call	0x4518	; 0x4518 <nm_write_reg>
    43ca:	89 81       	ldd	r24, Y+1	; 0x01
    43cc:	66 96       	adiw	r28, 0x16	; 22
    43ce:	cd bf       	out	0x3d, r28	; 61
    43d0:	de bf       	out	0x3e, r29	; 62
    43d2:	df 91       	pop	r29
    43d4:	cf 91       	pop	r28
    43d6:	08 95       	ret

000043d8 <chip_deinit>:
    43d8:	cf 93       	push	r28
    43da:	df 93       	push	r29
    43dc:	cd b7       	in	r28, 0x3d	; 61
    43de:	de b7       	in	r29, 0x3e	; 62
    43e0:	25 97       	sbiw	r28, 0x05	; 5
    43e2:	cd bf       	out	0x3d, r28	; 61
    43e4:	de bf       	out	0x3e, r29	; 62
    43e6:	1a 82       	std	Y+2, r1	; 0x02
    43e8:	1b 82       	std	Y+3, r1	; 0x03
    43ea:	1c 82       	std	Y+4, r1	; 0x04
    43ec:	1d 82       	std	Y+5, r1	; 0x05
    43ee:	ce 01       	movw	r24, r28
    43f0:	02 96       	adiw	r24, 0x02	; 2
    43f2:	ac 01       	movw	r20, r24
    43f4:	60 e0       	ldi	r22, 0x00	; 0
    43f6:	74 e1       	ldi	r23, 0x14	; 20
    43f8:	80 e0       	ldi	r24, 0x00	; 0
    43fa:	90 e0       	ldi	r25, 0x00	; 0
    43fc:	0e 94 6e 22 	call	0x44dc	; 0x44dc <nm_read_reg_with_ret>
    4400:	89 83       	std	Y+1, r24	; 0x01
    4402:	89 81       	ldd	r24, Y+1	; 0x01
    4404:	88 23       	and	r24, r24
    4406:	b9 f4       	brne	.+46     	; 0x4436 <chip_deinit+0x5e>
    4408:	8a 81       	ldd	r24, Y+2	; 0x02
    440a:	9b 81       	ldd	r25, Y+3	; 0x03
    440c:	ac 81       	ldd	r26, Y+4	; 0x04
    440e:	bd 81       	ldd	r27, Y+5	; 0x05
    4410:	9b 7f       	andi	r25, 0xFB	; 251
    4412:	8a 83       	std	Y+2, r24	; 0x02
    4414:	9b 83       	std	Y+3, r25	; 0x03
    4416:	ac 83       	std	Y+4, r26	; 0x04
    4418:	bd 83       	std	Y+5, r27	; 0x05
    441a:	8a 81       	ldd	r24, Y+2	; 0x02
    441c:	9b 81       	ldd	r25, Y+3	; 0x03
    441e:	ac 81       	ldd	r26, Y+4	; 0x04
    4420:	bd 81       	ldd	r27, Y+5	; 0x05
    4422:	9c 01       	movw	r18, r24
    4424:	ad 01       	movw	r20, r26
    4426:	60 e0       	ldi	r22, 0x00	; 0
    4428:	74 e1       	ldi	r23, 0x14	; 20
    442a:	80 e0       	ldi	r24, 0x00	; 0
    442c:	90 e0       	ldi	r25, 0x00	; 0
    442e:	0e 94 8c 22 	call	0x4518	; 0x4518 <nm_write_reg>
    4432:	89 83       	std	Y+1, r24	; 0x01
    4434:	01 c0       	rjmp	.+2      	; 0x4438 <chip_deinit+0x60>
    4436:	00 00       	nop
    4438:	89 81       	ldd	r24, Y+1	; 0x01
    443a:	25 96       	adiw	r28, 0x05	; 5
    443c:	cd bf       	out	0x3d, r28	; 61
    443e:	de bf       	out	0x3e, r29	; 62
    4440:	df 91       	pop	r29
    4442:	cf 91       	pop	r28
    4444:	08 95       	ret

00004446 <nm_bus_iface_init>:
    4446:	cf 93       	push	r28
    4448:	df 93       	push	r29
    444a:	00 d0       	rcall	.+0      	; 0x444c <nm_bus_iface_init+0x6>
    444c:	1f 92       	push	r1
    444e:	cd b7       	in	r28, 0x3d	; 61
    4450:	de b7       	in	r29, 0x3e	; 62
    4452:	8a 83       	std	Y+2, r24	; 0x02
    4454:	9b 83       	std	Y+3, r25	; 0x03
    4456:	19 82       	std	Y+1, r1	; 0x01
    4458:	8a 81       	ldd	r24, Y+2	; 0x02
    445a:	9b 81       	ldd	r25, Y+3	; 0x03
    445c:	0e 94 86 11 	call	0x230c	; 0x230c <nm_bus_init>
    4460:	89 83       	std	Y+1, r24	; 0x01
    4462:	89 81       	ldd	r24, Y+1	; 0x01
    4464:	23 96       	adiw	r28, 0x03	; 3
    4466:	cd bf       	out	0x3d, r28	; 61
    4468:	de bf       	out	0x3e, r29	; 62
    446a:	df 91       	pop	r29
    446c:	cf 91       	pop	r28
    446e:	08 95       	ret

00004470 <nm_bus_iface_deinit>:
    4470:	cf 93       	push	r28
    4472:	df 93       	push	r29
    4474:	1f 92       	push	r1
    4476:	cd b7       	in	r28, 0x3d	; 61
    4478:	de b7       	in	r29, 0x3e	; 62
    447a:	19 82       	std	Y+1, r1	; 0x01
    447c:	0e 94 e9 11 	call	0x23d2	; 0x23d2 <nm_bus_deinit>
    4480:	89 83       	std	Y+1, r24	; 0x01
    4482:	89 81       	ldd	r24, Y+1	; 0x01
    4484:	0f 90       	pop	r0
    4486:	df 91       	pop	r29
    4488:	cf 91       	pop	r28
    448a:	08 95       	ret

0000448c <nm_bus_reset>:
    448c:	cf 93       	push	r28
    448e:	df 93       	push	r29
    4490:	1f 92       	push	r1
    4492:	cd b7       	in	r28, 0x3d	; 61
    4494:	de b7       	in	r29, 0x3e	; 62
    4496:	19 82       	std	Y+1, r1	; 0x01
    4498:	0e 94 ea 2b 	call	0x57d4	; 0x57d4 <nm_spi_reset>
    449c:	0f 90       	pop	r0
    449e:	df 91       	pop	r29
    44a0:	cf 91       	pop	r28
    44a2:	08 95       	ret

000044a4 <nm_read_reg>:
    44a4:	cf 93       	push	r28
    44a6:	df 93       	push	r29
    44a8:	00 d0       	rcall	.+0      	; 0x44aa <nm_read_reg+0x6>
    44aa:	00 d0       	rcall	.+0      	; 0x44ac <nm_read_reg+0x8>
    44ac:	cd b7       	in	r28, 0x3d	; 61
    44ae:	de b7       	in	r29, 0x3e	; 62
    44b0:	69 83       	std	Y+1, r22	; 0x01
    44b2:	7a 83       	std	Y+2, r23	; 0x02
    44b4:	8b 83       	std	Y+3, r24	; 0x03
    44b6:	9c 83       	std	Y+4, r25	; 0x04
    44b8:	89 81       	ldd	r24, Y+1	; 0x01
    44ba:	9a 81       	ldd	r25, Y+2	; 0x02
    44bc:	ab 81       	ldd	r26, Y+3	; 0x03
    44be:	bc 81       	ldd	r27, Y+4	; 0x04
    44c0:	bc 01       	movw	r22, r24
    44c2:	cd 01       	movw	r24, r26
    44c4:	0e 94 8a 2c 	call	0x5914	; 0x5914 <nm_spi_read_reg>
    44c8:	dc 01       	movw	r26, r24
    44ca:	cb 01       	movw	r24, r22
    44cc:	bc 01       	movw	r22, r24
    44ce:	cd 01       	movw	r24, r26
    44d0:	24 96       	adiw	r28, 0x04	; 4
    44d2:	cd bf       	out	0x3d, r28	; 61
    44d4:	de bf       	out	0x3e, r29	; 62
    44d6:	df 91       	pop	r29
    44d8:	cf 91       	pop	r28
    44da:	08 95       	ret

000044dc <nm_read_reg_with_ret>:
    44dc:	cf 93       	push	r28
    44de:	df 93       	push	r29
    44e0:	cd b7       	in	r28, 0x3d	; 61
    44e2:	de b7       	in	r29, 0x3e	; 62
    44e4:	26 97       	sbiw	r28, 0x06	; 6
    44e6:	cd bf       	out	0x3d, r28	; 61
    44e8:	de bf       	out	0x3e, r29	; 62
    44ea:	69 83       	std	Y+1, r22	; 0x01
    44ec:	7a 83       	std	Y+2, r23	; 0x02
    44ee:	8b 83       	std	Y+3, r24	; 0x03
    44f0:	9c 83       	std	Y+4, r25	; 0x04
    44f2:	4d 83       	std	Y+5, r20	; 0x05
    44f4:	5e 83       	std	Y+6, r21	; 0x06
    44f6:	2d 81       	ldd	r18, Y+5	; 0x05
    44f8:	3e 81       	ldd	r19, Y+6	; 0x06
    44fa:	89 81       	ldd	r24, Y+1	; 0x01
    44fc:	9a 81       	ldd	r25, Y+2	; 0x02
    44fe:	ab 81       	ldd	r26, Y+3	; 0x03
    4500:	bc 81       	ldd	r27, Y+4	; 0x04
    4502:	a9 01       	movw	r20, r18
    4504:	bc 01       	movw	r22, r24
    4506:	cd 01       	movw	r24, r26
    4508:	0e 94 ad 2c 	call	0x595a	; 0x595a <nm_spi_read_reg_with_ret>
    450c:	26 96       	adiw	r28, 0x06	; 6
    450e:	cd bf       	out	0x3d, r28	; 61
    4510:	de bf       	out	0x3e, r29	; 62
    4512:	df 91       	pop	r29
    4514:	cf 91       	pop	r28
    4516:	08 95       	ret

00004518 <nm_write_reg>:
    4518:	cf 93       	push	r28
    451a:	df 93       	push	r29
    451c:	cd b7       	in	r28, 0x3d	; 61
    451e:	de b7       	in	r29, 0x3e	; 62
    4520:	28 97       	sbiw	r28, 0x08	; 8
    4522:	cd bf       	out	0x3d, r28	; 61
    4524:	de bf       	out	0x3e, r29	; 62
    4526:	69 83       	std	Y+1, r22	; 0x01
    4528:	7a 83       	std	Y+2, r23	; 0x02
    452a:	8b 83       	std	Y+3, r24	; 0x03
    452c:	9c 83       	std	Y+4, r25	; 0x04
    452e:	2d 83       	std	Y+5, r18	; 0x05
    4530:	3e 83       	std	Y+6, r19	; 0x06
    4532:	4f 83       	std	Y+7, r20	; 0x07
    4534:	58 87       	std	Y+8, r21	; 0x08
    4536:	2d 81       	ldd	r18, Y+5	; 0x05
    4538:	3e 81       	ldd	r19, Y+6	; 0x06
    453a:	4f 81       	ldd	r20, Y+7	; 0x07
    453c:	58 85       	ldd	r21, Y+8	; 0x08
    453e:	89 81       	ldd	r24, Y+1	; 0x01
    4540:	9a 81       	ldd	r25, Y+2	; 0x02
    4542:	ab 81       	ldd	r26, Y+3	; 0x03
    4544:	bc 81       	ldd	r27, Y+4	; 0x04
    4546:	bc 01       	movw	r22, r24
    4548:	cd 01       	movw	r24, r26
    454a:	0e 94 d4 2c 	call	0x59a8	; 0x59a8 <nm_spi_write_reg>
    454e:	28 96       	adiw	r28, 0x08	; 8
    4550:	cd bf       	out	0x3d, r28	; 61
    4552:	de bf       	out	0x3e, r29	; 62
    4554:	df 91       	pop	r29
    4556:	cf 91       	pop	r28
    4558:	08 95       	ret

0000455a <p_nm_read_block>:
    455a:	cf 93       	push	r28
    455c:	df 93       	push	r29
    455e:	cd b7       	in	r28, 0x3d	; 61
    4560:	de b7       	in	r29, 0x3e	; 62
    4562:	28 97       	sbiw	r28, 0x08	; 8
    4564:	cd bf       	out	0x3d, r28	; 61
    4566:	de bf       	out	0x3e, r29	; 62
    4568:	69 83       	std	Y+1, r22	; 0x01
    456a:	7a 83       	std	Y+2, r23	; 0x02
    456c:	8b 83       	std	Y+3, r24	; 0x03
    456e:	9c 83       	std	Y+4, r25	; 0x04
    4570:	4d 83       	std	Y+5, r20	; 0x05
    4572:	5e 83       	std	Y+6, r21	; 0x06
    4574:	2f 83       	std	Y+7, r18	; 0x07
    4576:	38 87       	std	Y+8, r19	; 0x08
    4578:	2f 81       	ldd	r18, Y+7	; 0x07
    457a:	38 85       	ldd	r19, Y+8	; 0x08
    457c:	4d 81       	ldd	r20, Y+5	; 0x05
    457e:	5e 81       	ldd	r21, Y+6	; 0x06
    4580:	89 81       	ldd	r24, Y+1	; 0x01
    4582:	9a 81       	ldd	r25, Y+2	; 0x02
    4584:	ab 81       	ldd	r26, Y+3	; 0x03
    4586:	bc 81       	ldd	r27, Y+4	; 0x04
    4588:	bc 01       	movw	r22, r24
    458a:	cd 01       	movw	r24, r26
    458c:	0e 94 fe 2c 	call	0x59fc	; 0x59fc <nm_spi_read_block>
    4590:	28 96       	adiw	r28, 0x08	; 8
    4592:	cd bf       	out	0x3d, r28	; 61
    4594:	de bf       	out	0x3e, r29	; 62
    4596:	df 91       	pop	r29
    4598:	cf 91       	pop	r28
    459a:	08 95       	ret

0000459c <nm_read_block>:
    459c:	ef 92       	push	r14
    459e:	ff 92       	push	r15
    45a0:	0f 93       	push	r16
    45a2:	1f 93       	push	r17
    45a4:	cf 93       	push	r28
    45a6:	df 93       	push	r29
    45a8:	cd b7       	in	r28, 0x3d	; 61
    45aa:	de b7       	in	r29, 0x3e	; 62
    45ac:	61 97       	sbiw	r28, 0x11	; 17
    45ae:	cd bf       	out	0x3d, r28	; 61
    45b0:	de bf       	out	0x3e, r29	; 62
    45b2:	68 87       	std	Y+8, r22	; 0x08
    45b4:	79 87       	std	Y+9, r23	; 0x09
    45b6:	8a 87       	std	Y+10, r24	; 0x0a
    45b8:	9b 87       	std	Y+11, r25	; 0x0b
    45ba:	4c 87       	std	Y+12, r20	; 0x0c
    45bc:	5d 87       	std	Y+13, r21	; 0x0d
    45be:	0e 87       	std	Y+14, r16	; 0x0e
    45c0:	1f 87       	std	Y+15, r17	; 0x0f
    45c2:	28 8b       	std	Y+16, r18	; 0x10
    45c4:	39 8b       	std	Y+17, r19	; 0x11
    45c6:	80 91 42 28 	lds	r24, 0x2842	; 0x802842 <egstrNmBusCapabilities>
    45ca:	90 91 43 28 	lds	r25, 0x2843	; 0x802843 <egstrNmBusCapabilities+0x1>
    45ce:	08 97       	sbiw	r24, 0x08	; 8
    45d0:	8e 83       	std	Y+6, r24	; 0x06
    45d2:	9f 83       	std	Y+7, r25	; 0x07
    45d4:	19 82       	std	Y+1, r1	; 0x01
    45d6:	1a 82       	std	Y+2, r1	; 0x02
    45d8:	1b 82       	std	Y+3, r1	; 0x03
    45da:	1c 82       	std	Y+4, r1	; 0x04
    45dc:	1d 82       	std	Y+5, r1	; 0x05
    45de:	8e 81       	ldd	r24, Y+6	; 0x06
    45e0:	9f 81       	ldd	r25, Y+7	; 0x07
    45e2:	9c 01       	movw	r18, r24
    45e4:	40 e0       	ldi	r20, 0x00	; 0
    45e6:	50 e0       	ldi	r21, 0x00	; 0
    45e8:	8e 85       	ldd	r24, Y+14	; 0x0e
    45ea:	9f 85       	ldd	r25, Y+15	; 0x0f
    45ec:	a8 89       	ldd	r26, Y+16	; 0x10
    45ee:	b9 89       	ldd	r27, Y+17	; 0x11
    45f0:	28 17       	cp	r18, r24
    45f2:	39 07       	cpc	r19, r25
    45f4:	4a 07       	cpc	r20, r26
    45f6:	5b 07       	cpc	r21, r27
    45f8:	b8 f0       	brcs	.+46     	; 0x4628 <nm_read_block+0x8c>
    45fa:	6e 85       	ldd	r22, Y+14	; 0x0e
    45fc:	7f 85       	ldd	r23, Y+15	; 0x0f
    45fe:	89 81       	ldd	r24, Y+1	; 0x01
    4600:	9a 81       	ldd	r25, Y+2	; 0x02
    4602:	2c 85       	ldd	r18, Y+12	; 0x0c
    4604:	3d 85       	ldd	r19, Y+13	; 0x0d
    4606:	a9 01       	movw	r20, r18
    4608:	48 0f       	add	r20, r24
    460a:	59 1f       	adc	r21, r25
    460c:	88 85       	ldd	r24, Y+8	; 0x08
    460e:	99 85       	ldd	r25, Y+9	; 0x09
    4610:	aa 85       	ldd	r26, Y+10	; 0x0a
    4612:	bb 85       	ldd	r27, Y+11	; 0x0b
    4614:	9b 01       	movw	r18, r22
    4616:	bc 01       	movw	r22, r24
    4618:	cd 01       	movw	r24, r26
    461a:	0e 94 ad 22 	call	0x455a	; 0x455a <p_nm_read_block>
    461e:	98 2f       	mov	r25, r24
    4620:	8d 81       	ldd	r24, Y+5	; 0x05
    4622:	89 0f       	add	r24, r25
    4624:	8d 83       	std	Y+5, r24	; 0x05
    4626:	51 c0       	rjmp	.+162    	; 0x46ca <nm_read_block+0x12e>
    4628:	89 81       	ldd	r24, Y+1	; 0x01
    462a:	9a 81       	ldd	r25, Y+2	; 0x02
    462c:	2c 85       	ldd	r18, Y+12	; 0x0c
    462e:	3d 85       	ldd	r19, Y+13	; 0x0d
    4630:	a9 01       	movw	r20, r18
    4632:	48 0f       	add	r20, r24
    4634:	59 1f       	adc	r21, r25
    4636:	2e 81       	ldd	r18, Y+6	; 0x06
    4638:	3f 81       	ldd	r19, Y+7	; 0x07
    463a:	88 85       	ldd	r24, Y+8	; 0x08
    463c:	99 85       	ldd	r25, Y+9	; 0x09
    463e:	aa 85       	ldd	r26, Y+10	; 0x0a
    4640:	bb 85       	ldd	r27, Y+11	; 0x0b
    4642:	bc 01       	movw	r22, r24
    4644:	cd 01       	movw	r24, r26
    4646:	0e 94 ad 22 	call	0x455a	; 0x455a <p_nm_read_block>
    464a:	98 2f       	mov	r25, r24
    464c:	8d 81       	ldd	r24, Y+5	; 0x05
    464e:	89 0f       	add	r24, r25
    4650:	8d 83       	std	Y+5, r24	; 0x05
    4652:	8d 81       	ldd	r24, Y+5	; 0x05
    4654:	88 23       	and	r24, r24
    4656:	c1 f5       	brne	.+112    	; 0x46c8 <nm_read_block+0x12c>
    4658:	8e 81       	ldd	r24, Y+6	; 0x06
    465a:	9f 81       	ldd	r25, Y+7	; 0x07
    465c:	cc 01       	movw	r24, r24
    465e:	a0 e0       	ldi	r26, 0x00	; 0
    4660:	b0 e0       	ldi	r27, 0x00	; 0
    4662:	2e 85       	ldd	r18, Y+14	; 0x0e
    4664:	3f 85       	ldd	r19, Y+15	; 0x0f
    4666:	48 89       	ldd	r20, Y+16	; 0x10
    4668:	59 89       	ldd	r21, Y+17	; 0x11
    466a:	79 01       	movw	r14, r18
    466c:	8a 01       	movw	r16, r20
    466e:	e8 1a       	sub	r14, r24
    4670:	f9 0a       	sbc	r15, r25
    4672:	0a 0b       	sbc	r16, r26
    4674:	1b 0b       	sbc	r17, r27
    4676:	d8 01       	movw	r26, r16
    4678:	c7 01       	movw	r24, r14
    467a:	8e 87       	std	Y+14, r24	; 0x0e
    467c:	9f 87       	std	Y+15, r25	; 0x0f
    467e:	a8 8b       	std	Y+16, r26	; 0x10
    4680:	b9 8b       	std	Y+17, r27	; 0x11
    4682:	8e 81       	ldd	r24, Y+6	; 0x06
    4684:	9f 81       	ldd	r25, Y+7	; 0x07
    4686:	cc 01       	movw	r24, r24
    4688:	a0 e0       	ldi	r26, 0x00	; 0
    468a:	b0 e0       	ldi	r27, 0x00	; 0
    468c:	29 81       	ldd	r18, Y+1	; 0x01
    468e:	3a 81       	ldd	r19, Y+2	; 0x02
    4690:	4b 81       	ldd	r20, Y+3	; 0x03
    4692:	5c 81       	ldd	r21, Y+4	; 0x04
    4694:	82 0f       	add	r24, r18
    4696:	93 1f       	adc	r25, r19
    4698:	a4 1f       	adc	r26, r20
    469a:	b5 1f       	adc	r27, r21
    469c:	89 83       	std	Y+1, r24	; 0x01
    469e:	9a 83       	std	Y+2, r25	; 0x02
    46a0:	ab 83       	std	Y+3, r26	; 0x03
    46a2:	bc 83       	std	Y+4, r27	; 0x04
    46a4:	8e 81       	ldd	r24, Y+6	; 0x06
    46a6:	9f 81       	ldd	r25, Y+7	; 0x07
    46a8:	cc 01       	movw	r24, r24
    46aa:	a0 e0       	ldi	r26, 0x00	; 0
    46ac:	b0 e0       	ldi	r27, 0x00	; 0
    46ae:	28 85       	ldd	r18, Y+8	; 0x08
    46b0:	39 85       	ldd	r19, Y+9	; 0x09
    46b2:	4a 85       	ldd	r20, Y+10	; 0x0a
    46b4:	5b 85       	ldd	r21, Y+11	; 0x0b
    46b6:	82 0f       	add	r24, r18
    46b8:	93 1f       	adc	r25, r19
    46ba:	a4 1f       	adc	r26, r20
    46bc:	b5 1f       	adc	r27, r21
    46be:	88 87       	std	Y+8, r24	; 0x08
    46c0:	99 87       	std	Y+9, r25	; 0x09
    46c2:	aa 87       	std	Y+10, r26	; 0x0a
    46c4:	bb 87       	std	Y+11, r27	; 0x0b
    46c6:	8b cf       	rjmp	.-234    	; 0x45de <nm_read_block+0x42>
    46c8:	00 00       	nop
    46ca:	8d 81       	ldd	r24, Y+5	; 0x05
    46cc:	61 96       	adiw	r28, 0x11	; 17
    46ce:	cd bf       	out	0x3d, r28	; 61
    46d0:	de bf       	out	0x3e, r29	; 62
    46d2:	df 91       	pop	r29
    46d4:	cf 91       	pop	r28
    46d6:	1f 91       	pop	r17
    46d8:	0f 91       	pop	r16
    46da:	ff 90       	pop	r15
    46dc:	ef 90       	pop	r14
    46de:	08 95       	ret

000046e0 <p_nm_write_block>:
    46e0:	cf 93       	push	r28
    46e2:	df 93       	push	r29
    46e4:	cd b7       	in	r28, 0x3d	; 61
    46e6:	de b7       	in	r29, 0x3e	; 62
    46e8:	28 97       	sbiw	r28, 0x08	; 8
    46ea:	cd bf       	out	0x3d, r28	; 61
    46ec:	de bf       	out	0x3e, r29	; 62
    46ee:	69 83       	std	Y+1, r22	; 0x01
    46f0:	7a 83       	std	Y+2, r23	; 0x02
    46f2:	8b 83       	std	Y+3, r24	; 0x03
    46f4:	9c 83       	std	Y+4, r25	; 0x04
    46f6:	4d 83       	std	Y+5, r20	; 0x05
    46f8:	5e 83       	std	Y+6, r21	; 0x06
    46fa:	2f 83       	std	Y+7, r18	; 0x07
    46fc:	38 87       	std	Y+8, r19	; 0x08
    46fe:	2f 81       	ldd	r18, Y+7	; 0x07
    4700:	38 85       	ldd	r19, Y+8	; 0x08
    4702:	4d 81       	ldd	r20, Y+5	; 0x05
    4704:	5e 81       	ldd	r21, Y+6	; 0x06
    4706:	89 81       	ldd	r24, Y+1	; 0x01
    4708:	9a 81       	ldd	r25, Y+2	; 0x02
    470a:	ab 81       	ldd	r26, Y+3	; 0x03
    470c:	bc 81       	ldd	r27, Y+4	; 0x04
    470e:	bc 01       	movw	r22, r24
    4710:	cd 01       	movw	r24, r26
    4712:	0e 94 28 2d 	call	0x5a50	; 0x5a50 <nm_spi_write_block>
    4716:	28 96       	adiw	r28, 0x08	; 8
    4718:	cd bf       	out	0x3d, r28	; 61
    471a:	de bf       	out	0x3e, r29	; 62
    471c:	df 91       	pop	r29
    471e:	cf 91       	pop	r28
    4720:	08 95       	ret

00004722 <nm_write_block>:
    4722:	ef 92       	push	r14
    4724:	ff 92       	push	r15
    4726:	0f 93       	push	r16
    4728:	1f 93       	push	r17
    472a:	cf 93       	push	r28
    472c:	df 93       	push	r29
    472e:	cd b7       	in	r28, 0x3d	; 61
    4730:	de b7       	in	r29, 0x3e	; 62
    4732:	61 97       	sbiw	r28, 0x11	; 17
    4734:	cd bf       	out	0x3d, r28	; 61
    4736:	de bf       	out	0x3e, r29	; 62
    4738:	68 87       	std	Y+8, r22	; 0x08
    473a:	79 87       	std	Y+9, r23	; 0x09
    473c:	8a 87       	std	Y+10, r24	; 0x0a
    473e:	9b 87       	std	Y+11, r25	; 0x0b
    4740:	4c 87       	std	Y+12, r20	; 0x0c
    4742:	5d 87       	std	Y+13, r21	; 0x0d
    4744:	0e 87       	std	Y+14, r16	; 0x0e
    4746:	1f 87       	std	Y+15, r17	; 0x0f
    4748:	28 8b       	std	Y+16, r18	; 0x10
    474a:	39 8b       	std	Y+17, r19	; 0x11
    474c:	80 91 42 28 	lds	r24, 0x2842	; 0x802842 <egstrNmBusCapabilities>
    4750:	90 91 43 28 	lds	r25, 0x2843	; 0x802843 <egstrNmBusCapabilities+0x1>
    4754:	08 97       	sbiw	r24, 0x08	; 8
    4756:	8e 83       	std	Y+6, r24	; 0x06
    4758:	9f 83       	std	Y+7, r25	; 0x07
    475a:	19 82       	std	Y+1, r1	; 0x01
    475c:	1a 82       	std	Y+2, r1	; 0x02
    475e:	1b 82       	std	Y+3, r1	; 0x03
    4760:	1c 82       	std	Y+4, r1	; 0x04
    4762:	1d 82       	std	Y+5, r1	; 0x05
    4764:	8e 81       	ldd	r24, Y+6	; 0x06
    4766:	9f 81       	ldd	r25, Y+7	; 0x07
    4768:	9c 01       	movw	r18, r24
    476a:	40 e0       	ldi	r20, 0x00	; 0
    476c:	50 e0       	ldi	r21, 0x00	; 0
    476e:	8e 85       	ldd	r24, Y+14	; 0x0e
    4770:	9f 85       	ldd	r25, Y+15	; 0x0f
    4772:	a8 89       	ldd	r26, Y+16	; 0x10
    4774:	b9 89       	ldd	r27, Y+17	; 0x11
    4776:	28 17       	cp	r18, r24
    4778:	39 07       	cpc	r19, r25
    477a:	4a 07       	cpc	r20, r26
    477c:	5b 07       	cpc	r21, r27
    477e:	b8 f0       	brcs	.+46     	; 0x47ae <nm_write_block+0x8c>
    4780:	6e 85       	ldd	r22, Y+14	; 0x0e
    4782:	7f 85       	ldd	r23, Y+15	; 0x0f
    4784:	89 81       	ldd	r24, Y+1	; 0x01
    4786:	9a 81       	ldd	r25, Y+2	; 0x02
    4788:	2c 85       	ldd	r18, Y+12	; 0x0c
    478a:	3d 85       	ldd	r19, Y+13	; 0x0d
    478c:	a9 01       	movw	r20, r18
    478e:	48 0f       	add	r20, r24
    4790:	59 1f       	adc	r21, r25
    4792:	88 85       	ldd	r24, Y+8	; 0x08
    4794:	99 85       	ldd	r25, Y+9	; 0x09
    4796:	aa 85       	ldd	r26, Y+10	; 0x0a
    4798:	bb 85       	ldd	r27, Y+11	; 0x0b
    479a:	9b 01       	movw	r18, r22
    479c:	bc 01       	movw	r22, r24
    479e:	cd 01       	movw	r24, r26
    47a0:	0e 94 70 23 	call	0x46e0	; 0x46e0 <p_nm_write_block>
    47a4:	98 2f       	mov	r25, r24
    47a6:	8d 81       	ldd	r24, Y+5	; 0x05
    47a8:	89 0f       	add	r24, r25
    47aa:	8d 83       	std	Y+5, r24	; 0x05
    47ac:	51 c0       	rjmp	.+162    	; 0x4850 <nm_write_block+0x12e>
    47ae:	89 81       	ldd	r24, Y+1	; 0x01
    47b0:	9a 81       	ldd	r25, Y+2	; 0x02
    47b2:	2c 85       	ldd	r18, Y+12	; 0x0c
    47b4:	3d 85       	ldd	r19, Y+13	; 0x0d
    47b6:	a9 01       	movw	r20, r18
    47b8:	48 0f       	add	r20, r24
    47ba:	59 1f       	adc	r21, r25
    47bc:	2e 81       	ldd	r18, Y+6	; 0x06
    47be:	3f 81       	ldd	r19, Y+7	; 0x07
    47c0:	88 85       	ldd	r24, Y+8	; 0x08
    47c2:	99 85       	ldd	r25, Y+9	; 0x09
    47c4:	aa 85       	ldd	r26, Y+10	; 0x0a
    47c6:	bb 85       	ldd	r27, Y+11	; 0x0b
    47c8:	bc 01       	movw	r22, r24
    47ca:	cd 01       	movw	r24, r26
    47cc:	0e 94 70 23 	call	0x46e0	; 0x46e0 <p_nm_write_block>
    47d0:	98 2f       	mov	r25, r24
    47d2:	8d 81       	ldd	r24, Y+5	; 0x05
    47d4:	89 0f       	add	r24, r25
    47d6:	8d 83       	std	Y+5, r24	; 0x05
    47d8:	8d 81       	ldd	r24, Y+5	; 0x05
    47da:	88 23       	and	r24, r24
    47dc:	c1 f5       	brne	.+112    	; 0x484e <nm_write_block+0x12c>
    47de:	8e 81       	ldd	r24, Y+6	; 0x06
    47e0:	9f 81       	ldd	r25, Y+7	; 0x07
    47e2:	cc 01       	movw	r24, r24
    47e4:	a0 e0       	ldi	r26, 0x00	; 0
    47e6:	b0 e0       	ldi	r27, 0x00	; 0
    47e8:	2e 85       	ldd	r18, Y+14	; 0x0e
    47ea:	3f 85       	ldd	r19, Y+15	; 0x0f
    47ec:	48 89       	ldd	r20, Y+16	; 0x10
    47ee:	59 89       	ldd	r21, Y+17	; 0x11
    47f0:	79 01       	movw	r14, r18
    47f2:	8a 01       	movw	r16, r20
    47f4:	e8 1a       	sub	r14, r24
    47f6:	f9 0a       	sbc	r15, r25
    47f8:	0a 0b       	sbc	r16, r26
    47fa:	1b 0b       	sbc	r17, r27
    47fc:	d8 01       	movw	r26, r16
    47fe:	c7 01       	movw	r24, r14
    4800:	8e 87       	std	Y+14, r24	; 0x0e
    4802:	9f 87       	std	Y+15, r25	; 0x0f
    4804:	a8 8b       	std	Y+16, r26	; 0x10
    4806:	b9 8b       	std	Y+17, r27	; 0x11
    4808:	8e 81       	ldd	r24, Y+6	; 0x06
    480a:	9f 81       	ldd	r25, Y+7	; 0x07
    480c:	cc 01       	movw	r24, r24
    480e:	a0 e0       	ldi	r26, 0x00	; 0
    4810:	b0 e0       	ldi	r27, 0x00	; 0
    4812:	29 81       	ldd	r18, Y+1	; 0x01
    4814:	3a 81       	ldd	r19, Y+2	; 0x02
    4816:	4b 81       	ldd	r20, Y+3	; 0x03
    4818:	5c 81       	ldd	r21, Y+4	; 0x04
    481a:	82 0f       	add	r24, r18
    481c:	93 1f       	adc	r25, r19
    481e:	a4 1f       	adc	r26, r20
    4820:	b5 1f       	adc	r27, r21
    4822:	89 83       	std	Y+1, r24	; 0x01
    4824:	9a 83       	std	Y+2, r25	; 0x02
    4826:	ab 83       	std	Y+3, r26	; 0x03
    4828:	bc 83       	std	Y+4, r27	; 0x04
    482a:	8e 81       	ldd	r24, Y+6	; 0x06
    482c:	9f 81       	ldd	r25, Y+7	; 0x07
    482e:	cc 01       	movw	r24, r24
    4830:	a0 e0       	ldi	r26, 0x00	; 0
    4832:	b0 e0       	ldi	r27, 0x00	; 0
    4834:	28 85       	ldd	r18, Y+8	; 0x08
    4836:	39 85       	ldd	r19, Y+9	; 0x09
    4838:	4a 85       	ldd	r20, Y+10	; 0x0a
    483a:	5b 85       	ldd	r21, Y+11	; 0x0b
    483c:	82 0f       	add	r24, r18
    483e:	93 1f       	adc	r25, r19
    4840:	a4 1f       	adc	r26, r20
    4842:	b5 1f       	adc	r27, r21
    4844:	88 87       	std	Y+8, r24	; 0x08
    4846:	99 87       	std	Y+9, r25	; 0x09
    4848:	aa 87       	std	Y+10, r26	; 0x0a
    484a:	bb 87       	std	Y+11, r27	; 0x0b
    484c:	8b cf       	rjmp	.-234    	; 0x4764 <nm_write_block+0x42>
    484e:	00 00       	nop
    4850:	8d 81       	ldd	r24, Y+5	; 0x05
    4852:	61 96       	adiw	r28, 0x11	; 17
    4854:	cd bf       	out	0x3d, r28	; 61
    4856:	de bf       	out	0x3e, r29	; 62
    4858:	df 91       	pop	r29
    485a:	cf 91       	pop	r28
    485c:	1f 91       	pop	r17
    485e:	0f 91       	pop	r16
    4860:	ff 90       	pop	r15
    4862:	ef 90       	pop	r14
    4864:	08 95       	ret

00004866 <nm_get_firmware_full_info>:
    4866:	0f 93       	push	r16
    4868:	1f 93       	push	r17
    486a:	cf 93       	push	r28
    486c:	df 93       	push	r29
    486e:	cd b7       	in	r28, 0x3d	; 61
    4870:	de b7       	in	r29, 0x3e	; 62
    4872:	65 97       	sbiw	r28, 0x15	; 21
    4874:	cd bf       	out	0x3d, r28	; 61
    4876:	de bf       	out	0x3e, r29	; 62
    4878:	8c 8b       	std	Y+20, r24	; 0x14
    487a:	9d 8b       	std	Y+21, r25	; 0x15
    487c:	18 86       	std	Y+8, r1	; 0x08
    487e:	19 86       	std	Y+9, r1	; 0x09
    4880:	1a 86       	std	Y+10, r1	; 0x0a
    4882:	1b 86       	std	Y+11, r1	; 0x0b
    4884:	19 82       	std	Y+1, r1	; 0x01
    4886:	28 e0       	ldi	r18, 0x08	; 8
    4888:	ce 01       	movw	r24, r28
    488a:	0c 96       	adiw	r24, 0x0c	; 12
    488c:	fc 01       	movw	r30, r24
    488e:	32 2f       	mov	r19, r18
    4890:	11 92       	st	Z+, r1
    4892:	3a 95       	dec	r19
    4894:	e9 f7       	brne	.-6      	; 0x4890 <nm_get_firmware_full_info+0x2a>
    4896:	8c 89       	ldd	r24, Y+20	; 0x14
    4898:	9d 89       	ldd	r25, Y+21	; 0x15
    489a:	89 2b       	or	r24, r25
    489c:	09 f4       	brne	.+2      	; 0x48a0 <nm_get_firmware_full_info+0x3a>
    489e:	d6 c0       	rjmp	.+428    	; 0x4a4c <nm_get_firmware_full_info+0x1e6>
    48a0:	8c 89       	ldd	r24, Y+20	; 0x14
    48a2:	9d 89       	ldd	r25, Y+21	; 0x15
    48a4:	26 e2       	ldi	r18, 0x26	; 38
    48a6:	30 e0       	ldi	r19, 0x00	; 0
    48a8:	40 e0       	ldi	r20, 0x00	; 0
    48aa:	50 e0       	ldi	r21, 0x00	; 0
    48ac:	60 e0       	ldi	r22, 0x00	; 0
    48ae:	0e 94 35 12 	call	0x246a	; 0x246a <m2m_memset>
    48b2:	ce 01       	movw	r24, r28
    48b4:	08 96       	adiw	r24, 0x08	; 8
    48b6:	ac 01       	movw	r20, r24
    48b8:	68 e0       	ldi	r22, 0x08	; 8
    48ba:	70 e0       	ldi	r23, 0x00	; 0
    48bc:	8c e0       	ldi	r24, 0x0C	; 12
    48be:	90 e0       	ldi	r25, 0x00	; 0
    48c0:	0e 94 6e 22 	call	0x44dc	; 0x44dc <nm_read_reg_with_ret>
    48c4:	89 83       	std	Y+1, r24	; 0x01
    48c6:	89 81       	ldd	r24, Y+1	; 0x01
    48c8:	88 23       	and	r24, r24
    48ca:	09 f0       	breq	.+2      	; 0x48ce <nm_get_firmware_full_info+0x68>
    48cc:	bf c0       	rjmp	.+382    	; 0x4a4c <nm_get_firmware_full_info+0x1e6>
    48ce:	88 85       	ldd	r24, Y+8	; 0x08
    48d0:	99 85       	ldd	r25, Y+9	; 0x09
    48d2:	aa 85       	ldd	r26, Y+10	; 0x0a
    48d4:	bb 85       	ldd	r27, Y+11	; 0x0b
    48d6:	89 2b       	or	r24, r25
    48d8:	8a 2b       	or	r24, r26
    48da:	8b 2b       	or	r24, r27
    48dc:	09 f4       	brne	.+2      	; 0x48e0 <nm_get_firmware_full_info+0x7a>
    48de:	b4 c0       	rjmp	.+360    	; 0x4a48 <nm_get_firmware_full_info+0x1e2>
    48e0:	88 85       	ldd	r24, Y+8	; 0x08
    48e2:	99 85       	ldd	r25, Y+9	; 0x09
    48e4:	aa 85       	ldd	r26, Y+10	; 0x0a
    48e6:	bb 85       	ldd	r27, Y+11	; 0x0b
    48e8:	a3 60       	ori	r26, 0x03	; 3
    48ea:	ae 01       	movw	r20, r28
    48ec:	44 5f       	subi	r20, 0xF4	; 244
    48ee:	5f 4f       	sbci	r21, 0xFF	; 255
    48f0:	08 e0       	ldi	r16, 0x08	; 8
    48f2:	10 e0       	ldi	r17, 0x00	; 0
    48f4:	20 e0       	ldi	r18, 0x00	; 0
    48f6:	30 e0       	ldi	r19, 0x00	; 0
    48f8:	bc 01       	movw	r22, r24
    48fa:	cd 01       	movw	r24, r26
    48fc:	0e 94 ce 22 	call	0x459c	; 0x459c <nm_read_block>
    4900:	89 83       	std	Y+1, r24	; 0x01
    4902:	89 81       	ldd	r24, Y+1	; 0x01
    4904:	88 23       	and	r24, r24
    4906:	09 f0       	breq	.+2      	; 0x490a <nm_get_firmware_full_info+0xa4>
    4908:	a1 c0       	rjmp	.+322    	; 0x4a4c <nm_get_firmware_full_info+0x1e6>
    490a:	88 89       	ldd	r24, Y+16	; 0x10
    490c:	99 89       	ldd	r25, Y+17	; 0x11
    490e:	aa 89       	ldd	r26, Y+18	; 0x12
    4910:	bb 89       	ldd	r27, Y+19	; 0x13
    4912:	88 87       	std	Y+8, r24	; 0x08
    4914:	99 87       	std	Y+9, r25	; 0x09
    4916:	aa 87       	std	Y+10, r26	; 0x0a
    4918:	bb 87       	std	Y+11, r27	; 0x0b
    491a:	88 85       	ldd	r24, Y+8	; 0x08
    491c:	99 85       	ldd	r25, Y+9	; 0x09
    491e:	aa 85       	ldd	r26, Y+10	; 0x0a
    4920:	bb 85       	ldd	r27, Y+11	; 0x0b
    4922:	aa 27       	eor	r26, r26
    4924:	bb 27       	eor	r27, r27
    4926:	88 87       	std	Y+8, r24	; 0x08
    4928:	99 87       	std	Y+9, r25	; 0x09
    492a:	aa 87       	std	Y+10, r26	; 0x0a
    492c:	bb 87       	std	Y+11, r27	; 0x0b
    492e:	88 85       	ldd	r24, Y+8	; 0x08
    4930:	99 85       	ldd	r25, Y+9	; 0x09
    4932:	aa 85       	ldd	r26, Y+10	; 0x0a
    4934:	bb 85       	ldd	r27, Y+11	; 0x0b
    4936:	89 2b       	or	r24, r25
    4938:	8a 2b       	or	r24, r26
    493a:	8b 2b       	or	r24, r27
    493c:	09 f4       	brne	.+2      	; 0x4940 <nm_get_firmware_full_info+0xda>
    493e:	81 c0       	rjmp	.+258    	; 0x4a42 <nm_get_firmware_full_info+0x1dc>
    4940:	88 85       	ldd	r24, Y+8	; 0x08
    4942:	99 85       	ldd	r25, Y+9	; 0x09
    4944:	aa 85       	ldd	r26, Y+10	; 0x0a
    4946:	bb 85       	ldd	r27, Y+11	; 0x0b
    4948:	a3 60       	ori	r26, 0x03	; 3
    494a:	4c 89       	ldd	r20, Y+20	; 0x14
    494c:	5d 89       	ldd	r21, Y+21	; 0x15
    494e:	06 e2       	ldi	r16, 0x26	; 38
    4950:	10 e0       	ldi	r17, 0x00	; 0
    4952:	20 e0       	ldi	r18, 0x00	; 0
    4954:	30 e0       	ldi	r19, 0x00	; 0
    4956:	bc 01       	movw	r22, r24
    4958:	cd 01       	movw	r24, r26
    495a:	0e 94 ce 22 	call	0x459c	; 0x459c <nm_read_block>
    495e:	89 83       	std	Y+1, r24	; 0x01
    4960:	89 81       	ldd	r24, Y+1	; 0x01
    4962:	88 23       	and	r24, r24
    4964:	09 f0       	breq	.+2      	; 0x4968 <nm_get_firmware_full_info+0x102>
    4966:	72 c0       	rjmp	.+228    	; 0x4a4c <nm_get_firmware_full_info+0x1e6>
    4968:	8c 89       	ldd	r24, Y+20	; 0x14
    496a:	9d 89       	ldd	r25, Y+21	; 0x15
    496c:	fc 01       	movw	r30, r24
    496e:	84 81       	ldd	r24, Z+4	; 0x04
    4970:	88 2f       	mov	r24, r24
    4972:	90 e0       	ldi	r25, 0x00	; 0
    4974:	38 2f       	mov	r19, r24
    4976:	22 27       	eor	r18, r18
    4978:	8c 89       	ldd	r24, Y+20	; 0x14
    497a:	9d 89       	ldd	r25, Y+21	; 0x15
    497c:	fc 01       	movw	r30, r24
    497e:	85 81       	ldd	r24, Z+5	; 0x05
    4980:	88 2f       	mov	r24, r24
    4982:	90 e0       	ldi	r25, 0x00	; 0
    4984:	82 95       	swap	r24
    4986:	92 95       	swap	r25
    4988:	90 7f       	andi	r25, 0xF0	; 240
    498a:	98 27       	eor	r25, r24
    498c:	80 7f       	andi	r24, 0xF0	; 240
    498e:	98 27       	eor	r25, r24
    4990:	99 27       	eor	r25, r25
    4992:	28 2b       	or	r18, r24
    4994:	39 2b       	or	r19, r25
    4996:	8c 89       	ldd	r24, Y+20	; 0x14
    4998:	9d 89       	ldd	r25, Y+21	; 0x15
    499a:	fc 01       	movw	r30, r24
    499c:	86 81       	ldd	r24, Z+6	; 0x06
    499e:	88 2f       	mov	r24, r24
    49a0:	90 e0       	ldi	r25, 0x00	; 0
    49a2:	8f 70       	andi	r24, 0x0F	; 15
    49a4:	99 27       	eor	r25, r25
    49a6:	82 2b       	or	r24, r18
    49a8:	93 2b       	or	r25, r19
    49aa:	8a 83       	std	Y+2, r24	; 0x02
    49ac:	9b 83       	std	Y+3, r25	; 0x03
    49ae:	82 e5       	ldi	r24, 0x52	; 82
    49b0:	93 e1       	ldi	r25, 0x13	; 19
    49b2:	8c 83       	std	Y+4, r24	; 0x04
    49b4:	9d 83       	std	Y+5, r25	; 0x05
    49b6:	8c 89       	ldd	r24, Y+20	; 0x14
    49b8:	9d 89       	ldd	r25, Y+21	; 0x15
    49ba:	fc 01       	movw	r30, r24
    49bc:	87 81       	ldd	r24, Z+7	; 0x07
    49be:	88 2f       	mov	r24, r24
    49c0:	90 e0       	ldi	r25, 0x00	; 0
    49c2:	38 2f       	mov	r19, r24
    49c4:	22 27       	eor	r18, r18
    49c6:	8c 89       	ldd	r24, Y+20	; 0x14
    49c8:	9d 89       	ldd	r25, Y+21	; 0x15
    49ca:	fc 01       	movw	r30, r24
    49cc:	80 85       	ldd	r24, Z+8	; 0x08
    49ce:	88 2f       	mov	r24, r24
    49d0:	90 e0       	ldi	r25, 0x00	; 0
    49d2:	82 95       	swap	r24
    49d4:	92 95       	swap	r25
    49d6:	90 7f       	andi	r25, 0xF0	; 240
    49d8:	98 27       	eor	r25, r24
    49da:	80 7f       	andi	r24, 0xF0	; 240
    49dc:	98 27       	eor	r25, r24
    49de:	99 27       	eor	r25, r25
    49e0:	28 2b       	or	r18, r24
    49e2:	39 2b       	or	r19, r25
    49e4:	8c 89       	ldd	r24, Y+20	; 0x14
    49e6:	9d 89       	ldd	r25, Y+21	; 0x15
    49e8:	fc 01       	movw	r30, r24
    49ea:	81 85       	ldd	r24, Z+9	; 0x09
    49ec:	88 2f       	mov	r24, r24
    49ee:	90 e0       	ldi	r25, 0x00	; 0
    49f0:	8f 70       	andi	r24, 0x0F	; 15
    49f2:	99 27       	eor	r25, r25
    49f4:	82 2b       	or	r24, r18
    49f6:	93 2b       	or	r25, r19
    49f8:	8e 83       	std	Y+6, r24	; 0x06
    49fa:	9f 83       	std	Y+7, r25	; 0x07
    49fc:	8a 81       	ldd	r24, Y+2	; 0x02
    49fe:	9b 81       	ldd	r25, Y+3	; 0x03
    4a00:	89 2b       	or	r24, r25
    4a02:	41 f0       	breq	.+16     	; 0x4a14 <nm_get_firmware_full_info+0x1ae>
    4a04:	8e 81       	ldd	r24, Y+6	; 0x06
    4a06:	9f 81       	ldd	r25, Y+7	; 0x07
    4a08:	89 2b       	or	r24, r25
    4a0a:	21 f0       	breq	.+8      	; 0x4a14 <nm_get_firmware_full_info+0x1ae>
    4a0c:	8e 81       	ldd	r24, Y+6	; 0x06
    4a0e:	9f 81       	ldd	r25, Y+7	; 0x07
    4a10:	89 2b       	or	r24, r25
    4a12:	19 f4       	brne	.+6      	; 0x4a1a <nm_get_firmware_full_info+0x1b4>
    4a14:	84 ef       	ldi	r24, 0xF4	; 244
    4a16:	89 83       	std	Y+1, r24	; 0x01
    4a18:	19 c0       	rjmp	.+50     	; 0x4a4c <nm_get_firmware_full_info+0x1e6>
    4a1a:	2c 81       	ldd	r18, Y+4	; 0x04
    4a1c:	3d 81       	ldd	r19, Y+5	; 0x05
    4a1e:	8e 81       	ldd	r24, Y+6	; 0x06
    4a20:	9f 81       	ldd	r25, Y+7	; 0x07
    4a22:	28 17       	cp	r18, r24
    4a24:	39 07       	cpc	r19, r25
    4a26:	18 f4       	brcc	.+6      	; 0x4a2e <nm_get_firmware_full_info+0x1c8>
    4a28:	83 ef       	ldi	r24, 0xF3	; 243
    4a2a:	89 83       	std	Y+1, r24	; 0x01
    4a2c:	0f c0       	rjmp	.+30     	; 0x4a4c <nm_get_firmware_full_info+0x1e6>
    4a2e:	2c 81       	ldd	r18, Y+4	; 0x04
    4a30:	3d 81       	ldd	r19, Y+5	; 0x05
    4a32:	8a 81       	ldd	r24, Y+2	; 0x02
    4a34:	9b 81       	ldd	r25, Y+3	; 0x03
    4a36:	82 17       	cp	r24, r18
    4a38:	93 07       	cpc	r25, r19
    4a3a:	40 f4       	brcc	.+16     	; 0x4a4c <nm_get_firmware_full_info+0x1e6>
    4a3c:	83 ef       	ldi	r24, 0xF3	; 243
    4a3e:	89 83       	std	Y+1, r24	; 0x01
    4a40:	05 c0       	rjmp	.+10     	; 0x4a4c <nm_get_firmware_full_info+0x1e6>
    4a42:	84 ef       	ldi	r24, 0xF4	; 244
    4a44:	89 83       	std	Y+1, r24	; 0x01
    4a46:	02 c0       	rjmp	.+4      	; 0x4a4c <nm_get_firmware_full_info+0x1e6>
    4a48:	84 ef       	ldi	r24, 0xF4	; 244
    4a4a:	89 83       	std	Y+1, r24	; 0x01
    4a4c:	89 81       	ldd	r24, Y+1	; 0x01
    4a4e:	65 96       	adiw	r28, 0x15	; 21
    4a50:	cd bf       	out	0x3d, r28	; 61
    4a52:	de bf       	out	0x3e, r29	; 62
    4a54:	df 91       	pop	r29
    4a56:	cf 91       	pop	r28
    4a58:	1f 91       	pop	r17
    4a5a:	0f 91       	pop	r16
    4a5c:	08 95       	ret

00004a5e <nm_drv_init>:
    4a5e:	cf 93       	push	r28
    4a60:	df 93       	push	r29
    4a62:	00 d0       	rcall	.+0      	; 0x4a64 <nm_drv_init+0x6>
    4a64:	00 d0       	rcall	.+0      	; 0x4a66 <nm_drv_init+0x8>
    4a66:	cd b7       	in	r28, 0x3d	; 61
    4a68:	de b7       	in	r29, 0x3e	; 62
    4a6a:	8b 83       	std	Y+3, r24	; 0x03
    4a6c:	9c 83       	std	Y+4, r25	; 0x04
    4a6e:	19 82       	std	Y+1, r1	; 0x01
    4a70:	8b 81       	ldd	r24, Y+3	; 0x03
    4a72:	9c 81       	ldd	r25, Y+4	; 0x04
    4a74:	89 2b       	or	r24, r25
    4a76:	71 f0       	breq	.+28     	; 0x4a94 <nm_drv_init+0x36>
    4a78:	8b 81       	ldd	r24, Y+3	; 0x03
    4a7a:	9c 81       	ldd	r25, Y+4	; 0x04
    4a7c:	fc 01       	movw	r30, r24
    4a7e:	80 81       	ld	r24, Z
    4a80:	8a 83       	std	Y+2, r24	; 0x02
    4a82:	8a 81       	ldd	r24, Y+2	; 0x02
    4a84:	88 23       	and	r24, r24
    4a86:	19 f0       	breq	.+6      	; 0x4a8e <nm_drv_init+0x30>
    4a88:	8a 81       	ldd	r24, Y+2	; 0x02
    4a8a:	85 30       	cpi	r24, 0x05	; 5
    4a8c:	28 f0       	brcs	.+10     	; 0x4a98 <nm_drv_init+0x3a>
    4a8e:	81 e0       	ldi	r24, 0x01	; 1
    4a90:	8a 83       	std	Y+2, r24	; 0x02
    4a92:	02 c0       	rjmp	.+4      	; 0x4a98 <nm_drv_init+0x3a>
    4a94:	81 e0       	ldi	r24, 0x01	; 1
    4a96:	8a 83       	std	Y+2, r24	; 0x02
    4a98:	80 e0       	ldi	r24, 0x00	; 0
    4a9a:	90 e0       	ldi	r25, 0x00	; 0
    4a9c:	0e 94 23 22 	call	0x4446	; 0x4446 <nm_bus_iface_init>
    4aa0:	89 83       	std	Y+1, r24	; 0x01
    4aa2:	89 81       	ldd	r24, Y+1	; 0x01
    4aa4:	88 23       	and	r24, r24
    4aa6:	31 f5       	brne	.+76     	; 0x4af4 <nm_drv_init+0x96>
    4aa8:	0e 94 10 2c 	call	0x5820	; 0x5820 <nm_spi_init>
    4aac:	8a 81       	ldd	r24, Y+2	; 0x02
    4aae:	0e 94 52 20 	call	0x40a4	; 0x40a4 <wait_for_bootrom>
    4ab2:	89 83       	std	Y+1, r24	; 0x01
    4ab4:	89 81       	ldd	r24, Y+1	; 0x01
    4ab6:	88 23       	and	r24, r24
    4ab8:	a9 f4       	brne	.+42     	; 0x4ae4 <nm_drv_init+0x86>
    4aba:	8a 81       	ldd	r24, Y+2	; 0x02
    4abc:	0e 94 57 21 	call	0x42ae	; 0x42ae <wait_for_firmware_start>
    4ac0:	89 83       	std	Y+1, r24	; 0x01
    4ac2:	89 81       	ldd	r24, Y+1	; 0x01
    4ac4:	88 23       	and	r24, r24
    4ac6:	81 f4       	brne	.+32     	; 0x4ae8 <nm_drv_init+0x8a>
    4ac8:	8a 81       	ldd	r24, Y+2	; 0x02
    4aca:	82 30       	cpi	r24, 0x02	; 2
    4acc:	a1 f0       	breq	.+40     	; 0x4af6 <nm_drv_init+0x98>
    4ace:	8a 81       	ldd	r24, Y+2	; 0x02
    4ad0:	83 30       	cpi	r24, 0x03	; 3
    4ad2:	89 f0       	breq	.+34     	; 0x4af6 <nm_drv_init+0x98>
    4ad4:	0e 94 b6 1d 	call	0x3b6c	; 0x3b6c <enable_interrupts>
    4ad8:	89 83       	std	Y+1, r24	; 0x01
    4ada:	89 81       	ldd	r24, Y+1	; 0x01
    4adc:	88 23       	and	r24, r24
    4ade:	31 f4       	brne	.+12     	; 0x4aec <nm_drv_init+0x8e>
    4ae0:	89 81       	ldd	r24, Y+1	; 0x01
    4ae2:	0a c0       	rjmp	.+20     	; 0x4af8 <nm_drv_init+0x9a>
    4ae4:	00 00       	nop
    4ae6:	03 c0       	rjmp	.+6      	; 0x4aee <nm_drv_init+0x90>
    4ae8:	00 00       	nop
    4aea:	01 c0       	rjmp	.+2      	; 0x4aee <nm_drv_init+0x90>
    4aec:	00 00       	nop
    4aee:	0e 94 38 22 	call	0x4470	; 0x4470 <nm_bus_iface_deinit>
    4af2:	01 c0       	rjmp	.+2      	; 0x4af6 <nm_drv_init+0x98>
    4af4:	00 00       	nop
    4af6:	89 81       	ldd	r24, Y+1	; 0x01
    4af8:	24 96       	adiw	r28, 0x04	; 4
    4afa:	cd bf       	out	0x3d, r28	; 61
    4afc:	de bf       	out	0x3e, r29	; 62
    4afe:	df 91       	pop	r29
    4b00:	cf 91       	pop	r28
    4b02:	08 95       	ret

00004b04 <nm_drv_deinit>:
    4b04:	cf 93       	push	r28
    4b06:	df 93       	push	r29
    4b08:	00 d0       	rcall	.+0      	; 0x4b0a <nm_drv_deinit+0x6>
    4b0a:	1f 92       	push	r1
    4b0c:	cd b7       	in	r28, 0x3d	; 61
    4b0e:	de b7       	in	r29, 0x3e	; 62
    4b10:	8a 83       	std	Y+2, r24	; 0x02
    4b12:	9b 83       	std	Y+3, r25	; 0x03
    4b14:	0e 94 ec 21 	call	0x43d8	; 0x43d8 <chip_deinit>
    4b18:	89 83       	std	Y+1, r24	; 0x01
    4b1a:	89 81       	ldd	r24, Y+1	; 0x01
    4b1c:	88 23       	and	r24, r24
    4b1e:	81 f4       	brne	.+32     	; 0x4b40 <nm_drv_deinit+0x3c>
    4b20:	80 e0       	ldi	r24, 0x00	; 0
    4b22:	0e 94 6a 37 	call	0x6ed4	; 0x6ed4 <spi_flash_enable>
    4b26:	89 83       	std	Y+1, r24	; 0x01
    4b28:	89 81       	ldd	r24, Y+1	; 0x01
    4b2a:	88 23       	and	r24, r24
    4b2c:	59 f4       	brne	.+22     	; 0x4b44 <nm_drv_deinit+0x40>
    4b2e:	0e 94 38 22 	call	0x4470	; 0x4470 <nm_bus_iface_deinit>
    4b32:	89 83       	std	Y+1, r24	; 0x01
    4b34:	89 81       	ldd	r24, Y+1	; 0x01
    4b36:	88 23       	and	r24, r24
    4b38:	39 f4       	brne	.+14     	; 0x4b48 <nm_drv_deinit+0x44>
    4b3a:	0e 94 80 2c 	call	0x5900	; 0x5900 <nm_spi_deinit>
    4b3e:	05 c0       	rjmp	.+10     	; 0x4b4a <nm_drv_deinit+0x46>
    4b40:	00 00       	nop
    4b42:	03 c0       	rjmp	.+6      	; 0x4b4a <nm_drv_deinit+0x46>
    4b44:	00 00       	nop
    4b46:	01 c0       	rjmp	.+2      	; 0x4b4a <nm_drv_deinit+0x46>
    4b48:	00 00       	nop
    4b4a:	89 81       	ldd	r24, Y+1	; 0x01
    4b4c:	23 96       	adiw	r28, 0x03	; 3
    4b4e:	cd bf       	out	0x3d, r28	; 61
    4b50:	de bf       	out	0x3e, r29	; 62
    4b52:	df 91       	pop	r29
    4b54:	cf 91       	pop	r28
    4b56:	08 95       	ret

00004b58 <nmi_spi_read>:
    4b58:	cf 93       	push	r28
    4b5a:	df 93       	push	r29
    4b5c:	cd b7       	in	r28, 0x3d	; 61
    4b5e:	de b7       	in	r29, 0x3e	; 62
    4b60:	2a 97       	sbiw	r28, 0x0a	; 10
    4b62:	cd bf       	out	0x3d, r28	; 61
    4b64:	de bf       	out	0x3e, r29	; 62
    4b66:	8f 83       	std	Y+7, r24	; 0x07
    4b68:	98 87       	std	Y+8, r25	; 0x08
    4b6a:	69 87       	std	Y+9, r22	; 0x09
    4b6c:	7a 87       	std	Y+10, r23	; 0x0a
    4b6e:	19 82       	std	Y+1, r1	; 0x01
    4b70:	1a 82       	std	Y+2, r1	; 0x02
    4b72:	8f 81       	ldd	r24, Y+7	; 0x07
    4b74:	98 85       	ldd	r25, Y+8	; 0x08
    4b76:	8b 83       	std	Y+3, r24	; 0x03
    4b78:	9c 83       	std	Y+4, r25	; 0x04
    4b7a:	89 85       	ldd	r24, Y+9	; 0x09
    4b7c:	9a 85       	ldd	r25, Y+10	; 0x0a
    4b7e:	8d 83       	std	Y+5, r24	; 0x05
    4b80:	9e 83       	std	Y+6, r25	; 0x06
    4b82:	ce 01       	movw	r24, r28
    4b84:	01 96       	adiw	r24, 0x01	; 1
    4b86:	bc 01       	movw	r22, r24
    4b88:	83 e0       	ldi	r24, 0x03	; 3
    4b8a:	0e 94 b7 11 	call	0x236e	; 0x236e <nm_bus_ioctl>
    4b8e:	2a 96       	adiw	r28, 0x0a	; 10
    4b90:	cd bf       	out	0x3d, r28	; 61
    4b92:	de bf       	out	0x3e, r29	; 62
    4b94:	df 91       	pop	r29
    4b96:	cf 91       	pop	r28
    4b98:	08 95       	ret

00004b9a <nmi_spi_write>:
    4b9a:	cf 93       	push	r28
    4b9c:	df 93       	push	r29
    4b9e:	cd b7       	in	r28, 0x3d	; 61
    4ba0:	de b7       	in	r29, 0x3e	; 62
    4ba2:	2a 97       	sbiw	r28, 0x0a	; 10
    4ba4:	cd bf       	out	0x3d, r28	; 61
    4ba6:	de bf       	out	0x3e, r29	; 62
    4ba8:	8f 83       	std	Y+7, r24	; 0x07
    4baa:	98 87       	std	Y+8, r25	; 0x08
    4bac:	69 87       	std	Y+9, r22	; 0x09
    4bae:	7a 87       	std	Y+10, r23	; 0x0a
    4bb0:	8f 81       	ldd	r24, Y+7	; 0x07
    4bb2:	98 85       	ldd	r25, Y+8	; 0x08
    4bb4:	89 83       	std	Y+1, r24	; 0x01
    4bb6:	9a 83       	std	Y+2, r25	; 0x02
    4bb8:	1b 82       	std	Y+3, r1	; 0x03
    4bba:	1c 82       	std	Y+4, r1	; 0x04
    4bbc:	89 85       	ldd	r24, Y+9	; 0x09
    4bbe:	9a 85       	ldd	r25, Y+10	; 0x0a
    4bc0:	8d 83       	std	Y+5, r24	; 0x05
    4bc2:	9e 83       	std	Y+6, r25	; 0x06
    4bc4:	ce 01       	movw	r24, r28
    4bc6:	01 96       	adiw	r24, 0x01	; 1
    4bc8:	bc 01       	movw	r22, r24
    4bca:	83 e0       	ldi	r24, 0x03	; 3
    4bcc:	0e 94 b7 11 	call	0x236e	; 0x236e <nm_bus_ioctl>
    4bd0:	2a 96       	adiw	r28, 0x0a	; 10
    4bd2:	cd bf       	out	0x3d, r28	; 61
    4bd4:	de bf       	out	0x3e, r29	; 62
    4bd6:	df 91       	pop	r29
    4bd8:	cf 91       	pop	r28
    4bda:	08 95       	ret

00004bdc <crc7_byte>:
    4bdc:	cf 93       	push	r28
    4bde:	df 93       	push	r29
    4be0:	cd b7       	in	r28, 0x3d	; 61
    4be2:	de b7       	in	r29, 0x3e	; 62
    4be4:	25 97       	sbiw	r28, 0x05	; 5
    4be6:	cd bf       	out	0x3d, r28	; 61
    4be8:	de bf       	out	0x3e, r29	; 62
    4bea:	8c 83       	std	Y+4, r24	; 0x04
    4bec:	6d 83       	std	Y+5, r22	; 0x05
    4bee:	8c 81       	ldd	r24, Y+4	; 0x04
    4bf0:	88 2f       	mov	r24, r24
    4bf2:	90 e0       	ldi	r25, 0x00	; 0
    4bf4:	9c 01       	movw	r18, r24
    4bf6:	22 0f       	add	r18, r18
    4bf8:	33 1f       	adc	r19, r19
    4bfa:	8d 81       	ldd	r24, Y+5	; 0x05
    4bfc:	88 2f       	mov	r24, r24
    4bfe:	90 e0       	ldi	r25, 0x00	; 0
    4c00:	82 27       	eor	r24, r18
    4c02:	93 27       	eor	r25, r19
    4c04:	84 53       	subi	r24, 0x34	; 52
    4c06:	9f 4f       	sbci	r25, 0xFF	; 255
    4c08:	89 83       	std	Y+1, r24	; 0x01
    4c0a:	9a 83       	std	Y+2, r25	; 0x02
    4c0c:	89 81       	ldd	r24, Y+1	; 0x01
    4c0e:	9a 81       	ldd	r25, Y+2	; 0x02
    4c10:	fc 01       	movw	r30, r24
    4c12:	84 91       	lpm	r24, Z
    4c14:	8b 83       	std	Y+3, r24	; 0x03
    4c16:	8b 81       	ldd	r24, Y+3	; 0x03
    4c18:	25 96       	adiw	r28, 0x05	; 5
    4c1a:	cd bf       	out	0x3d, r28	; 61
    4c1c:	de bf       	out	0x3e, r29	; 62
    4c1e:	df 91       	pop	r29
    4c20:	cf 91       	pop	r28
    4c22:	08 95       	ret

00004c24 <crc7>:
    4c24:	cf 93       	push	r28
    4c26:	df 93       	push	r29
    4c28:	cd b7       	in	r28, 0x3d	; 61
    4c2a:	de b7       	in	r29, 0x3e	; 62
    4c2c:	27 97       	sbiw	r28, 0x07	; 7
    4c2e:	cd bf       	out	0x3d, r28	; 61
    4c30:	de bf       	out	0x3e, r29	; 62
    4c32:	89 83       	std	Y+1, r24	; 0x01
    4c34:	6a 83       	std	Y+2, r22	; 0x02
    4c36:	7b 83       	std	Y+3, r23	; 0x03
    4c38:	2c 83       	std	Y+4, r18	; 0x04
    4c3a:	3d 83       	std	Y+5, r19	; 0x05
    4c3c:	4e 83       	std	Y+6, r20	; 0x06
    4c3e:	5f 83       	std	Y+7, r21	; 0x07
    4c40:	0e c0       	rjmp	.+28     	; 0x4c5e <crc7+0x3a>
    4c42:	8a 81       	ldd	r24, Y+2	; 0x02
    4c44:	9b 81       	ldd	r25, Y+3	; 0x03
    4c46:	9c 01       	movw	r18, r24
    4c48:	2f 5f       	subi	r18, 0xFF	; 255
    4c4a:	3f 4f       	sbci	r19, 0xFF	; 255
    4c4c:	2a 83       	std	Y+2, r18	; 0x02
    4c4e:	3b 83       	std	Y+3, r19	; 0x03
    4c50:	fc 01       	movw	r30, r24
    4c52:	80 81       	ld	r24, Z
    4c54:	68 2f       	mov	r22, r24
    4c56:	89 81       	ldd	r24, Y+1	; 0x01
    4c58:	0e 94 ee 25 	call	0x4bdc	; 0x4bdc <crc7_byte>
    4c5c:	89 83       	std	Y+1, r24	; 0x01
    4c5e:	8c 81       	ldd	r24, Y+4	; 0x04
    4c60:	9d 81       	ldd	r25, Y+5	; 0x05
    4c62:	ae 81       	ldd	r26, Y+6	; 0x06
    4c64:	bf 81       	ldd	r27, Y+7	; 0x07
    4c66:	9c 01       	movw	r18, r24
    4c68:	ad 01       	movw	r20, r26
    4c6a:	21 50       	subi	r18, 0x01	; 1
    4c6c:	31 09       	sbc	r19, r1
    4c6e:	41 09       	sbc	r20, r1
    4c70:	51 09       	sbc	r21, r1
    4c72:	2c 83       	std	Y+4, r18	; 0x04
    4c74:	3d 83       	std	Y+5, r19	; 0x05
    4c76:	4e 83       	std	Y+6, r20	; 0x06
    4c78:	5f 83       	std	Y+7, r21	; 0x07
    4c7a:	89 2b       	or	r24, r25
    4c7c:	8a 2b       	or	r24, r26
    4c7e:	8b 2b       	or	r24, r27
    4c80:	01 f7       	brne	.-64     	; 0x4c42 <crc7+0x1e>
    4c82:	89 81       	ldd	r24, Y+1	; 0x01
    4c84:	27 96       	adiw	r28, 0x07	; 7
    4c86:	cd bf       	out	0x3d, r28	; 61
    4c88:	de bf       	out	0x3e, r29	; 62
    4c8a:	df 91       	pop	r29
    4c8c:	cf 91       	pop	r28
    4c8e:	08 95       	ret

00004c90 <spi_cmd>:
    4c90:	af 92       	push	r10
    4c92:	cf 92       	push	r12
    4c94:	df 92       	push	r13
    4c96:	ef 92       	push	r14
    4c98:	ff 92       	push	r15
    4c9a:	0f 93       	push	r16
    4c9c:	1f 93       	push	r17
    4c9e:	cf 93       	push	r28
    4ca0:	df 93       	push	r29
    4ca2:	cd b7       	in	r28, 0x3d	; 61
    4ca4:	de b7       	in	r29, 0x3e	; 62
    4ca6:	69 97       	sbiw	r28, 0x19	; 25
    4ca8:	cd bf       	out	0x3d, r28	; 61
    4caa:	de bf       	out	0x3e, r29	; 62
    4cac:	8c 87       	std	Y+12, r24	; 0x0c
    4cae:	4d 87       	std	Y+13, r20	; 0x0d
    4cb0:	5e 87       	std	Y+14, r21	; 0x0e
    4cb2:	6f 87       	std	Y+15, r22	; 0x0f
    4cb4:	78 8b       	std	Y+16, r23	; 0x10
    4cb6:	09 8b       	std	Y+17, r16	; 0x11
    4cb8:	1a 8b       	std	Y+18, r17	; 0x12
    4cba:	2b 8b       	std	Y+19, r18	; 0x13
    4cbc:	3c 8b       	std	Y+20, r19	; 0x14
    4cbe:	cd 8a       	std	Y+21, r12	; 0x15
    4cc0:	de 8a       	std	Y+22, r13	; 0x16
    4cc2:	ef 8a       	std	Y+23, r14	; 0x17
    4cc4:	f8 8e       	std	Y+24, r15	; 0x18
    4cc6:	a9 8e       	std	Y+25, r10	; 0x19
    4cc8:	85 e0       	ldi	r24, 0x05	; 5
    4cca:	89 83       	std	Y+1, r24	; 0x01
    4ccc:	81 e0       	ldi	r24, 0x01	; 1
    4cce:	8a 83       	std	Y+2, r24	; 0x02
    4cd0:	8c 85       	ldd	r24, Y+12	; 0x0c
    4cd2:	8b 83       	std	Y+3, r24	; 0x03
    4cd4:	8c 85       	ldd	r24, Y+12	; 0x0c
    4cd6:	88 2f       	mov	r24, r24
    4cd8:	90 e0       	ldi	r25, 0x00	; 0
    4cda:	09 2e       	mov	r0, r25
    4cdc:	00 0c       	add	r0, r0
    4cde:	aa 0b       	sbc	r26, r26
    4ce0:	bb 0b       	sbc	r27, r27
    4ce2:	41 ec       	ldi	r20, 0xC1	; 193
    4ce4:	50 e0       	ldi	r21, 0x00	; 0
    4ce6:	2e e0       	ldi	r18, 0x0E	; 14
    4ce8:	30 e0       	ldi	r19, 0x00	; 0
    4cea:	84 1b       	sub	r24, r20
    4cec:	95 0b       	sbc	r25, r21
    4cee:	28 17       	cp	r18, r24
    4cf0:	39 07       	cpc	r19, r25
    4cf2:	08 f4       	brcc	.+2      	; 0x4cf6 <spi_cmd+0x66>
    4cf4:	f1 c0       	rjmp	.+482    	; 0x4ed8 <spi_cmd+0x248>
    4cf6:	89 5a       	subi	r24, 0xA9	; 169
    4cf8:	9f 4f       	sbci	r25, 0xFF	; 255
    4cfa:	fc 01       	movw	r30, r24
    4cfc:	0c 94 10 39 	jmp	0x7220	; 0x7220 <__tablejump2__>
    4d00:	8d 85       	ldd	r24, Y+13	; 0x0d
    4d02:	9e 85       	ldd	r25, Y+14	; 0x0e
    4d04:	af 85       	ldd	r26, Y+15	; 0x0f
    4d06:	b8 89       	ldd	r27, Y+16	; 0x10
    4d08:	cd 01       	movw	r24, r26
    4d0a:	aa 27       	eor	r26, r26
    4d0c:	bb 27       	eor	r27, r27
    4d0e:	8c 83       	std	Y+4, r24	; 0x04
    4d10:	8d 85       	ldd	r24, Y+13	; 0x0d
    4d12:	9e 85       	ldd	r25, Y+14	; 0x0e
    4d14:	af 85       	ldd	r26, Y+15	; 0x0f
    4d16:	b8 89       	ldd	r27, Y+16	; 0x10
    4d18:	89 2f       	mov	r24, r25
    4d1a:	9a 2f       	mov	r25, r26
    4d1c:	ab 2f       	mov	r26, r27
    4d1e:	bb 27       	eor	r27, r27
    4d20:	8d 83       	std	Y+5, r24	; 0x05
    4d22:	8d 85       	ldd	r24, Y+13	; 0x0d
    4d24:	8e 83       	std	Y+6, r24	; 0x06
    4d26:	85 e0       	ldi	r24, 0x05	; 5
    4d28:	89 83       	std	Y+1, r24	; 0x01
    4d2a:	d8 c0       	rjmp	.+432    	; 0x4edc <spi_cmd+0x24c>
    4d2c:	8d 85       	ldd	r24, Y+13	; 0x0d
    4d2e:	9e 85       	ldd	r25, Y+14	; 0x0e
    4d30:	af 85       	ldd	r26, Y+15	; 0x0f
    4d32:	b8 89       	ldd	r27, Y+16	; 0x10
    4d34:	89 2f       	mov	r24, r25
    4d36:	9a 2f       	mov	r25, r26
    4d38:	ab 2f       	mov	r26, r27
    4d3a:	bb 27       	eor	r27, r27
    4d3c:	8c 83       	std	Y+4, r24	; 0x04
    4d3e:	89 8d       	ldd	r24, Y+25	; 0x19
    4d40:	88 23       	and	r24, r24
    4d42:	19 f0       	breq	.+6      	; 0x4d4a <spi_cmd+0xba>
    4d44:	8c 81       	ldd	r24, Y+4	; 0x04
    4d46:	80 68       	ori	r24, 0x80	; 128
    4d48:	8c 83       	std	Y+4, r24	; 0x04
    4d4a:	8d 85       	ldd	r24, Y+13	; 0x0d
    4d4c:	8d 83       	std	Y+5, r24	; 0x05
    4d4e:	1e 82       	std	Y+6, r1	; 0x06
    4d50:	85 e0       	ldi	r24, 0x05	; 5
    4d52:	89 83       	std	Y+1, r24	; 0x01
    4d54:	c3 c0       	rjmp	.+390    	; 0x4edc <spi_cmd+0x24c>
    4d56:	1c 82       	std	Y+4, r1	; 0x04
    4d58:	1d 82       	std	Y+5, r1	; 0x05
    4d5a:	1e 82       	std	Y+6, r1	; 0x06
    4d5c:	85 e0       	ldi	r24, 0x05	; 5
    4d5e:	89 83       	std	Y+1, r24	; 0x01
    4d60:	bd c0       	rjmp	.+378    	; 0x4edc <spi_cmd+0x24c>
    4d62:	1c 82       	std	Y+4, r1	; 0x04
    4d64:	1d 82       	std	Y+5, r1	; 0x05
    4d66:	1e 82       	std	Y+6, r1	; 0x06
    4d68:	85 e0       	ldi	r24, 0x05	; 5
    4d6a:	89 83       	std	Y+1, r24	; 0x01
    4d6c:	b7 c0       	rjmp	.+366    	; 0x4edc <spi_cmd+0x24c>
    4d6e:	8f ef       	ldi	r24, 0xFF	; 255
    4d70:	8c 83       	std	Y+4, r24	; 0x04
    4d72:	8f ef       	ldi	r24, 0xFF	; 255
    4d74:	8d 83       	std	Y+5, r24	; 0x05
    4d76:	8f ef       	ldi	r24, 0xFF	; 255
    4d78:	8e 83       	std	Y+6, r24	; 0x06
    4d7a:	85 e0       	ldi	r24, 0x05	; 5
    4d7c:	89 83       	std	Y+1, r24	; 0x01
    4d7e:	ae c0       	rjmp	.+348    	; 0x4edc <spi_cmd+0x24c>
    4d80:	8d 85       	ldd	r24, Y+13	; 0x0d
    4d82:	9e 85       	ldd	r25, Y+14	; 0x0e
    4d84:	af 85       	ldd	r26, Y+15	; 0x0f
    4d86:	b8 89       	ldd	r27, Y+16	; 0x10
    4d88:	cd 01       	movw	r24, r26
    4d8a:	aa 27       	eor	r26, r26
    4d8c:	bb 27       	eor	r27, r27
    4d8e:	8c 83       	std	Y+4, r24	; 0x04
    4d90:	8d 85       	ldd	r24, Y+13	; 0x0d
    4d92:	9e 85       	ldd	r25, Y+14	; 0x0e
    4d94:	af 85       	ldd	r26, Y+15	; 0x0f
    4d96:	b8 89       	ldd	r27, Y+16	; 0x10
    4d98:	89 2f       	mov	r24, r25
    4d9a:	9a 2f       	mov	r25, r26
    4d9c:	ab 2f       	mov	r26, r27
    4d9e:	bb 27       	eor	r27, r27
    4da0:	8d 83       	std	Y+5, r24	; 0x05
    4da2:	8d 85       	ldd	r24, Y+13	; 0x0d
    4da4:	8e 83       	std	Y+6, r24	; 0x06
    4da6:	8d 89       	ldd	r24, Y+21	; 0x15
    4da8:	9e 89       	ldd	r25, Y+22	; 0x16
    4daa:	af 89       	ldd	r26, Y+23	; 0x17
    4dac:	b8 8d       	ldd	r27, Y+24	; 0x18
    4dae:	89 2f       	mov	r24, r25
    4db0:	9a 2f       	mov	r25, r26
    4db2:	ab 2f       	mov	r26, r27
    4db4:	bb 27       	eor	r27, r27
    4db6:	8f 83       	std	Y+7, r24	; 0x07
    4db8:	8d 89       	ldd	r24, Y+21	; 0x15
    4dba:	88 87       	std	Y+8, r24	; 0x08
    4dbc:	87 e0       	ldi	r24, 0x07	; 7
    4dbe:	89 83       	std	Y+1, r24	; 0x01
    4dc0:	8d c0       	rjmp	.+282    	; 0x4edc <spi_cmd+0x24c>
    4dc2:	8d 85       	ldd	r24, Y+13	; 0x0d
    4dc4:	9e 85       	ldd	r25, Y+14	; 0x0e
    4dc6:	af 85       	ldd	r26, Y+15	; 0x0f
    4dc8:	b8 89       	ldd	r27, Y+16	; 0x10
    4dca:	cd 01       	movw	r24, r26
    4dcc:	aa 27       	eor	r26, r26
    4dce:	bb 27       	eor	r27, r27
    4dd0:	8c 83       	std	Y+4, r24	; 0x04
    4dd2:	8d 85       	ldd	r24, Y+13	; 0x0d
    4dd4:	9e 85       	ldd	r25, Y+14	; 0x0e
    4dd6:	af 85       	ldd	r26, Y+15	; 0x0f
    4dd8:	b8 89       	ldd	r27, Y+16	; 0x10
    4dda:	89 2f       	mov	r24, r25
    4ddc:	9a 2f       	mov	r25, r26
    4dde:	ab 2f       	mov	r26, r27
    4de0:	bb 27       	eor	r27, r27
    4de2:	8d 83       	std	Y+5, r24	; 0x05
    4de4:	8d 85       	ldd	r24, Y+13	; 0x0d
    4de6:	8e 83       	std	Y+6, r24	; 0x06
    4de8:	8d 89       	ldd	r24, Y+21	; 0x15
    4dea:	9e 89       	ldd	r25, Y+22	; 0x16
    4dec:	af 89       	ldd	r26, Y+23	; 0x17
    4dee:	b8 8d       	ldd	r27, Y+24	; 0x18
    4df0:	cd 01       	movw	r24, r26
    4df2:	aa 27       	eor	r26, r26
    4df4:	bb 27       	eor	r27, r27
    4df6:	8f 83       	std	Y+7, r24	; 0x07
    4df8:	8d 89       	ldd	r24, Y+21	; 0x15
    4dfa:	9e 89       	ldd	r25, Y+22	; 0x16
    4dfc:	af 89       	ldd	r26, Y+23	; 0x17
    4dfe:	b8 8d       	ldd	r27, Y+24	; 0x18
    4e00:	89 2f       	mov	r24, r25
    4e02:	9a 2f       	mov	r25, r26
    4e04:	ab 2f       	mov	r26, r27
    4e06:	bb 27       	eor	r27, r27
    4e08:	88 87       	std	Y+8, r24	; 0x08
    4e0a:	8d 89       	ldd	r24, Y+21	; 0x15
    4e0c:	89 87       	std	Y+9, r24	; 0x09
    4e0e:	88 e0       	ldi	r24, 0x08	; 8
    4e10:	89 83       	std	Y+1, r24	; 0x01
    4e12:	64 c0       	rjmp	.+200    	; 0x4edc <spi_cmd+0x24c>
    4e14:	8d 85       	ldd	r24, Y+13	; 0x0d
    4e16:	9e 85       	ldd	r25, Y+14	; 0x0e
    4e18:	af 85       	ldd	r26, Y+15	; 0x0f
    4e1a:	b8 89       	ldd	r27, Y+16	; 0x10
    4e1c:	89 2f       	mov	r24, r25
    4e1e:	9a 2f       	mov	r25, r26
    4e20:	ab 2f       	mov	r26, r27
    4e22:	bb 27       	eor	r27, r27
    4e24:	8c 83       	std	Y+4, r24	; 0x04
    4e26:	89 8d       	ldd	r24, Y+25	; 0x19
    4e28:	88 23       	and	r24, r24
    4e2a:	19 f0       	breq	.+6      	; 0x4e32 <spi_cmd+0x1a2>
    4e2c:	8c 81       	ldd	r24, Y+4	; 0x04
    4e2e:	80 68       	ori	r24, 0x80	; 128
    4e30:	8c 83       	std	Y+4, r24	; 0x04
    4e32:	8d 85       	ldd	r24, Y+13	; 0x0d
    4e34:	8d 83       	std	Y+5, r24	; 0x05
    4e36:	89 89       	ldd	r24, Y+17	; 0x11
    4e38:	9a 89       	ldd	r25, Y+18	; 0x12
    4e3a:	ab 89       	ldd	r26, Y+19	; 0x13
    4e3c:	bc 89       	ldd	r27, Y+20	; 0x14
    4e3e:	8b 2f       	mov	r24, r27
    4e40:	99 27       	eor	r25, r25
    4e42:	aa 27       	eor	r26, r26
    4e44:	bb 27       	eor	r27, r27
    4e46:	8e 83       	std	Y+6, r24	; 0x06
    4e48:	89 89       	ldd	r24, Y+17	; 0x11
    4e4a:	9a 89       	ldd	r25, Y+18	; 0x12
    4e4c:	ab 89       	ldd	r26, Y+19	; 0x13
    4e4e:	bc 89       	ldd	r27, Y+20	; 0x14
    4e50:	cd 01       	movw	r24, r26
    4e52:	aa 27       	eor	r26, r26
    4e54:	bb 27       	eor	r27, r27
    4e56:	8f 83       	std	Y+7, r24	; 0x07
    4e58:	89 89       	ldd	r24, Y+17	; 0x11
    4e5a:	9a 89       	ldd	r25, Y+18	; 0x12
    4e5c:	ab 89       	ldd	r26, Y+19	; 0x13
    4e5e:	bc 89       	ldd	r27, Y+20	; 0x14
    4e60:	89 2f       	mov	r24, r25
    4e62:	9a 2f       	mov	r25, r26
    4e64:	ab 2f       	mov	r26, r27
    4e66:	bb 27       	eor	r27, r27
    4e68:	88 87       	std	Y+8, r24	; 0x08
    4e6a:	89 89       	ldd	r24, Y+17	; 0x11
    4e6c:	89 87       	std	Y+9, r24	; 0x09
    4e6e:	88 e0       	ldi	r24, 0x08	; 8
    4e70:	89 83       	std	Y+1, r24	; 0x01
    4e72:	34 c0       	rjmp	.+104    	; 0x4edc <spi_cmd+0x24c>
    4e74:	8d 85       	ldd	r24, Y+13	; 0x0d
    4e76:	9e 85       	ldd	r25, Y+14	; 0x0e
    4e78:	af 85       	ldd	r26, Y+15	; 0x0f
    4e7a:	b8 89       	ldd	r27, Y+16	; 0x10
    4e7c:	cd 01       	movw	r24, r26
    4e7e:	aa 27       	eor	r26, r26
    4e80:	bb 27       	eor	r27, r27
    4e82:	8c 83       	std	Y+4, r24	; 0x04
    4e84:	8d 85       	ldd	r24, Y+13	; 0x0d
    4e86:	9e 85       	ldd	r25, Y+14	; 0x0e
    4e88:	af 85       	ldd	r26, Y+15	; 0x0f
    4e8a:	b8 89       	ldd	r27, Y+16	; 0x10
    4e8c:	89 2f       	mov	r24, r25
    4e8e:	9a 2f       	mov	r25, r26
    4e90:	ab 2f       	mov	r26, r27
    4e92:	bb 27       	eor	r27, r27
    4e94:	8d 83       	std	Y+5, r24	; 0x05
    4e96:	8d 85       	ldd	r24, Y+13	; 0x0d
    4e98:	8e 83       	std	Y+6, r24	; 0x06
    4e9a:	89 89       	ldd	r24, Y+17	; 0x11
    4e9c:	9a 89       	ldd	r25, Y+18	; 0x12
    4e9e:	ab 89       	ldd	r26, Y+19	; 0x13
    4ea0:	bc 89       	ldd	r27, Y+20	; 0x14
    4ea2:	8b 2f       	mov	r24, r27
    4ea4:	99 27       	eor	r25, r25
    4ea6:	aa 27       	eor	r26, r26
    4ea8:	bb 27       	eor	r27, r27
    4eaa:	8f 83       	std	Y+7, r24	; 0x07
    4eac:	89 89       	ldd	r24, Y+17	; 0x11
    4eae:	9a 89       	ldd	r25, Y+18	; 0x12
    4eb0:	ab 89       	ldd	r26, Y+19	; 0x13
    4eb2:	bc 89       	ldd	r27, Y+20	; 0x14
    4eb4:	cd 01       	movw	r24, r26
    4eb6:	aa 27       	eor	r26, r26
    4eb8:	bb 27       	eor	r27, r27
    4eba:	88 87       	std	Y+8, r24	; 0x08
    4ebc:	89 89       	ldd	r24, Y+17	; 0x11
    4ebe:	9a 89       	ldd	r25, Y+18	; 0x12
    4ec0:	ab 89       	ldd	r26, Y+19	; 0x13
    4ec2:	bc 89       	ldd	r27, Y+20	; 0x14
    4ec4:	89 2f       	mov	r24, r25
    4ec6:	9a 2f       	mov	r25, r26
    4ec8:	ab 2f       	mov	r26, r27
    4eca:	bb 27       	eor	r27, r27
    4ecc:	89 87       	std	Y+9, r24	; 0x09
    4ece:	89 89       	ldd	r24, Y+17	; 0x11
    4ed0:	8a 87       	std	Y+10, r24	; 0x0a
    4ed2:	89 e0       	ldi	r24, 0x09	; 9
    4ed4:	89 83       	std	Y+1, r24	; 0x01
    4ed6:	02 c0       	rjmp	.+4      	; 0x4edc <spi_cmd+0x24c>
    4ed8:	1a 82       	std	Y+2, r1	; 0x02
    4eda:	00 00       	nop
    4edc:	8a 81       	ldd	r24, Y+2	; 0x02
    4ede:	88 23       	and	r24, r24
    4ee0:	89 f1       	breq	.+98     	; 0x4f44 <spi_cmd+0x2b4>
    4ee2:	80 91 11 2e 	lds	r24, 0x2E11	; 0x802e11 <gu8Crc_off>
    4ee6:	88 23       	and	r24, r24
    4ee8:	f9 f4       	brne	.+62     	; 0x4f28 <spi_cmd+0x298>
    4eea:	89 81       	ldd	r24, Y+1	; 0x01
    4eec:	88 2f       	mov	r24, r24
    4eee:	90 e0       	ldi	r25, 0x00	; 0
    4ef0:	8c 01       	movw	r16, r24
    4ef2:	01 50       	subi	r16, 0x01	; 1
    4ef4:	11 09       	sbc	r17, r1
    4ef6:	89 81       	ldd	r24, Y+1	; 0x01
    4ef8:	88 2f       	mov	r24, r24
    4efa:	90 e0       	ldi	r25, 0x00	; 0
    4efc:	01 97       	sbiw	r24, 0x01	; 1
    4efe:	09 2e       	mov	r0, r25
    4f00:	00 0c       	add	r0, r0
    4f02:	aa 0b       	sbc	r26, r26
    4f04:	bb 0b       	sbc	r27, r27
    4f06:	be 01       	movw	r22, r28
    4f08:	6d 5f       	subi	r22, 0xFD	; 253
    4f0a:	7f 4f       	sbci	r23, 0xFF	; 255
    4f0c:	9c 01       	movw	r18, r24
    4f0e:	ad 01       	movw	r20, r26
    4f10:	8f e7       	ldi	r24, 0x7F	; 127
    4f12:	0e 94 12 26 	call	0x4c24	; 0x4c24 <crc7>
    4f16:	28 2f       	mov	r18, r24
    4f18:	22 0f       	add	r18, r18
    4f1a:	ce 01       	movw	r24, r28
    4f1c:	03 96       	adiw	r24, 0x03	; 3
    4f1e:	80 0f       	add	r24, r16
    4f20:	91 1f       	adc	r25, r17
    4f22:	fc 01       	movw	r30, r24
    4f24:	20 83       	st	Z, r18
    4f26:	03 c0       	rjmp	.+6      	; 0x4f2e <spi_cmd+0x29e>
    4f28:	89 81       	ldd	r24, Y+1	; 0x01
    4f2a:	81 50       	subi	r24, 0x01	; 1
    4f2c:	89 83       	std	Y+1, r24	; 0x01
    4f2e:	89 81       	ldd	r24, Y+1	; 0x01
    4f30:	28 2f       	mov	r18, r24
    4f32:	30 e0       	ldi	r19, 0x00	; 0
    4f34:	ce 01       	movw	r24, r28
    4f36:	03 96       	adiw	r24, 0x03	; 3
    4f38:	b9 01       	movw	r22, r18
    4f3a:	0e 94 cd 25 	call	0x4b9a	; 0x4b9a <nmi_spi_write>
    4f3e:	88 23       	and	r24, r24
    4f40:	09 f0       	breq	.+2      	; 0x4f44 <spi_cmd+0x2b4>
    4f42:	1a 82       	std	Y+2, r1	; 0x02
    4f44:	8a 81       	ldd	r24, Y+2	; 0x02
    4f46:	69 96       	adiw	r28, 0x19	; 25
    4f48:	cd bf       	out	0x3d, r28	; 61
    4f4a:	de bf       	out	0x3e, r29	; 62
    4f4c:	df 91       	pop	r29
    4f4e:	cf 91       	pop	r28
    4f50:	1f 91       	pop	r17
    4f52:	0f 91       	pop	r16
    4f54:	ff 90       	pop	r15
    4f56:	ef 90       	pop	r14
    4f58:	df 90       	pop	r13
    4f5a:	cf 90       	pop	r12
    4f5c:	af 90       	pop	r10
    4f5e:	08 95       	ret

00004f60 <spi_data_rsp>:
    4f60:	cf 93       	push	r28
    4f62:	df 93       	push	r29
    4f64:	cd b7       	in	r28, 0x3d	; 61
    4f66:	de b7       	in	r29, 0x3e	; 62
    4f68:	26 97       	sbiw	r28, 0x06	; 6
    4f6a:	cd bf       	out	0x3d, r28	; 61
    4f6c:	de bf       	out	0x3e, r29	; 62
    4f6e:	8e 83       	std	Y+6, r24	; 0x06
    4f70:	81 e0       	ldi	r24, 0x01	; 1
    4f72:	8a 83       	std	Y+2, r24	; 0x02
    4f74:	80 91 11 2e 	lds	r24, 0x2E11	; 0x802e11 <gu8Crc_off>
    4f78:	88 23       	and	r24, r24
    4f7a:	19 f4       	brne	.+6      	; 0x4f82 <spi_data_rsp+0x22>
    4f7c:	82 e0       	ldi	r24, 0x02	; 2
    4f7e:	89 83       	std	Y+1, r24	; 0x01
    4f80:	02 c0       	rjmp	.+4      	; 0x4f86 <spi_data_rsp+0x26>
    4f82:	83 e0       	ldi	r24, 0x03	; 3
    4f84:	89 83       	std	Y+1, r24	; 0x01
    4f86:	89 81       	ldd	r24, Y+1	; 0x01
    4f88:	28 2f       	mov	r18, r24
    4f8a:	30 e0       	ldi	r19, 0x00	; 0
    4f8c:	ce 01       	movw	r24, r28
    4f8e:	03 96       	adiw	r24, 0x03	; 3
    4f90:	b9 01       	movw	r22, r18
    4f92:	0e 94 ac 25 	call	0x4b58	; 0x4b58 <nmi_spi_read>
    4f96:	88 23       	and	r24, r24
    4f98:	11 f0       	breq	.+4      	; 0x4f9e <spi_data_rsp+0x3e>
    4f9a:	1a 82       	std	Y+2, r1	; 0x02
    4f9c:	1c c0       	rjmp	.+56     	; 0x4fd6 <spi_data_rsp+0x76>
    4f9e:	89 81       	ldd	r24, Y+1	; 0x01
    4fa0:	88 2f       	mov	r24, r24
    4fa2:	90 e0       	ldi	r25, 0x00	; 0
    4fa4:	01 97       	sbiw	r24, 0x01	; 1
    4fa6:	9e 01       	movw	r18, r28
    4fa8:	2d 5f       	subi	r18, 0xFD	; 253
    4faa:	3f 4f       	sbci	r19, 0xFF	; 255
    4fac:	82 0f       	add	r24, r18
    4fae:	93 1f       	adc	r25, r19
    4fb0:	fc 01       	movw	r30, r24
    4fb2:	80 81       	ld	r24, Z
    4fb4:	88 23       	and	r24, r24
    4fb6:	69 f4       	brne	.+26     	; 0x4fd2 <spi_data_rsp+0x72>
    4fb8:	89 81       	ldd	r24, Y+1	; 0x01
    4fba:	88 2f       	mov	r24, r24
    4fbc:	90 e0       	ldi	r25, 0x00	; 0
    4fbe:	02 97       	sbiw	r24, 0x02	; 2
    4fc0:	9e 01       	movw	r18, r28
    4fc2:	2d 5f       	subi	r18, 0xFD	; 253
    4fc4:	3f 4f       	sbci	r19, 0xFF	; 255
    4fc6:	82 0f       	add	r24, r18
    4fc8:	93 1f       	adc	r25, r19
    4fca:	fc 01       	movw	r30, r24
    4fcc:	80 81       	ld	r24, Z
    4fce:	83 3c       	cpi	r24, 0xC3	; 195
    4fd0:	11 f0       	breq	.+4      	; 0x4fd6 <spi_data_rsp+0x76>
    4fd2:	1a 82       	std	Y+2, r1	; 0x02
    4fd4:	00 00       	nop
    4fd6:	8a 81       	ldd	r24, Y+2	; 0x02
    4fd8:	26 96       	adiw	r28, 0x06	; 6
    4fda:	cd bf       	out	0x3d, r28	; 61
    4fdc:	de bf       	out	0x3e, r29	; 62
    4fde:	df 91       	pop	r29
    4fe0:	cf 91       	pop	r28
    4fe2:	08 95       	ret

00004fe4 <spi_cmd_rsp>:
    4fe4:	cf 93       	push	r28
    4fe6:	df 93       	push	r29
    4fe8:	00 d0       	rcall	.+0      	; 0x4fea <spi_cmd_rsp+0x6>
    4fea:	00 d0       	rcall	.+0      	; 0x4fec <spi_cmd_rsp+0x8>
    4fec:	cd b7       	in	r28, 0x3d	; 61
    4fee:	de b7       	in	r29, 0x3e	; 62
    4ff0:	8c 83       	std	Y+4, r24	; 0x04
    4ff2:	81 e0       	ldi	r24, 0x01	; 1
    4ff4:	89 83       	std	Y+1, r24	; 0x01
    4ff6:	8c 81       	ldd	r24, Y+4	; 0x04
    4ff8:	8f 3c       	cpi	r24, 0xCF	; 207
    4ffa:	31 f0       	breq	.+12     	; 0x5008 <spi_cmd_rsp+0x24>
    4ffc:	8c 81       	ldd	r24, Y+4	; 0x04
    4ffe:	85 3c       	cpi	r24, 0xC5	; 197
    5000:	19 f0       	breq	.+6      	; 0x5008 <spi_cmd_rsp+0x24>
    5002:	8c 81       	ldd	r24, Y+4	; 0x04
    5004:	86 3c       	cpi	r24, 0xC6	; 198
    5006:	51 f4       	brne	.+20     	; 0x501c <spi_cmd_rsp+0x38>
    5008:	ce 01       	movw	r24, r28
    500a:	03 96       	adiw	r24, 0x03	; 3
    500c:	61 e0       	ldi	r22, 0x01	; 1
    500e:	70 e0       	ldi	r23, 0x00	; 0
    5010:	0e 94 ac 25 	call	0x4b58	; 0x4b58 <nmi_spi_read>
    5014:	88 23       	and	r24, r24
    5016:	11 f0       	breq	.+4      	; 0x501c <spi_cmd_rsp+0x38>
    5018:	19 82       	std	Y+1, r1	; 0x01
    501a:	2b c0       	rjmp	.+86     	; 0x5072 <spi_cmd_rsp+0x8e>
    501c:	8a e0       	ldi	r24, 0x0A	; 10
    501e:	8a 83       	std	Y+2, r24	; 0x02
    5020:	ce 01       	movw	r24, r28
    5022:	03 96       	adiw	r24, 0x03	; 3
    5024:	61 e0       	ldi	r22, 0x01	; 1
    5026:	70 e0       	ldi	r23, 0x00	; 0
    5028:	0e 94 ac 25 	call	0x4b58	; 0x4b58 <nmi_spi_read>
    502c:	88 23       	and	r24, r24
    502e:	11 f0       	breq	.+4      	; 0x5034 <spi_cmd_rsp+0x50>
    5030:	19 82       	std	Y+1, r1	; 0x01
    5032:	1f c0       	rjmp	.+62     	; 0x5072 <spi_cmd_rsp+0x8e>
    5034:	9b 81       	ldd	r25, Y+3	; 0x03
    5036:	8c 81       	ldd	r24, Y+4	; 0x04
    5038:	98 17       	cp	r25, r24
    503a:	31 f0       	breq	.+12     	; 0x5048 <spi_cmd_rsp+0x64>
    503c:	8a 81       	ldd	r24, Y+2	; 0x02
    503e:	98 2f       	mov	r25, r24
    5040:	91 50       	subi	r25, 0x01	; 1
    5042:	9a 83       	std	Y+2, r25	; 0x02
    5044:	18 16       	cp	r1, r24
    5046:	64 f3       	brlt	.-40     	; 0x5020 <spi_cmd_rsp+0x3c>
    5048:	8a e0       	ldi	r24, 0x0A	; 10
    504a:	8a 83       	std	Y+2, r24	; 0x02
    504c:	ce 01       	movw	r24, r28
    504e:	03 96       	adiw	r24, 0x03	; 3
    5050:	61 e0       	ldi	r22, 0x01	; 1
    5052:	70 e0       	ldi	r23, 0x00	; 0
    5054:	0e 94 ac 25 	call	0x4b58	; 0x4b58 <nmi_spi_read>
    5058:	88 23       	and	r24, r24
    505a:	11 f0       	breq	.+4      	; 0x5060 <spi_cmd_rsp+0x7c>
    505c:	19 82       	std	Y+1, r1	; 0x01
    505e:	09 c0       	rjmp	.+18     	; 0x5072 <spi_cmd_rsp+0x8e>
    5060:	8b 81       	ldd	r24, Y+3	; 0x03
    5062:	88 23       	and	r24, r24
    5064:	31 f0       	breq	.+12     	; 0x5072 <spi_cmd_rsp+0x8e>
    5066:	8a 81       	ldd	r24, Y+2	; 0x02
    5068:	98 2f       	mov	r25, r24
    506a:	91 50       	subi	r25, 0x01	; 1
    506c:	9a 83       	std	Y+2, r25	; 0x02
    506e:	18 16       	cp	r1, r24
    5070:	6c f3       	brlt	.-38     	; 0x504c <spi_cmd_rsp+0x68>
    5072:	89 81       	ldd	r24, Y+1	; 0x01
    5074:	24 96       	adiw	r28, 0x04	; 4
    5076:	cd bf       	out	0x3d, r28	; 61
    5078:	de bf       	out	0x3e, r29	; 62
    507a:	df 91       	pop	r29
    507c:	cf 91       	pop	r28
    507e:	08 95       	ret

00005080 <spi_data_read>:
    5080:	cf 93       	push	r28
    5082:	df 93       	push	r29
    5084:	cd b7       	in	r28, 0x3d	; 61
    5086:	de b7       	in	r29, 0x3e	; 62
    5088:	2f 97       	sbiw	r28, 0x0f	; 15
    508a:	cd bf       	out	0x3d, r28	; 61
    508c:	de bf       	out	0x3e, r29	; 62
    508e:	8b 87       	std	Y+11, r24	; 0x0b
    5090:	9c 87       	std	Y+12, r25	; 0x0c
    5092:	6d 87       	std	Y+13, r22	; 0x0d
    5094:	7e 87       	std	Y+14, r23	; 0x0e
    5096:	4f 87       	std	Y+15, r20	; 0x0f
    5098:	81 e0       	ldi	r24, 0x01	; 1
    509a:	8f 83       	std	Y+7, r24	; 0x07
    509c:	1b 82       	std	Y+3, r1	; 0x03
    509e:	1c 82       	std	Y+4, r1	; 0x04
    50a0:	8d 85       	ldd	r24, Y+13	; 0x0d
    50a2:	9e 85       	ldd	r25, Y+14	; 0x0e
    50a4:	81 30       	cpi	r24, 0x01	; 1
    50a6:	90 42       	sbci	r25, 0x20	; 32
    50a8:	28 f4       	brcc	.+10     	; 0x50b4 <spi_data_read+0x34>
    50aa:	8d 85       	ldd	r24, Y+13	; 0x0d
    50ac:	9e 85       	ldd	r25, Y+14	; 0x0e
    50ae:	8d 83       	std	Y+5, r24	; 0x05
    50b0:	9e 83       	std	Y+6, r25	; 0x06
    50b2:	04 c0       	rjmp	.+8      	; 0x50bc <spi_data_read+0x3c>
    50b4:	80 e0       	ldi	r24, 0x00	; 0
    50b6:	90 e2       	ldi	r25, 0x20	; 32
    50b8:	8d 83       	std	Y+5, r24	; 0x05
    50ba:	9e 83       	std	Y+6, r25	; 0x06
    50bc:	8a e0       	ldi	r24, 0x0A	; 10
    50be:	90 e0       	ldi	r25, 0x00	; 0
    50c0:	89 83       	std	Y+1, r24	; 0x01
    50c2:	9a 83       	std	Y+2, r25	; 0x02
    50c4:	ce 01       	movw	r24, r28
    50c6:	0a 96       	adiw	r24, 0x0a	; 10
    50c8:	61 e0       	ldi	r22, 0x01	; 1
    50ca:	70 e0       	ldi	r23, 0x00	; 0
    50cc:	0e 94 ac 25 	call	0x4b58	; 0x4b58 <nmi_spi_read>
    50d0:	88 23       	and	r24, r24
    50d2:	11 f0       	breq	.+4      	; 0x50d8 <spi_data_read+0x58>
    50d4:	1f 82       	std	Y+7, r1	; 0x07
    50d6:	14 c0       	rjmp	.+40     	; 0x5100 <spi_data_read+0x80>
    50d8:	8a 85       	ldd	r24, Y+10	; 0x0a
    50da:	82 95       	swap	r24
    50dc:	8f 70       	andi	r24, 0x0F	; 15
    50de:	88 2f       	mov	r24, r24
    50e0:	90 e0       	ldi	r25, 0x00	; 0
    50e2:	8f 70       	andi	r24, 0x0F	; 15
    50e4:	99 27       	eor	r25, r25
    50e6:	0f 97       	sbiw	r24, 0x0f	; 15
    50e8:	51 f0       	breq	.+20     	; 0x50fe <spi_data_read+0x7e>
    50ea:	89 81       	ldd	r24, Y+1	; 0x01
    50ec:	9a 81       	ldd	r25, Y+2	; 0x02
    50ee:	9c 01       	movw	r18, r24
    50f0:	21 50       	subi	r18, 0x01	; 1
    50f2:	31 09       	sbc	r19, r1
    50f4:	29 83       	std	Y+1, r18	; 0x01
    50f6:	3a 83       	std	Y+2, r19	; 0x02
    50f8:	89 2b       	or	r24, r25
    50fa:	21 f7       	brne	.-56     	; 0x50c4 <spi_data_read+0x44>
    50fc:	01 c0       	rjmp	.+2      	; 0x5100 <spi_data_read+0x80>
    50fe:	00 00       	nop
    5100:	8f 81       	ldd	r24, Y+7	; 0x07
    5102:	88 23       	and	r24, r24
    5104:	09 f4       	brne	.+2      	; 0x5108 <spi_data_read+0x88>
    5106:	3f c0       	rjmp	.+126    	; 0x5186 <spi_data_read+0x106>
    5108:	89 81       	ldd	r24, Y+1	; 0x01
    510a:	9a 81       	ldd	r25, Y+2	; 0x02
    510c:	18 16       	cp	r1, r24
    510e:	19 06       	cpc	r1, r25
    5110:	14 f0       	brlt	.+4      	; 0x5116 <spi_data_read+0x96>
    5112:	1f 82       	std	Y+7, r1	; 0x07
    5114:	39 c0       	rjmp	.+114    	; 0x5188 <spi_data_read+0x108>
    5116:	4d 81       	ldd	r20, Y+5	; 0x05
    5118:	5e 81       	ldd	r21, Y+6	; 0x06
    511a:	8b 81       	ldd	r24, Y+3	; 0x03
    511c:	9c 81       	ldd	r25, Y+4	; 0x04
    511e:	2b 85       	ldd	r18, Y+11	; 0x0b
    5120:	3c 85       	ldd	r19, Y+12	; 0x0c
    5122:	82 0f       	add	r24, r18
    5124:	93 1f       	adc	r25, r19
    5126:	ba 01       	movw	r22, r20
    5128:	0e 94 ac 25 	call	0x4b58	; 0x4b58 <nmi_spi_read>
    512c:	88 23       	and	r24, r24
    512e:	11 f0       	breq	.+4      	; 0x5134 <spi_data_read+0xb4>
    5130:	1f 82       	std	Y+7, r1	; 0x07
    5132:	2a c0       	rjmp	.+84     	; 0x5188 <spi_data_read+0x108>
    5134:	8f 85       	ldd	r24, Y+15	; 0x0f
    5136:	88 23       	and	r24, r24
    5138:	71 f4       	brne	.+28     	; 0x5156 <spi_data_read+0xd6>
    513a:	80 91 11 2e 	lds	r24, 0x2E11	; 0x802e11 <gu8Crc_off>
    513e:	88 23       	and	r24, r24
    5140:	51 f4       	brne	.+20     	; 0x5156 <spi_data_read+0xd6>
    5142:	ce 01       	movw	r24, r28
    5144:	08 96       	adiw	r24, 0x08	; 8
    5146:	62 e0       	ldi	r22, 0x02	; 2
    5148:	70 e0       	ldi	r23, 0x00	; 0
    514a:	0e 94 ac 25 	call	0x4b58	; 0x4b58 <nmi_spi_read>
    514e:	88 23       	and	r24, r24
    5150:	11 f0       	breq	.+4      	; 0x5156 <spi_data_read+0xd6>
    5152:	1f 82       	std	Y+7, r1	; 0x07
    5154:	19 c0       	rjmp	.+50     	; 0x5188 <spi_data_read+0x108>
    5156:	2b 81       	ldd	r18, Y+3	; 0x03
    5158:	3c 81       	ldd	r19, Y+4	; 0x04
    515a:	8d 81       	ldd	r24, Y+5	; 0x05
    515c:	9e 81       	ldd	r25, Y+6	; 0x06
    515e:	82 0f       	add	r24, r18
    5160:	93 1f       	adc	r25, r19
    5162:	8b 83       	std	Y+3, r24	; 0x03
    5164:	9c 83       	std	Y+4, r25	; 0x04
    5166:	8d 81       	ldd	r24, Y+5	; 0x05
    5168:	9e 81       	ldd	r25, Y+6	; 0x06
    516a:	2d 85       	ldd	r18, Y+13	; 0x0d
    516c:	3e 85       	ldd	r19, Y+14	; 0x0e
    516e:	a9 01       	movw	r20, r18
    5170:	48 1b       	sub	r20, r24
    5172:	59 0b       	sbc	r21, r25
    5174:	ca 01       	movw	r24, r20
    5176:	8d 87       	std	Y+13, r24	; 0x0d
    5178:	9e 87       	std	Y+14, r25	; 0x0e
    517a:	8d 85       	ldd	r24, Y+13	; 0x0d
    517c:	9e 85       	ldd	r25, Y+14	; 0x0e
    517e:	89 2b       	or	r24, r25
    5180:	09 f0       	breq	.+2      	; 0x5184 <spi_data_read+0x104>
    5182:	8e cf       	rjmp	.-228    	; 0x50a0 <spi_data_read+0x20>
    5184:	01 c0       	rjmp	.+2      	; 0x5188 <spi_data_read+0x108>
    5186:	00 00       	nop
    5188:	8f 81       	ldd	r24, Y+7	; 0x07
    518a:	2f 96       	adiw	r28, 0x0f	; 15
    518c:	cd bf       	out	0x3d, r28	; 61
    518e:	de bf       	out	0x3e, r29	; 62
    5190:	df 91       	pop	r29
    5192:	cf 91       	pop	r28
    5194:	08 95       	ret

00005196 <spi_data_write>:
    5196:	cf 93       	push	r28
    5198:	df 93       	push	r29
    519a:	cd b7       	in	r28, 0x3d	; 61
    519c:	de b7       	in	r29, 0x3e	; 62
    519e:	2d 97       	sbiw	r28, 0x0d	; 13
    51a0:	cd bf       	out	0x3d, r28	; 61
    51a2:	de bf       	out	0x3e, r29	; 62
    51a4:	8a 87       	std	Y+10, r24	; 0x0a
    51a6:	9b 87       	std	Y+11, r25	; 0x0b
    51a8:	6c 87       	std	Y+12, r22	; 0x0c
    51aa:	7d 87       	std	Y+13, r23	; 0x0d
    51ac:	81 e0       	ldi	r24, 0x01	; 1
    51ae:	8d 83       	std	Y+5, r24	; 0x05
    51b0:	18 86       	std	Y+8, r1	; 0x08
    51b2:	19 86       	std	Y+9, r1	; 0x09
    51b4:	19 82       	std	Y+1, r1	; 0x01
    51b6:	1a 82       	std	Y+2, r1	; 0x02
    51b8:	8c 85       	ldd	r24, Y+12	; 0x0c
    51ba:	9d 85       	ldd	r25, Y+13	; 0x0d
    51bc:	81 30       	cpi	r24, 0x01	; 1
    51be:	90 42       	sbci	r25, 0x20	; 32
    51c0:	28 f4       	brcc	.+10     	; 0x51cc <spi_data_write+0x36>
    51c2:	8c 85       	ldd	r24, Y+12	; 0x0c
    51c4:	9d 85       	ldd	r25, Y+13	; 0x0d
    51c6:	8b 83       	std	Y+3, r24	; 0x03
    51c8:	9c 83       	std	Y+4, r25	; 0x04
    51ca:	04 c0       	rjmp	.+8      	; 0x51d4 <spi_data_write+0x3e>
    51cc:	80 e0       	ldi	r24, 0x00	; 0
    51ce:	90 e2       	ldi	r25, 0x20	; 32
    51d0:	8b 83       	std	Y+3, r24	; 0x03
    51d2:	9c 83       	std	Y+4, r25	; 0x04
    51d4:	80 ef       	ldi	r24, 0xF0	; 240
    51d6:	8f 83       	std	Y+7, r24	; 0x07
    51d8:	89 81       	ldd	r24, Y+1	; 0x01
    51da:	9a 81       	ldd	r25, Y+2	; 0x02
    51dc:	89 2b       	or	r24, r25
    51de:	59 f4       	brne	.+22     	; 0x51f6 <spi_data_write+0x60>
    51e0:	8c 85       	ldd	r24, Y+12	; 0x0c
    51e2:	9d 85       	ldd	r25, Y+13	; 0x0d
    51e4:	81 30       	cpi	r24, 0x01	; 1
    51e6:	90 42       	sbci	r25, 0x20	; 32
    51e8:	18 f4       	brcc	.+6      	; 0x51f0 <spi_data_write+0x5a>
    51ea:	83 e0       	ldi	r24, 0x03	; 3
    51ec:	8e 83       	std	Y+6, r24	; 0x06
    51ee:	0d c0       	rjmp	.+26     	; 0x520a <spi_data_write+0x74>
    51f0:	81 e0       	ldi	r24, 0x01	; 1
    51f2:	8e 83       	std	Y+6, r24	; 0x06
    51f4:	0a c0       	rjmp	.+20     	; 0x520a <spi_data_write+0x74>
    51f6:	8c 85       	ldd	r24, Y+12	; 0x0c
    51f8:	9d 85       	ldd	r25, Y+13	; 0x0d
    51fa:	81 30       	cpi	r24, 0x01	; 1
    51fc:	90 42       	sbci	r25, 0x20	; 32
    51fe:	18 f4       	brcc	.+6      	; 0x5206 <spi_data_write+0x70>
    5200:	83 e0       	ldi	r24, 0x03	; 3
    5202:	8e 83       	std	Y+6, r24	; 0x06
    5204:	02 c0       	rjmp	.+4      	; 0x520a <spi_data_write+0x74>
    5206:	82 e0       	ldi	r24, 0x02	; 2
    5208:	8e 83       	std	Y+6, r24	; 0x06
    520a:	9f 81       	ldd	r25, Y+7	; 0x07
    520c:	8e 81       	ldd	r24, Y+6	; 0x06
    520e:	89 2b       	or	r24, r25
    5210:	8f 83       	std	Y+7, r24	; 0x07
    5212:	ce 01       	movw	r24, r28
    5214:	07 96       	adiw	r24, 0x07	; 7
    5216:	61 e0       	ldi	r22, 0x01	; 1
    5218:	70 e0       	ldi	r23, 0x00	; 0
    521a:	0e 94 cd 25 	call	0x4b9a	; 0x4b9a <nmi_spi_write>
    521e:	88 23       	and	r24, r24
    5220:	11 f0       	breq	.+4      	; 0x5226 <spi_data_write+0x90>
    5222:	1d 82       	std	Y+5, r1	; 0x05
    5224:	34 c0       	rjmp	.+104    	; 0x528e <spi_data_write+0xf8>
    5226:	89 81       	ldd	r24, Y+1	; 0x01
    5228:	9a 81       	ldd	r25, Y+2	; 0x02
    522a:	2a 85       	ldd	r18, Y+10	; 0x0a
    522c:	3b 85       	ldd	r19, Y+11	; 0x0b
    522e:	82 0f       	add	r24, r18
    5230:	93 1f       	adc	r25, r19
    5232:	2b 81       	ldd	r18, Y+3	; 0x03
    5234:	3c 81       	ldd	r19, Y+4	; 0x04
    5236:	b9 01       	movw	r22, r18
    5238:	0e 94 cd 25 	call	0x4b9a	; 0x4b9a <nmi_spi_write>
    523c:	88 23       	and	r24, r24
    523e:	11 f0       	breq	.+4      	; 0x5244 <spi_data_write+0xae>
    5240:	1d 82       	std	Y+5, r1	; 0x05
    5242:	25 c0       	rjmp	.+74     	; 0x528e <spi_data_write+0xf8>
    5244:	80 91 11 2e 	lds	r24, 0x2E11	; 0x802e11 <gu8Crc_off>
    5248:	88 23       	and	r24, r24
    524a:	51 f4       	brne	.+20     	; 0x5260 <spi_data_write+0xca>
    524c:	ce 01       	movw	r24, r28
    524e:	08 96       	adiw	r24, 0x08	; 8
    5250:	62 e0       	ldi	r22, 0x02	; 2
    5252:	70 e0       	ldi	r23, 0x00	; 0
    5254:	0e 94 cd 25 	call	0x4b9a	; 0x4b9a <nmi_spi_write>
    5258:	88 23       	and	r24, r24
    525a:	11 f0       	breq	.+4      	; 0x5260 <spi_data_write+0xca>
    525c:	1d 82       	std	Y+5, r1	; 0x05
    525e:	17 c0       	rjmp	.+46     	; 0x528e <spi_data_write+0xf8>
    5260:	29 81       	ldd	r18, Y+1	; 0x01
    5262:	3a 81       	ldd	r19, Y+2	; 0x02
    5264:	8b 81       	ldd	r24, Y+3	; 0x03
    5266:	9c 81       	ldd	r25, Y+4	; 0x04
    5268:	82 0f       	add	r24, r18
    526a:	93 1f       	adc	r25, r19
    526c:	89 83       	std	Y+1, r24	; 0x01
    526e:	9a 83       	std	Y+2, r25	; 0x02
    5270:	2c 85       	ldd	r18, Y+12	; 0x0c
    5272:	3d 85       	ldd	r19, Y+13	; 0x0d
    5274:	8b 81       	ldd	r24, Y+3	; 0x03
    5276:	9c 81       	ldd	r25, Y+4	; 0x04
    5278:	a9 01       	movw	r20, r18
    527a:	48 1b       	sub	r20, r24
    527c:	59 0b       	sbc	r21, r25
    527e:	ca 01       	movw	r24, r20
    5280:	8c 87       	std	Y+12, r24	; 0x0c
    5282:	9d 87       	std	Y+13, r25	; 0x0d
    5284:	8c 85       	ldd	r24, Y+12	; 0x0c
    5286:	9d 85       	ldd	r25, Y+13	; 0x0d
    5288:	89 2b       	or	r24, r25
    528a:	09 f0       	breq	.+2      	; 0x528e <spi_data_write+0xf8>
    528c:	95 cf       	rjmp	.-214    	; 0x51b8 <spi_data_write+0x22>
    528e:	8d 81       	ldd	r24, Y+5	; 0x05
    5290:	2d 96       	adiw	r28, 0x0d	; 13
    5292:	cd bf       	out	0x3d, r28	; 61
    5294:	de bf       	out	0x3e, r29	; 62
    5296:	df 91       	pop	r29
    5298:	cf 91       	pop	r28
    529a:	08 95       	ret

0000529c <spi_write_reg>:
    529c:	af 92       	push	r10
    529e:	cf 92       	push	r12
    52a0:	df 92       	push	r13
    52a2:	ef 92       	push	r14
    52a4:	ff 92       	push	r15
    52a6:	0f 93       	push	r16
    52a8:	1f 93       	push	r17
    52aa:	cf 93       	push	r28
    52ac:	df 93       	push	r29
    52ae:	cd b7       	in	r28, 0x3d	; 61
    52b0:	de b7       	in	r29, 0x3e	; 62
    52b2:	2c 97       	sbiw	r28, 0x0c	; 12
    52b4:	cd bf       	out	0x3d, r28	; 61
    52b6:	de bf       	out	0x3e, r29	; 62
    52b8:	6d 83       	std	Y+5, r22	; 0x05
    52ba:	7e 83       	std	Y+6, r23	; 0x06
    52bc:	8f 83       	std	Y+7, r24	; 0x07
    52be:	98 87       	std	Y+8, r25	; 0x08
    52c0:	29 87       	std	Y+9, r18	; 0x09
    52c2:	3a 87       	std	Y+10, r19	; 0x0a
    52c4:	4b 87       	std	Y+11, r20	; 0x0b
    52c6:	5c 87       	std	Y+12, r21	; 0x0c
    52c8:	8a e0       	ldi	r24, 0x0A	; 10
    52ca:	89 83       	std	Y+1, r24	; 0x01
    52cc:	81 e0       	ldi	r24, 0x01	; 1
    52ce:	8a 83       	std	Y+2, r24	; 0x02
    52d0:	89 ec       	ldi	r24, 0xC9	; 201
    52d2:	8b 83       	std	Y+3, r24	; 0x03
    52d4:	1c 82       	std	Y+4, r1	; 0x04
    52d6:	8d 81       	ldd	r24, Y+5	; 0x05
    52d8:	9e 81       	ldd	r25, Y+6	; 0x06
    52da:	af 81       	ldd	r26, Y+7	; 0x07
    52dc:	b8 85       	ldd	r27, Y+8	; 0x08
    52de:	c1 97       	sbiw	r24, 0x31	; 49
    52e0:	a1 05       	cpc	r26, r1
    52e2:	b1 05       	cpc	r27, r1
    52e4:	28 f4       	brcc	.+10     	; 0x52f0 <spi_write_reg+0x54>
    52e6:	83 ec       	ldi	r24, 0xC3	; 195
    52e8:	8b 83       	std	Y+3, r24	; 0x03
    52ea:	81 e0       	ldi	r24, 0x01	; 1
    52ec:	8c 83       	std	Y+4, r24	; 0x04
    52ee:	03 c0       	rjmp	.+6      	; 0x52f6 <spi_write_reg+0x5a>
    52f0:	89 ec       	ldi	r24, 0xC9	; 201
    52f2:	8b 83       	std	Y+3, r24	; 0x03
    52f4:	1c 82       	std	Y+4, r1	; 0x04
    52f6:	29 85       	ldd	r18, Y+9	; 0x09
    52f8:	3a 85       	ldd	r19, Y+10	; 0x0a
    52fa:	4b 85       	ldd	r20, Y+11	; 0x0b
    52fc:	5c 85       	ldd	r21, Y+12	; 0x0c
    52fe:	8d 81       	ldd	r24, Y+5	; 0x05
    5300:	9e 81       	ldd	r25, Y+6	; 0x06
    5302:	af 81       	ldd	r26, Y+7	; 0x07
    5304:	b8 85       	ldd	r27, Y+8	; 0x08
    5306:	ac 80       	ldd	r10, Y+4	; 0x04
    5308:	c1 2c       	mov	r12, r1
    530a:	d1 2c       	mov	r13, r1
    530c:	76 01       	movw	r14, r12
    530e:	68 94       	set
    5310:	c2 f8       	bld	r12, 2
    5312:	89 01       	movw	r16, r18
    5314:	9a 01       	movw	r18, r20
    5316:	ac 01       	movw	r20, r24
    5318:	bd 01       	movw	r22, r26
    531a:	8b 81       	ldd	r24, Y+3	; 0x03
    531c:	0e 94 48 26 	call	0x4c90	; 0x4c90 <spi_cmd>
    5320:	8a 83       	std	Y+2, r24	; 0x02
    5322:	8a 81       	ldd	r24, Y+2	; 0x02
    5324:	81 30       	cpi	r24, 0x01	; 1
    5326:	29 f4       	brne	.+10     	; 0x5332 <spi_write_reg+0x96>
    5328:	8b 81       	ldd	r24, Y+3	; 0x03
    532a:	0e 94 f2 27 	call	0x4fe4	; 0x4fe4 <spi_cmd_rsp>
    532e:	8a 83       	std	Y+2, r24	; 0x02
    5330:	01 c0       	rjmp	.+2      	; 0x5334 <spi_write_reg+0x98>
    5332:	00 00       	nop
    5334:	8a 81       	ldd	r24, Y+2	; 0x02
    5336:	81 30       	cpi	r24, 0x01	; 1
    5338:	19 f1       	breq	.+70     	; 0x5380 <spi_write_reg+0xe4>
    533a:	61 e0       	ldi	r22, 0x01	; 1
    533c:	70 e0       	ldi	r23, 0x00	; 0
    533e:	80 e0       	ldi	r24, 0x00	; 0
    5340:	90 e0       	ldi	r25, 0x00	; 0
    5342:	0e 94 5c 0f 	call	0x1eb8	; 0x1eb8 <nm_bsp_sleep>
    5346:	a1 2c       	mov	r10, r1
    5348:	c1 2c       	mov	r12, r1
    534a:	d1 2c       	mov	r13, r1
    534c:	76 01       	movw	r14, r12
    534e:	00 e0       	ldi	r16, 0x00	; 0
    5350:	10 e0       	ldi	r17, 0x00	; 0
    5352:	98 01       	movw	r18, r16
    5354:	40 e0       	ldi	r20, 0x00	; 0
    5356:	50 e0       	ldi	r21, 0x00	; 0
    5358:	ba 01       	movw	r22, r20
    535a:	8f ec       	ldi	r24, 0xCF	; 207
    535c:	0e 94 48 26 	call	0x4c90	; 0x4c90 <spi_cmd>
    5360:	8f ec       	ldi	r24, 0xCF	; 207
    5362:	0e 94 f2 27 	call	0x4fe4	; 0x4fe4 <spi_cmd_rsp>
    5366:	61 e0       	ldi	r22, 0x01	; 1
    5368:	70 e0       	ldi	r23, 0x00	; 0
    536a:	80 e0       	ldi	r24, 0x00	; 0
    536c:	90 e0       	ldi	r25, 0x00	; 0
    536e:	0e 94 5c 0f 	call	0x1eb8	; 0x1eb8 <nm_bsp_sleep>
    5372:	89 81       	ldd	r24, Y+1	; 0x01
    5374:	81 50       	subi	r24, 0x01	; 1
    5376:	89 83       	std	Y+1, r24	; 0x01
    5378:	89 81       	ldd	r24, Y+1	; 0x01
    537a:	88 23       	and	r24, r24
    537c:	09 f0       	breq	.+2      	; 0x5380 <spi_write_reg+0xe4>
    537e:	ab cf       	rjmp	.-170    	; 0x52d6 <spi_write_reg+0x3a>
    5380:	8a 81       	ldd	r24, Y+2	; 0x02
    5382:	2c 96       	adiw	r28, 0x0c	; 12
    5384:	cd bf       	out	0x3d, r28	; 61
    5386:	de bf       	out	0x3e, r29	; 62
    5388:	df 91       	pop	r29
    538a:	cf 91       	pop	r28
    538c:	1f 91       	pop	r17
    538e:	0f 91       	pop	r16
    5390:	ff 90       	pop	r15
    5392:	ef 90       	pop	r14
    5394:	df 90       	pop	r13
    5396:	cf 90       	pop	r12
    5398:	af 90       	pop	r10
    539a:	08 95       	ret

0000539c <nm_spi_write>:
    539c:	af 92       	push	r10
    539e:	cf 92       	push	r12
    53a0:	df 92       	push	r13
    53a2:	ef 92       	push	r14
    53a4:	ff 92       	push	r15
    53a6:	0f 93       	push	r16
    53a8:	1f 93       	push	r17
    53aa:	cf 93       	push	r28
    53ac:	df 93       	push	r29
    53ae:	cd b7       	in	r28, 0x3d	; 61
    53b0:	de b7       	in	r29, 0x3e	; 62
    53b2:	2b 97       	sbiw	r28, 0x0b	; 11
    53b4:	cd bf       	out	0x3d, r28	; 61
    53b6:	de bf       	out	0x3e, r29	; 62
    53b8:	6c 83       	std	Y+4, r22	; 0x04
    53ba:	7d 83       	std	Y+5, r23	; 0x05
    53bc:	8e 83       	std	Y+6, r24	; 0x06
    53be:	9f 83       	std	Y+7, r25	; 0x07
    53c0:	48 87       	std	Y+8, r20	; 0x08
    53c2:	59 87       	std	Y+9, r21	; 0x09
    53c4:	2a 87       	std	Y+10, r18	; 0x0a
    53c6:	3b 87       	std	Y+11, r19	; 0x0b
    53c8:	8a e0       	ldi	r24, 0x0A	; 10
    53ca:	8a 83       	std	Y+2, r24	; 0x02
    53cc:	87 ec       	ldi	r24, 0xC7	; 199
    53ce:	8b 83       	std	Y+3, r24	; 0x03
    53d0:	8a 85       	ldd	r24, Y+10	; 0x0a
    53d2:	9b 85       	ldd	r25, Y+11	; 0x0b
    53d4:	01 97       	sbiw	r24, 0x01	; 1
    53d6:	21 f4       	brne	.+8      	; 0x53e0 <nm_spi_write+0x44>
    53d8:	82 e0       	ldi	r24, 0x02	; 2
    53da:	90 e0       	ldi	r25, 0x00	; 0
    53dc:	8a 87       	std	Y+10, r24	; 0x0a
    53de:	9b 87       	std	Y+11, r25	; 0x0b
    53e0:	8a 85       	ldd	r24, Y+10	; 0x0a
    53e2:	9b 85       	ldd	r25, Y+11	; 0x0b
    53e4:	9c 01       	movw	r18, r24
    53e6:	40 e0       	ldi	r20, 0x00	; 0
    53e8:	50 e0       	ldi	r21, 0x00	; 0
    53ea:	8c 81       	ldd	r24, Y+4	; 0x04
    53ec:	9d 81       	ldd	r25, Y+5	; 0x05
    53ee:	ae 81       	ldd	r26, Y+6	; 0x06
    53f0:	bf 81       	ldd	r27, Y+7	; 0x07
    53f2:	a1 2c       	mov	r10, r1
    53f4:	69 01       	movw	r12, r18
    53f6:	7a 01       	movw	r14, r20
    53f8:	00 e0       	ldi	r16, 0x00	; 0
    53fa:	10 e0       	ldi	r17, 0x00	; 0
    53fc:	98 01       	movw	r18, r16
    53fe:	ac 01       	movw	r20, r24
    5400:	bd 01       	movw	r22, r26
    5402:	8b 81       	ldd	r24, Y+3	; 0x03
    5404:	0e 94 48 26 	call	0x4c90	; 0x4c90 <spi_cmd>
    5408:	89 83       	std	Y+1, r24	; 0x01
    540a:	89 81       	ldd	r24, Y+1	; 0x01
    540c:	81 30       	cpi	r24, 0x01	; 1
    540e:	b9 f4       	brne	.+46     	; 0x543e <nm_spi_write+0xa2>
    5410:	8b 81       	ldd	r24, Y+3	; 0x03
    5412:	0e 94 f2 27 	call	0x4fe4	; 0x4fe4 <spi_cmd_rsp>
    5416:	89 83       	std	Y+1, r24	; 0x01
    5418:	89 81       	ldd	r24, Y+1	; 0x01
    541a:	81 30       	cpi	r24, 0x01	; 1
    541c:	91 f4       	brne	.+36     	; 0x5442 <nm_spi_write+0xa6>
    541e:	2a 85       	ldd	r18, Y+10	; 0x0a
    5420:	3b 85       	ldd	r19, Y+11	; 0x0b
    5422:	88 85       	ldd	r24, Y+8	; 0x08
    5424:	99 85       	ldd	r25, Y+9	; 0x09
    5426:	b9 01       	movw	r22, r18
    5428:	0e 94 cb 28 	call	0x5196	; 0x5196 <spi_data_write>
    542c:	89 83       	std	Y+1, r24	; 0x01
    542e:	89 81       	ldd	r24, Y+1	; 0x01
    5430:	81 30       	cpi	r24, 0x01	; 1
    5432:	49 f4       	brne	.+18     	; 0x5446 <nm_spi_write+0xaa>
    5434:	8b 81       	ldd	r24, Y+3	; 0x03
    5436:	0e 94 b0 27 	call	0x4f60	; 0x4f60 <spi_data_rsp>
    543a:	89 83       	std	Y+1, r24	; 0x01
    543c:	05 c0       	rjmp	.+10     	; 0x5448 <nm_spi_write+0xac>
    543e:	00 00       	nop
    5440:	03 c0       	rjmp	.+6      	; 0x5448 <nm_spi_write+0xac>
    5442:	00 00       	nop
    5444:	01 c0       	rjmp	.+2      	; 0x5448 <nm_spi_write+0xac>
    5446:	00 00       	nop
    5448:	89 81       	ldd	r24, Y+1	; 0x01
    544a:	81 30       	cpi	r24, 0x01	; 1
    544c:	19 f1       	breq	.+70     	; 0x5494 <nm_spi_write+0xf8>
    544e:	61 e0       	ldi	r22, 0x01	; 1
    5450:	70 e0       	ldi	r23, 0x00	; 0
    5452:	80 e0       	ldi	r24, 0x00	; 0
    5454:	90 e0       	ldi	r25, 0x00	; 0
    5456:	0e 94 5c 0f 	call	0x1eb8	; 0x1eb8 <nm_bsp_sleep>
    545a:	a1 2c       	mov	r10, r1
    545c:	c1 2c       	mov	r12, r1
    545e:	d1 2c       	mov	r13, r1
    5460:	76 01       	movw	r14, r12
    5462:	00 e0       	ldi	r16, 0x00	; 0
    5464:	10 e0       	ldi	r17, 0x00	; 0
    5466:	98 01       	movw	r18, r16
    5468:	40 e0       	ldi	r20, 0x00	; 0
    546a:	50 e0       	ldi	r21, 0x00	; 0
    546c:	ba 01       	movw	r22, r20
    546e:	8f ec       	ldi	r24, 0xCF	; 207
    5470:	0e 94 48 26 	call	0x4c90	; 0x4c90 <spi_cmd>
    5474:	8f ec       	ldi	r24, 0xCF	; 207
    5476:	0e 94 f2 27 	call	0x4fe4	; 0x4fe4 <spi_cmd_rsp>
    547a:	61 e0       	ldi	r22, 0x01	; 1
    547c:	70 e0       	ldi	r23, 0x00	; 0
    547e:	80 e0       	ldi	r24, 0x00	; 0
    5480:	90 e0       	ldi	r25, 0x00	; 0
    5482:	0e 94 5c 0f 	call	0x1eb8	; 0x1eb8 <nm_bsp_sleep>
    5486:	8a 81       	ldd	r24, Y+2	; 0x02
    5488:	81 50       	subi	r24, 0x01	; 1
    548a:	8a 83       	std	Y+2, r24	; 0x02
    548c:	8a 81       	ldd	r24, Y+2	; 0x02
    548e:	88 23       	and	r24, r24
    5490:	09 f0       	breq	.+2      	; 0x5494 <nm_spi_write+0xf8>
    5492:	9e cf       	rjmp	.-196    	; 0x53d0 <nm_spi_write+0x34>
    5494:	89 81       	ldd	r24, Y+1	; 0x01
    5496:	2b 96       	adiw	r28, 0x0b	; 11
    5498:	cd bf       	out	0x3d, r28	; 61
    549a:	de bf       	out	0x3e, r29	; 62
    549c:	df 91       	pop	r29
    549e:	cf 91       	pop	r28
    54a0:	1f 91       	pop	r17
    54a2:	0f 91       	pop	r16
    54a4:	ff 90       	pop	r15
    54a6:	ef 90       	pop	r14
    54a8:	df 90       	pop	r13
    54aa:	cf 90       	pop	r12
    54ac:	af 90       	pop	r10
    54ae:	08 95       	ret

000054b0 <spi_read_reg>:
    54b0:	af 92       	push	r10
    54b2:	cf 92       	push	r12
    54b4:	df 92       	push	r13
    54b6:	ef 92       	push	r14
    54b8:	ff 92       	push	r15
    54ba:	0f 93       	push	r16
    54bc:	1f 93       	push	r17
    54be:	cf 93       	push	r28
    54c0:	df 93       	push	r29
    54c2:	cd b7       	in	r28, 0x3d	; 61
    54c4:	de b7       	in	r29, 0x3e	; 62
    54c6:	2e 97       	sbiw	r28, 0x0e	; 14
    54c8:	cd bf       	out	0x3d, r28	; 61
    54ca:	de bf       	out	0x3e, r29	; 62
    54cc:	69 87       	std	Y+9, r22	; 0x09
    54ce:	7a 87       	std	Y+10, r23	; 0x0a
    54d0:	8b 87       	std	Y+11, r24	; 0x0b
    54d2:	9c 87       	std	Y+12, r25	; 0x0c
    54d4:	4d 87       	std	Y+13, r20	; 0x0d
    54d6:	5e 87       	std	Y+14, r21	; 0x0e
    54d8:	8a e0       	ldi	r24, 0x0A	; 10
    54da:	89 83       	std	Y+1, r24	; 0x01
    54dc:	81 e0       	ldi	r24, 0x01	; 1
    54de:	8a 83       	std	Y+2, r24	; 0x02
    54e0:	8a ec       	ldi	r24, 0xCA	; 202
    54e2:	8b 83       	std	Y+3, r24	; 0x03
    54e4:	1c 82       	std	Y+4, r1	; 0x04
    54e6:	89 85       	ldd	r24, Y+9	; 0x09
    54e8:	9a 85       	ldd	r25, Y+10	; 0x0a
    54ea:	ab 85       	ldd	r26, Y+11	; 0x0b
    54ec:	bc 85       	ldd	r27, Y+12	; 0x0c
    54ee:	8f 3f       	cpi	r24, 0xFF	; 255
    54f0:	91 05       	cpc	r25, r1
    54f2:	a1 05       	cpc	r26, r1
    54f4:	b1 05       	cpc	r27, r1
    54f6:	09 f0       	breq	.+2      	; 0x54fa <spi_read_reg+0x4a>
    54f8:	28 f4       	brcc	.+10     	; 0x5504 <spi_read_reg+0x54>
    54fa:	84 ec       	ldi	r24, 0xC4	; 196
    54fc:	8b 83       	std	Y+3, r24	; 0x03
    54fe:	81 e0       	ldi	r24, 0x01	; 1
    5500:	8c 83       	std	Y+4, r24	; 0x04
    5502:	03 c0       	rjmp	.+6      	; 0x550a <spi_read_reg+0x5a>
    5504:	8a ec       	ldi	r24, 0xCA	; 202
    5506:	8b 83       	std	Y+3, r24	; 0x03
    5508:	1c 82       	std	Y+4, r1	; 0x04
    550a:	89 85       	ldd	r24, Y+9	; 0x09
    550c:	9a 85       	ldd	r25, Y+10	; 0x0a
    550e:	ab 85       	ldd	r26, Y+11	; 0x0b
    5510:	bc 85       	ldd	r27, Y+12	; 0x0c
    5512:	ac 80       	ldd	r10, Y+4	; 0x04
    5514:	c1 2c       	mov	r12, r1
    5516:	d1 2c       	mov	r13, r1
    5518:	76 01       	movw	r14, r12
    551a:	68 94       	set
    551c:	c2 f8       	bld	r12, 2
    551e:	00 e0       	ldi	r16, 0x00	; 0
    5520:	10 e0       	ldi	r17, 0x00	; 0
    5522:	98 01       	movw	r18, r16
    5524:	ac 01       	movw	r20, r24
    5526:	bd 01       	movw	r22, r26
    5528:	8b 81       	ldd	r24, Y+3	; 0x03
    552a:	0e 94 48 26 	call	0x4c90	; 0x4c90 <spi_cmd>
    552e:	8a 83       	std	Y+2, r24	; 0x02
    5530:	8a 81       	ldd	r24, Y+2	; 0x02
    5532:	81 30       	cpi	r24, 0x01	; 1
    5534:	09 f0       	breq	.+2      	; 0x5538 <spi_read_reg+0x88>
    5536:	46 c0       	rjmp	.+140    	; 0x55c4 <spi_read_reg+0x114>
    5538:	8b 81       	ldd	r24, Y+3	; 0x03
    553a:	0e 94 f2 27 	call	0x4fe4	; 0x4fe4 <spi_cmd_rsp>
    553e:	8a 83       	std	Y+2, r24	; 0x02
    5540:	8a 81       	ldd	r24, Y+2	; 0x02
    5542:	81 30       	cpi	r24, 0x01	; 1
    5544:	09 f0       	breq	.+2      	; 0x5548 <spi_read_reg+0x98>
    5546:	40 c0       	rjmp	.+128    	; 0x55c8 <spi_read_reg+0x118>
    5548:	ce 01       	movw	r24, r28
    554a:	05 96       	adiw	r24, 0x05	; 5
    554c:	4c 81       	ldd	r20, Y+4	; 0x04
    554e:	64 e0       	ldi	r22, 0x04	; 4
    5550:	70 e0       	ldi	r23, 0x00	; 0
    5552:	0e 94 40 28 	call	0x5080	; 0x5080 <spi_data_read>
    5556:	8a 83       	std	Y+2, r24	; 0x02
    5558:	8a 81       	ldd	r24, Y+2	; 0x02
    555a:	81 30       	cpi	r24, 0x01	; 1
    555c:	b9 f5       	brne	.+110    	; 0x55cc <spi_read_reg+0x11c>
    555e:	8d 81       	ldd	r24, Y+5	; 0x05
    5560:	28 2f       	mov	r18, r24
    5562:	30 e0       	ldi	r19, 0x00	; 0
    5564:	40 e0       	ldi	r20, 0x00	; 0
    5566:	50 e0       	ldi	r21, 0x00	; 0
    5568:	8e 81       	ldd	r24, Y+6	; 0x06
    556a:	88 2f       	mov	r24, r24
    556c:	90 e0       	ldi	r25, 0x00	; 0
    556e:	a0 e0       	ldi	r26, 0x00	; 0
    5570:	b0 e0       	ldi	r27, 0x00	; 0
    5572:	ba 2f       	mov	r27, r26
    5574:	a9 2f       	mov	r26, r25
    5576:	98 2f       	mov	r25, r24
    5578:	88 27       	eor	r24, r24
    557a:	28 2b       	or	r18, r24
    557c:	39 2b       	or	r19, r25
    557e:	4a 2b       	or	r20, r26
    5580:	5b 2b       	or	r21, r27
    5582:	8f 81       	ldd	r24, Y+7	; 0x07
    5584:	88 2f       	mov	r24, r24
    5586:	90 e0       	ldi	r25, 0x00	; 0
    5588:	a0 e0       	ldi	r26, 0x00	; 0
    558a:	b0 e0       	ldi	r27, 0x00	; 0
    558c:	dc 01       	movw	r26, r24
    558e:	99 27       	eor	r25, r25
    5590:	88 27       	eor	r24, r24
    5592:	28 2b       	or	r18, r24
    5594:	39 2b       	or	r19, r25
    5596:	4a 2b       	or	r20, r26
    5598:	5b 2b       	or	r21, r27
    559a:	88 85       	ldd	r24, Y+8	; 0x08
    559c:	88 2f       	mov	r24, r24
    559e:	90 e0       	ldi	r25, 0x00	; 0
    55a0:	a0 e0       	ldi	r26, 0x00	; 0
    55a2:	b0 e0       	ldi	r27, 0x00	; 0
    55a4:	b8 2f       	mov	r27, r24
    55a6:	aa 27       	eor	r26, r26
    55a8:	99 27       	eor	r25, r25
    55aa:	88 27       	eor	r24, r24
    55ac:	82 2b       	or	r24, r18
    55ae:	93 2b       	or	r25, r19
    55b0:	a4 2b       	or	r26, r20
    55b2:	b5 2b       	or	r27, r21
    55b4:	2d 85       	ldd	r18, Y+13	; 0x0d
    55b6:	3e 85       	ldd	r19, Y+14	; 0x0e
    55b8:	f9 01       	movw	r30, r18
    55ba:	80 83       	st	Z, r24
    55bc:	91 83       	std	Z+1, r25	; 0x01
    55be:	a2 83       	std	Z+2, r26	; 0x02
    55c0:	b3 83       	std	Z+3, r27	; 0x03
    55c2:	05 c0       	rjmp	.+10     	; 0x55ce <spi_read_reg+0x11e>
    55c4:	00 00       	nop
    55c6:	03 c0       	rjmp	.+6      	; 0x55ce <spi_read_reg+0x11e>
    55c8:	00 00       	nop
    55ca:	01 c0       	rjmp	.+2      	; 0x55ce <spi_read_reg+0x11e>
    55cc:	00 00       	nop
    55ce:	8a 81       	ldd	r24, Y+2	; 0x02
    55d0:	81 30       	cpi	r24, 0x01	; 1
    55d2:	19 f1       	breq	.+70     	; 0x561a <spi_read_reg+0x16a>
    55d4:	61 e0       	ldi	r22, 0x01	; 1
    55d6:	70 e0       	ldi	r23, 0x00	; 0
    55d8:	80 e0       	ldi	r24, 0x00	; 0
    55da:	90 e0       	ldi	r25, 0x00	; 0
    55dc:	0e 94 5c 0f 	call	0x1eb8	; 0x1eb8 <nm_bsp_sleep>
    55e0:	a1 2c       	mov	r10, r1
    55e2:	c1 2c       	mov	r12, r1
    55e4:	d1 2c       	mov	r13, r1
    55e6:	76 01       	movw	r14, r12
    55e8:	00 e0       	ldi	r16, 0x00	; 0
    55ea:	10 e0       	ldi	r17, 0x00	; 0
    55ec:	98 01       	movw	r18, r16
    55ee:	40 e0       	ldi	r20, 0x00	; 0
    55f0:	50 e0       	ldi	r21, 0x00	; 0
    55f2:	ba 01       	movw	r22, r20
    55f4:	8f ec       	ldi	r24, 0xCF	; 207
    55f6:	0e 94 48 26 	call	0x4c90	; 0x4c90 <spi_cmd>
    55fa:	8f ec       	ldi	r24, 0xCF	; 207
    55fc:	0e 94 f2 27 	call	0x4fe4	; 0x4fe4 <spi_cmd_rsp>
    5600:	61 e0       	ldi	r22, 0x01	; 1
    5602:	70 e0       	ldi	r23, 0x00	; 0
    5604:	80 e0       	ldi	r24, 0x00	; 0
    5606:	90 e0       	ldi	r25, 0x00	; 0
    5608:	0e 94 5c 0f 	call	0x1eb8	; 0x1eb8 <nm_bsp_sleep>
    560c:	89 81       	ldd	r24, Y+1	; 0x01
    560e:	81 50       	subi	r24, 0x01	; 1
    5610:	89 83       	std	Y+1, r24	; 0x01
    5612:	89 81       	ldd	r24, Y+1	; 0x01
    5614:	88 23       	and	r24, r24
    5616:	09 f0       	breq	.+2      	; 0x561a <spi_read_reg+0x16a>
    5618:	66 cf       	rjmp	.-308    	; 0x54e6 <spi_read_reg+0x36>
    561a:	8a 81       	ldd	r24, Y+2	; 0x02
    561c:	2e 96       	adiw	r28, 0x0e	; 14
    561e:	cd bf       	out	0x3d, r28	; 61
    5620:	de bf       	out	0x3e, r29	; 62
    5622:	df 91       	pop	r29
    5624:	cf 91       	pop	r28
    5626:	1f 91       	pop	r17
    5628:	0f 91       	pop	r16
    562a:	ff 90       	pop	r15
    562c:	ef 90       	pop	r14
    562e:	df 90       	pop	r13
    5630:	cf 90       	pop	r12
    5632:	af 90       	pop	r10
    5634:	08 95       	ret

00005636 <nm_spi_read>:
    5636:	af 92       	push	r10
    5638:	cf 92       	push	r12
    563a:	df 92       	push	r13
    563c:	ef 92       	push	r14
    563e:	ff 92       	push	r15
    5640:	0f 93       	push	r16
    5642:	1f 93       	push	r17
    5644:	cf 93       	push	r28
    5646:	df 93       	push	r29
    5648:	cd b7       	in	r28, 0x3d	; 61
    564a:	de b7       	in	r29, 0x3e	; 62
    564c:	2e 97       	sbiw	r28, 0x0e	; 14
    564e:	cd bf       	out	0x3d, r28	; 61
    5650:	de bf       	out	0x3e, r29	; 62
    5652:	6f 83       	std	Y+7, r22	; 0x07
    5654:	78 87       	std	Y+8, r23	; 0x08
    5656:	89 87       	std	Y+9, r24	; 0x09
    5658:	9a 87       	std	Y+10, r25	; 0x0a
    565a:	4b 87       	std	Y+11, r20	; 0x0b
    565c:	5c 87       	std	Y+12, r21	; 0x0c
    565e:	2d 87       	std	Y+13, r18	; 0x0d
    5660:	3e 87       	std	Y+14, r19	; 0x0e
    5662:	88 ec       	ldi	r24, 0xC8	; 200
    5664:	8c 83       	std	Y+4, r24	; 0x04
    5666:	8a e0       	ldi	r24, 0x0A	; 10
    5668:	8a 83       	std	Y+2, r24	; 0x02
    566a:	1b 82       	std	Y+3, r1	; 0x03
    566c:	8d 85       	ldd	r24, Y+13	; 0x0d
    566e:	9e 85       	ldd	r25, Y+14	; 0x0e
    5670:	01 97       	sbiw	r24, 0x01	; 1
    5672:	31 f4       	brne	.+12     	; 0x5680 <nm_spi_read+0x4a>
    5674:	82 e0       	ldi	r24, 0x02	; 2
    5676:	90 e0       	ldi	r25, 0x00	; 0
    5678:	8d 87       	std	Y+13, r24	; 0x0d
    567a:	9e 87       	std	Y+14, r25	; 0x0e
    567c:	81 e0       	ldi	r24, 0x01	; 1
    567e:	8b 83       	std	Y+3, r24	; 0x03
    5680:	8d 85       	ldd	r24, Y+13	; 0x0d
    5682:	9e 85       	ldd	r25, Y+14	; 0x0e
    5684:	9c 01       	movw	r18, r24
    5686:	40 e0       	ldi	r20, 0x00	; 0
    5688:	50 e0       	ldi	r21, 0x00	; 0
    568a:	8f 81       	ldd	r24, Y+7	; 0x07
    568c:	98 85       	ldd	r25, Y+8	; 0x08
    568e:	a9 85       	ldd	r26, Y+9	; 0x09
    5690:	ba 85       	ldd	r27, Y+10	; 0x0a
    5692:	a1 2c       	mov	r10, r1
    5694:	69 01       	movw	r12, r18
    5696:	7a 01       	movw	r14, r20
    5698:	00 e0       	ldi	r16, 0x00	; 0
    569a:	10 e0       	ldi	r17, 0x00	; 0
    569c:	98 01       	movw	r18, r16
    569e:	ac 01       	movw	r20, r24
    56a0:	bd 01       	movw	r22, r26
    56a2:	8c 81       	ldd	r24, Y+4	; 0x04
    56a4:	0e 94 48 26 	call	0x4c90	; 0x4c90 <spi_cmd>
    56a8:	89 83       	std	Y+1, r24	; 0x01
    56aa:	89 81       	ldd	r24, Y+1	; 0x01
    56ac:	81 30       	cpi	r24, 0x01	; 1
    56ae:	19 f5       	brne	.+70     	; 0x56f6 <nm_spi_read+0xc0>
    56b0:	8c 81       	ldd	r24, Y+4	; 0x04
    56b2:	0e 94 f2 27 	call	0x4fe4	; 0x4fe4 <spi_cmd_rsp>
    56b6:	89 83       	std	Y+1, r24	; 0x01
    56b8:	89 81       	ldd	r24, Y+1	; 0x01
    56ba:	81 30       	cpi	r24, 0x01	; 1
    56bc:	f1 f4       	brne	.+60     	; 0x56fa <nm_spi_read+0xc4>
    56be:	8b 81       	ldd	r24, Y+3	; 0x03
    56c0:	88 23       	and	r24, r24
    56c2:	79 f0       	breq	.+30     	; 0x56e2 <nm_spi_read+0xac>
    56c4:	2d 85       	ldd	r18, Y+13	; 0x0d
    56c6:	3e 85       	ldd	r19, Y+14	; 0x0e
    56c8:	ce 01       	movw	r24, r28
    56ca:	05 96       	adiw	r24, 0x05	; 5
    56cc:	40 e0       	ldi	r20, 0x00	; 0
    56ce:	b9 01       	movw	r22, r18
    56d0:	0e 94 40 28 	call	0x5080	; 0x5080 <spi_data_read>
    56d4:	89 83       	std	Y+1, r24	; 0x01
    56d6:	2d 81       	ldd	r18, Y+5	; 0x05
    56d8:	8b 85       	ldd	r24, Y+11	; 0x0b
    56da:	9c 85       	ldd	r25, Y+12	; 0x0c
    56dc:	fc 01       	movw	r30, r24
    56de:	20 83       	st	Z, r18
    56e0:	0d c0       	rjmp	.+26     	; 0x56fc <nm_spi_read+0xc6>
    56e2:	2d 85       	ldd	r18, Y+13	; 0x0d
    56e4:	3e 85       	ldd	r19, Y+14	; 0x0e
    56e6:	8b 85       	ldd	r24, Y+11	; 0x0b
    56e8:	9c 85       	ldd	r25, Y+12	; 0x0c
    56ea:	40 e0       	ldi	r20, 0x00	; 0
    56ec:	b9 01       	movw	r22, r18
    56ee:	0e 94 40 28 	call	0x5080	; 0x5080 <spi_data_read>
    56f2:	89 83       	std	Y+1, r24	; 0x01
    56f4:	03 c0       	rjmp	.+6      	; 0x56fc <nm_spi_read+0xc6>
    56f6:	00 00       	nop
    56f8:	01 c0       	rjmp	.+2      	; 0x56fc <nm_spi_read+0xc6>
    56fa:	00 00       	nop
    56fc:	89 81       	ldd	r24, Y+1	; 0x01
    56fe:	81 30       	cpi	r24, 0x01	; 1
    5700:	19 f1       	breq	.+70     	; 0x5748 <nm_spi_read+0x112>
    5702:	61 e0       	ldi	r22, 0x01	; 1
    5704:	70 e0       	ldi	r23, 0x00	; 0
    5706:	80 e0       	ldi	r24, 0x00	; 0
    5708:	90 e0       	ldi	r25, 0x00	; 0
    570a:	0e 94 5c 0f 	call	0x1eb8	; 0x1eb8 <nm_bsp_sleep>
    570e:	a1 2c       	mov	r10, r1
    5710:	c1 2c       	mov	r12, r1
    5712:	d1 2c       	mov	r13, r1
    5714:	76 01       	movw	r14, r12
    5716:	00 e0       	ldi	r16, 0x00	; 0
    5718:	10 e0       	ldi	r17, 0x00	; 0
    571a:	98 01       	movw	r18, r16
    571c:	40 e0       	ldi	r20, 0x00	; 0
    571e:	50 e0       	ldi	r21, 0x00	; 0
    5720:	ba 01       	movw	r22, r20
    5722:	8f ec       	ldi	r24, 0xCF	; 207
    5724:	0e 94 48 26 	call	0x4c90	; 0x4c90 <spi_cmd>
    5728:	8f ec       	ldi	r24, 0xCF	; 207
    572a:	0e 94 f2 27 	call	0x4fe4	; 0x4fe4 <spi_cmd_rsp>
    572e:	61 e0       	ldi	r22, 0x01	; 1
    5730:	70 e0       	ldi	r23, 0x00	; 0
    5732:	80 e0       	ldi	r24, 0x00	; 0
    5734:	90 e0       	ldi	r25, 0x00	; 0
    5736:	0e 94 5c 0f 	call	0x1eb8	; 0x1eb8 <nm_bsp_sleep>
    573a:	8a 81       	ldd	r24, Y+2	; 0x02
    573c:	81 50       	subi	r24, 0x01	; 1
    573e:	8a 83       	std	Y+2, r24	; 0x02
    5740:	8a 81       	ldd	r24, Y+2	; 0x02
    5742:	88 23       	and	r24, r24
    5744:	09 f0       	breq	.+2      	; 0x5748 <nm_spi_read+0x112>
    5746:	92 cf       	rjmp	.-220    	; 0x566c <nm_spi_read+0x36>
    5748:	89 81       	ldd	r24, Y+1	; 0x01
    574a:	2e 96       	adiw	r28, 0x0e	; 14
    574c:	cd bf       	out	0x3d, r28	; 61
    574e:	de bf       	out	0x3e, r29	; 62
    5750:	df 91       	pop	r29
    5752:	cf 91       	pop	r28
    5754:	1f 91       	pop	r17
    5756:	0f 91       	pop	r16
    5758:	ff 90       	pop	r15
    575a:	ef 90       	pop	r14
    575c:	df 90       	pop	r13
    575e:	cf 90       	pop	r12
    5760:	af 90       	pop	r10
    5762:	08 95       	ret

00005764 <spi_init_pkt_sz>:
    5764:	cf 93       	push	r28
    5766:	df 93       	push	r29
    5768:	00 d0       	rcall	.+0      	; 0x576a <spi_init_pkt_sz+0x6>
    576a:	00 d0       	rcall	.+0      	; 0x576c <spi_init_pkt_sz+0x8>
    576c:	cd b7       	in	r28, 0x3d	; 61
    576e:	de b7       	in	r29, 0x3e	; 62
    5770:	64 e2       	ldi	r22, 0x24	; 36
    5772:	78 ee       	ldi	r23, 0xE8	; 232
    5774:	80 e0       	ldi	r24, 0x00	; 0
    5776:	90 e0       	ldi	r25, 0x00	; 0
    5778:	0e 94 8a 2c 	call	0x5914	; 0x5914 <nm_spi_read_reg>
    577c:	dc 01       	movw	r26, r24
    577e:	cb 01       	movw	r24, r22
    5780:	89 83       	std	Y+1, r24	; 0x01
    5782:	9a 83       	std	Y+2, r25	; 0x02
    5784:	ab 83       	std	Y+3, r26	; 0x03
    5786:	bc 83       	std	Y+4, r27	; 0x04
    5788:	89 81       	ldd	r24, Y+1	; 0x01
    578a:	9a 81       	ldd	r25, Y+2	; 0x02
    578c:	ab 81       	ldd	r26, Y+3	; 0x03
    578e:	bc 81       	ldd	r27, Y+4	; 0x04
    5790:	8f 78       	andi	r24, 0x8F	; 143
    5792:	89 83       	std	Y+1, r24	; 0x01
    5794:	9a 83       	std	Y+2, r25	; 0x02
    5796:	ab 83       	std	Y+3, r26	; 0x03
    5798:	bc 83       	std	Y+4, r27	; 0x04
    579a:	89 81       	ldd	r24, Y+1	; 0x01
    579c:	9a 81       	ldd	r25, Y+2	; 0x02
    579e:	ab 81       	ldd	r26, Y+3	; 0x03
    57a0:	bc 81       	ldd	r27, Y+4	; 0x04
    57a2:	80 65       	ori	r24, 0x50	; 80
    57a4:	89 83       	std	Y+1, r24	; 0x01
    57a6:	9a 83       	std	Y+2, r25	; 0x02
    57a8:	ab 83       	std	Y+3, r26	; 0x03
    57aa:	bc 83       	std	Y+4, r27	; 0x04
    57ac:	00 00       	nop
    57ae:	89 81       	ldd	r24, Y+1	; 0x01
    57b0:	9a 81       	ldd	r25, Y+2	; 0x02
    57b2:	ab 81       	ldd	r26, Y+3	; 0x03
    57b4:	bc 81       	ldd	r27, Y+4	; 0x04
    57b6:	9c 01       	movw	r18, r24
    57b8:	ad 01       	movw	r20, r26
    57ba:	64 e2       	ldi	r22, 0x24	; 36
    57bc:	78 ee       	ldi	r23, 0xE8	; 232
    57be:	80 e0       	ldi	r24, 0x00	; 0
    57c0:	90 e0       	ldi	r25, 0x00	; 0
    57c2:	0e 94 d4 2c 	call	0x59a8	; 0x59a8 <nm_spi_write_reg>
    57c6:	00 00       	nop
    57c8:	24 96       	adiw	r28, 0x04	; 4
    57ca:	cd bf       	out	0x3d, r28	; 61
    57cc:	de bf       	out	0x3e, r29	; 62
    57ce:	df 91       	pop	r29
    57d0:	cf 91       	pop	r28
    57d2:	08 95       	ret

000057d4 <nm_spi_reset>:
    57d4:	af 92       	push	r10
    57d6:	cf 92       	push	r12
    57d8:	df 92       	push	r13
    57da:	ef 92       	push	r14
    57dc:	ff 92       	push	r15
    57de:	0f 93       	push	r16
    57e0:	1f 93       	push	r17
    57e2:	cf 93       	push	r28
    57e4:	df 93       	push	r29
    57e6:	cd b7       	in	r28, 0x3d	; 61
    57e8:	de b7       	in	r29, 0x3e	; 62
    57ea:	a1 2c       	mov	r10, r1
    57ec:	c1 2c       	mov	r12, r1
    57ee:	d1 2c       	mov	r13, r1
    57f0:	76 01       	movw	r14, r12
    57f2:	00 e0       	ldi	r16, 0x00	; 0
    57f4:	10 e0       	ldi	r17, 0x00	; 0
    57f6:	98 01       	movw	r18, r16
    57f8:	40 e0       	ldi	r20, 0x00	; 0
    57fa:	50 e0       	ldi	r21, 0x00	; 0
    57fc:	ba 01       	movw	r22, r20
    57fe:	8f ec       	ldi	r24, 0xCF	; 207
    5800:	0e 94 48 26 	call	0x4c90	; 0x4c90 <spi_cmd>
    5804:	8f ec       	ldi	r24, 0xCF	; 207
    5806:	0e 94 f2 27 	call	0x4fe4	; 0x4fe4 <spi_cmd_rsp>
    580a:	80 e0       	ldi	r24, 0x00	; 0
    580c:	df 91       	pop	r29
    580e:	cf 91       	pop	r28
    5810:	1f 91       	pop	r17
    5812:	0f 91       	pop	r16
    5814:	ff 90       	pop	r15
    5816:	ef 90       	pop	r14
    5818:	df 90       	pop	r13
    581a:	cf 90       	pop	r12
    581c:	af 90       	pop	r10
    581e:	08 95       	ret

00005820 <nm_spi_init>:
    5820:	cf 93       	push	r28
    5822:	df 93       	push	r29
    5824:	cd b7       	in	r28, 0x3d	; 61
    5826:	de b7       	in	r29, 0x3e	; 62
    5828:	28 97       	sbiw	r28, 0x08	; 8
    582a:	cd bf       	out	0x3d, r28	; 61
    582c:	de bf       	out	0x3e, r29	; 62
    582e:	1d 82       	std	Y+5, r1	; 0x05
    5830:	1e 82       	std	Y+6, r1	; 0x06
    5832:	1f 82       	std	Y+7, r1	; 0x07
    5834:	18 86       	std	Y+8, r1	; 0x08
    5836:	10 92 11 2e 	sts	0x2E11, r1	; 0x802e11 <gu8Crc_off>
    583a:	ce 01       	movw	r24, r28
    583c:	05 96       	adiw	r24, 0x05	; 5
    583e:	ac 01       	movw	r20, r24
    5840:	64 e2       	ldi	r22, 0x24	; 36
    5842:	78 ee       	ldi	r23, 0xE8	; 232
    5844:	80 e0       	ldi	r24, 0x00	; 0
    5846:	90 e0       	ldi	r25, 0x00	; 0
    5848:	0e 94 58 2a 	call	0x54b0	; 0x54b0 <spi_read_reg>
    584c:	88 23       	and	r24, r24
    584e:	81 f4       	brne	.+32     	; 0x5870 <nm_spi_init+0x50>
    5850:	81 e0       	ldi	r24, 0x01	; 1
    5852:	80 93 11 2e 	sts	0x2E11, r24	; 0x802e11 <gu8Crc_off>
    5856:	ce 01       	movw	r24, r28
    5858:	05 96       	adiw	r24, 0x05	; 5
    585a:	ac 01       	movw	r20, r24
    585c:	64 e2       	ldi	r22, 0x24	; 36
    585e:	78 ee       	ldi	r23, 0xE8	; 232
    5860:	80 e0       	ldi	r24, 0x00	; 0
    5862:	90 e0       	ldi	r25, 0x00	; 0
    5864:	0e 94 58 2a 	call	0x54b0	; 0x54b0 <spi_read_reg>
    5868:	88 23       	and	r24, r24
    586a:	11 f4       	brne	.+4      	; 0x5870 <nm_spi_init+0x50>
    586c:	80 e0       	ldi	r24, 0x00	; 0
    586e:	42 c0       	rjmp	.+132    	; 0x58f4 <nm_spi_init+0xd4>
    5870:	80 91 11 2e 	lds	r24, 0x2E11	; 0x802e11 <gu8Crc_off>
    5874:	88 23       	and	r24, r24
    5876:	71 f5       	brne	.+92     	; 0x58d4 <nm_spi_init+0xb4>
    5878:	8d 81       	ldd	r24, Y+5	; 0x05
    587a:	9e 81       	ldd	r25, Y+6	; 0x06
    587c:	af 81       	ldd	r26, Y+7	; 0x07
    587e:	b8 85       	ldd	r27, Y+8	; 0x08
    5880:	83 7f       	andi	r24, 0xF3	; 243
    5882:	8d 83       	std	Y+5, r24	; 0x05
    5884:	9e 83       	std	Y+6, r25	; 0x06
    5886:	af 83       	std	Y+7, r26	; 0x07
    5888:	b8 87       	std	Y+8, r27	; 0x08
    588a:	8d 81       	ldd	r24, Y+5	; 0x05
    588c:	9e 81       	ldd	r25, Y+6	; 0x06
    588e:	af 81       	ldd	r26, Y+7	; 0x07
    5890:	b8 85       	ldd	r27, Y+8	; 0x08
    5892:	8f 78       	andi	r24, 0x8F	; 143
    5894:	8d 83       	std	Y+5, r24	; 0x05
    5896:	9e 83       	std	Y+6, r25	; 0x06
    5898:	af 83       	std	Y+7, r26	; 0x07
    589a:	b8 87       	std	Y+8, r27	; 0x08
    589c:	8d 81       	ldd	r24, Y+5	; 0x05
    589e:	9e 81       	ldd	r25, Y+6	; 0x06
    58a0:	af 81       	ldd	r26, Y+7	; 0x07
    58a2:	b8 85       	ldd	r27, Y+8	; 0x08
    58a4:	80 65       	ori	r24, 0x50	; 80
    58a6:	8d 83       	std	Y+5, r24	; 0x05
    58a8:	9e 83       	std	Y+6, r25	; 0x06
    58aa:	af 83       	std	Y+7, r26	; 0x07
    58ac:	b8 87       	std	Y+8, r27	; 0x08
    58ae:	8d 81       	ldd	r24, Y+5	; 0x05
    58b0:	9e 81       	ldd	r25, Y+6	; 0x06
    58b2:	af 81       	ldd	r26, Y+7	; 0x07
    58b4:	b8 85       	ldd	r27, Y+8	; 0x08
    58b6:	9c 01       	movw	r18, r24
    58b8:	ad 01       	movw	r20, r26
    58ba:	64 e2       	ldi	r22, 0x24	; 36
    58bc:	78 ee       	ldi	r23, 0xE8	; 232
    58be:	80 e0       	ldi	r24, 0x00	; 0
    58c0:	90 e0       	ldi	r25, 0x00	; 0
    58c2:	0e 94 4e 29 	call	0x529c	; 0x529c <spi_write_reg>
    58c6:	88 23       	and	r24, r24
    58c8:	11 f4       	brne	.+4      	; 0x58ce <nm_spi_init+0xae>
    58ca:	80 e0       	ldi	r24, 0x00	; 0
    58cc:	13 c0       	rjmp	.+38     	; 0x58f4 <nm_spi_init+0xd4>
    58ce:	81 e0       	ldi	r24, 0x01	; 1
    58d0:	80 93 11 2e 	sts	0x2E11, r24	; 0x802e11 <gu8Crc_off>
    58d4:	ce 01       	movw	r24, r28
    58d6:	01 96       	adiw	r24, 0x01	; 1
    58d8:	ac 01       	movw	r20, r24
    58da:	60 e0       	ldi	r22, 0x00	; 0
    58dc:	70 e1       	ldi	r23, 0x10	; 16
    58de:	80 e0       	ldi	r24, 0x00	; 0
    58e0:	90 e0       	ldi	r25, 0x00	; 0
    58e2:	0e 94 58 2a 	call	0x54b0	; 0x54b0 <spi_read_reg>
    58e6:	88 23       	and	r24, r24
    58e8:	11 f4       	brne	.+4      	; 0x58ee <nm_spi_init+0xce>
    58ea:	8a ef       	ldi	r24, 0xFA	; 250
    58ec:	03 c0       	rjmp	.+6      	; 0x58f4 <nm_spi_init+0xd4>
    58ee:	0e 94 b2 2b 	call	0x5764	; 0x5764 <spi_init_pkt_sz>
    58f2:	80 e0       	ldi	r24, 0x00	; 0
    58f4:	28 96       	adiw	r28, 0x08	; 8
    58f6:	cd bf       	out	0x3d, r28	; 61
    58f8:	de bf       	out	0x3e, r29	; 62
    58fa:	df 91       	pop	r29
    58fc:	cf 91       	pop	r28
    58fe:	08 95       	ret

00005900 <nm_spi_deinit>:
    5900:	cf 93       	push	r28
    5902:	df 93       	push	r29
    5904:	cd b7       	in	r28, 0x3d	; 61
    5906:	de b7       	in	r29, 0x3e	; 62
    5908:	10 92 11 2e 	sts	0x2E11, r1	; 0x802e11 <gu8Crc_off>
    590c:	80 e0       	ldi	r24, 0x00	; 0
    590e:	df 91       	pop	r29
    5910:	cf 91       	pop	r28
    5912:	08 95       	ret

00005914 <nm_spi_read_reg>:
    5914:	cf 93       	push	r28
    5916:	df 93       	push	r29
    5918:	cd b7       	in	r28, 0x3d	; 61
    591a:	de b7       	in	r29, 0x3e	; 62
    591c:	28 97       	sbiw	r28, 0x08	; 8
    591e:	cd bf       	out	0x3d, r28	; 61
    5920:	de bf       	out	0x3e, r29	; 62
    5922:	6d 83       	std	Y+5, r22	; 0x05
    5924:	7e 83       	std	Y+6, r23	; 0x06
    5926:	8f 83       	std	Y+7, r24	; 0x07
    5928:	98 87       	std	Y+8, r25	; 0x08
    592a:	8d 81       	ldd	r24, Y+5	; 0x05
    592c:	9e 81       	ldd	r25, Y+6	; 0x06
    592e:	af 81       	ldd	r26, Y+7	; 0x07
    5930:	b8 85       	ldd	r27, Y+8	; 0x08
    5932:	9e 01       	movw	r18, r28
    5934:	2f 5f       	subi	r18, 0xFF	; 255
    5936:	3f 4f       	sbci	r19, 0xFF	; 255
    5938:	a9 01       	movw	r20, r18
    593a:	bc 01       	movw	r22, r24
    593c:	cd 01       	movw	r24, r26
    593e:	0e 94 58 2a 	call	0x54b0	; 0x54b0 <spi_read_reg>
    5942:	89 81       	ldd	r24, Y+1	; 0x01
    5944:	9a 81       	ldd	r25, Y+2	; 0x02
    5946:	ab 81       	ldd	r26, Y+3	; 0x03
    5948:	bc 81       	ldd	r27, Y+4	; 0x04
    594a:	bc 01       	movw	r22, r24
    594c:	cd 01       	movw	r24, r26
    594e:	28 96       	adiw	r28, 0x08	; 8
    5950:	cd bf       	out	0x3d, r28	; 61
    5952:	de bf       	out	0x3e, r29	; 62
    5954:	df 91       	pop	r29
    5956:	cf 91       	pop	r28
    5958:	08 95       	ret

0000595a <nm_spi_read_reg_with_ret>:
    595a:	cf 93       	push	r28
    595c:	df 93       	push	r29
    595e:	cd b7       	in	r28, 0x3d	; 61
    5960:	de b7       	in	r29, 0x3e	; 62
    5962:	27 97       	sbiw	r28, 0x07	; 7
    5964:	cd bf       	out	0x3d, r28	; 61
    5966:	de bf       	out	0x3e, r29	; 62
    5968:	6a 83       	std	Y+2, r22	; 0x02
    596a:	7b 83       	std	Y+3, r23	; 0x03
    596c:	8c 83       	std	Y+4, r24	; 0x04
    596e:	9d 83       	std	Y+5, r25	; 0x05
    5970:	4e 83       	std	Y+6, r20	; 0x06
    5972:	5f 83       	std	Y+7, r21	; 0x07
    5974:	2e 81       	ldd	r18, Y+6	; 0x06
    5976:	3f 81       	ldd	r19, Y+7	; 0x07
    5978:	8a 81       	ldd	r24, Y+2	; 0x02
    597a:	9b 81       	ldd	r25, Y+3	; 0x03
    597c:	ac 81       	ldd	r26, Y+4	; 0x04
    597e:	bd 81       	ldd	r27, Y+5	; 0x05
    5980:	a9 01       	movw	r20, r18
    5982:	bc 01       	movw	r22, r24
    5984:	cd 01       	movw	r24, r26
    5986:	0e 94 58 2a 	call	0x54b0	; 0x54b0 <spi_read_reg>
    598a:	89 83       	std	Y+1, r24	; 0x01
    598c:	89 81       	ldd	r24, Y+1	; 0x01
    598e:	81 30       	cpi	r24, 0x01	; 1
    5990:	11 f4       	brne	.+4      	; 0x5996 <nm_spi_read_reg_with_ret+0x3c>
    5992:	19 82       	std	Y+1, r1	; 0x01
    5994:	02 c0       	rjmp	.+4      	; 0x599a <nm_spi_read_reg_with_ret+0x40>
    5996:	8a ef       	ldi	r24, 0xFA	; 250
    5998:	89 83       	std	Y+1, r24	; 0x01
    599a:	89 81       	ldd	r24, Y+1	; 0x01
    599c:	27 96       	adiw	r28, 0x07	; 7
    599e:	cd bf       	out	0x3d, r28	; 61
    59a0:	de bf       	out	0x3e, r29	; 62
    59a2:	df 91       	pop	r29
    59a4:	cf 91       	pop	r28
    59a6:	08 95       	ret

000059a8 <nm_spi_write_reg>:
    59a8:	cf 93       	push	r28
    59aa:	df 93       	push	r29
    59ac:	cd b7       	in	r28, 0x3d	; 61
    59ae:	de b7       	in	r29, 0x3e	; 62
    59b0:	29 97       	sbiw	r28, 0x09	; 9
    59b2:	cd bf       	out	0x3d, r28	; 61
    59b4:	de bf       	out	0x3e, r29	; 62
    59b6:	6a 83       	std	Y+2, r22	; 0x02
    59b8:	7b 83       	std	Y+3, r23	; 0x03
    59ba:	8c 83       	std	Y+4, r24	; 0x04
    59bc:	9d 83       	std	Y+5, r25	; 0x05
    59be:	2e 83       	std	Y+6, r18	; 0x06
    59c0:	3f 83       	std	Y+7, r19	; 0x07
    59c2:	48 87       	std	Y+8, r20	; 0x08
    59c4:	59 87       	std	Y+9, r21	; 0x09
    59c6:	2e 81       	ldd	r18, Y+6	; 0x06
    59c8:	3f 81       	ldd	r19, Y+7	; 0x07
    59ca:	48 85       	ldd	r20, Y+8	; 0x08
    59cc:	59 85       	ldd	r21, Y+9	; 0x09
    59ce:	8a 81       	ldd	r24, Y+2	; 0x02
    59d0:	9b 81       	ldd	r25, Y+3	; 0x03
    59d2:	ac 81       	ldd	r26, Y+4	; 0x04
    59d4:	bd 81       	ldd	r27, Y+5	; 0x05
    59d6:	bc 01       	movw	r22, r24
    59d8:	cd 01       	movw	r24, r26
    59da:	0e 94 4e 29 	call	0x529c	; 0x529c <spi_write_reg>
    59de:	89 83       	std	Y+1, r24	; 0x01
    59e0:	89 81       	ldd	r24, Y+1	; 0x01
    59e2:	81 30       	cpi	r24, 0x01	; 1
    59e4:	11 f4       	brne	.+4      	; 0x59ea <nm_spi_write_reg+0x42>
    59e6:	19 82       	std	Y+1, r1	; 0x01
    59e8:	02 c0       	rjmp	.+4      	; 0x59ee <nm_spi_write_reg+0x46>
    59ea:	8a ef       	ldi	r24, 0xFA	; 250
    59ec:	89 83       	std	Y+1, r24	; 0x01
    59ee:	89 81       	ldd	r24, Y+1	; 0x01
    59f0:	29 96       	adiw	r28, 0x09	; 9
    59f2:	cd bf       	out	0x3d, r28	; 61
    59f4:	de bf       	out	0x3e, r29	; 62
    59f6:	df 91       	pop	r29
    59f8:	cf 91       	pop	r28
    59fa:	08 95       	ret

000059fc <nm_spi_read_block>:
    59fc:	cf 93       	push	r28
    59fe:	df 93       	push	r29
    5a00:	cd b7       	in	r28, 0x3d	; 61
    5a02:	de b7       	in	r29, 0x3e	; 62
    5a04:	29 97       	sbiw	r28, 0x09	; 9
    5a06:	cd bf       	out	0x3d, r28	; 61
    5a08:	de bf       	out	0x3e, r29	; 62
    5a0a:	6a 83       	std	Y+2, r22	; 0x02
    5a0c:	7b 83       	std	Y+3, r23	; 0x03
    5a0e:	8c 83       	std	Y+4, r24	; 0x04
    5a10:	9d 83       	std	Y+5, r25	; 0x05
    5a12:	4e 83       	std	Y+6, r20	; 0x06
    5a14:	5f 83       	std	Y+7, r21	; 0x07
    5a16:	28 87       	std	Y+8, r18	; 0x08
    5a18:	39 87       	std	Y+9, r19	; 0x09
    5a1a:	28 85       	ldd	r18, Y+8	; 0x08
    5a1c:	39 85       	ldd	r19, Y+9	; 0x09
    5a1e:	4e 81       	ldd	r20, Y+6	; 0x06
    5a20:	5f 81       	ldd	r21, Y+7	; 0x07
    5a22:	8a 81       	ldd	r24, Y+2	; 0x02
    5a24:	9b 81       	ldd	r25, Y+3	; 0x03
    5a26:	ac 81       	ldd	r26, Y+4	; 0x04
    5a28:	bd 81       	ldd	r27, Y+5	; 0x05
    5a2a:	bc 01       	movw	r22, r24
    5a2c:	cd 01       	movw	r24, r26
    5a2e:	0e 94 1b 2b 	call	0x5636	; 0x5636 <nm_spi_read>
    5a32:	89 83       	std	Y+1, r24	; 0x01
    5a34:	89 81       	ldd	r24, Y+1	; 0x01
    5a36:	81 30       	cpi	r24, 0x01	; 1
    5a38:	11 f4       	brne	.+4      	; 0x5a3e <nm_spi_read_block+0x42>
    5a3a:	19 82       	std	Y+1, r1	; 0x01
    5a3c:	02 c0       	rjmp	.+4      	; 0x5a42 <nm_spi_read_block+0x46>
    5a3e:	8a ef       	ldi	r24, 0xFA	; 250
    5a40:	89 83       	std	Y+1, r24	; 0x01
    5a42:	89 81       	ldd	r24, Y+1	; 0x01
    5a44:	29 96       	adiw	r28, 0x09	; 9
    5a46:	cd bf       	out	0x3d, r28	; 61
    5a48:	de bf       	out	0x3e, r29	; 62
    5a4a:	df 91       	pop	r29
    5a4c:	cf 91       	pop	r28
    5a4e:	08 95       	ret

00005a50 <nm_spi_write_block>:
    5a50:	cf 93       	push	r28
    5a52:	df 93       	push	r29
    5a54:	cd b7       	in	r28, 0x3d	; 61
    5a56:	de b7       	in	r29, 0x3e	; 62
    5a58:	29 97       	sbiw	r28, 0x09	; 9
    5a5a:	cd bf       	out	0x3d, r28	; 61
    5a5c:	de bf       	out	0x3e, r29	; 62
    5a5e:	6a 83       	std	Y+2, r22	; 0x02
    5a60:	7b 83       	std	Y+3, r23	; 0x03
    5a62:	8c 83       	std	Y+4, r24	; 0x04
    5a64:	9d 83       	std	Y+5, r25	; 0x05
    5a66:	4e 83       	std	Y+6, r20	; 0x06
    5a68:	5f 83       	std	Y+7, r21	; 0x07
    5a6a:	28 87       	std	Y+8, r18	; 0x08
    5a6c:	39 87       	std	Y+9, r19	; 0x09
    5a6e:	28 85       	ldd	r18, Y+8	; 0x08
    5a70:	39 85       	ldd	r19, Y+9	; 0x09
    5a72:	4e 81       	ldd	r20, Y+6	; 0x06
    5a74:	5f 81       	ldd	r21, Y+7	; 0x07
    5a76:	8a 81       	ldd	r24, Y+2	; 0x02
    5a78:	9b 81       	ldd	r25, Y+3	; 0x03
    5a7a:	ac 81       	ldd	r26, Y+4	; 0x04
    5a7c:	bd 81       	ldd	r27, Y+5	; 0x05
    5a7e:	bc 01       	movw	r22, r24
    5a80:	cd 01       	movw	r24, r26
    5a82:	0e 94 ce 29 	call	0x539c	; 0x539c <nm_spi_write>
    5a86:	89 83       	std	Y+1, r24	; 0x01
    5a88:	89 81       	ldd	r24, Y+1	; 0x01
    5a8a:	81 30       	cpi	r24, 0x01	; 1
    5a8c:	11 f4       	brne	.+4      	; 0x5a92 <nm_spi_write_block+0x42>
    5a8e:	19 82       	std	Y+1, r1	; 0x01
    5a90:	02 c0       	rjmp	.+4      	; 0x5a96 <nm_spi_write_block+0x46>
    5a92:	8a ef       	ldi	r24, 0xFA	; 250
    5a94:	89 83       	std	Y+1, r24	; 0x01
    5a96:	89 81       	ldd	r24, Y+1	; 0x01
    5a98:	29 96       	adiw	r28, 0x09	; 9
    5a9a:	cd bf       	out	0x3d, r28	; 61
    5a9c:	de bf       	out	0x3e, r29	; 62
    5a9e:	df 91       	pop	r29
    5aa0:	cf 91       	pop	r28
    5aa2:	08 95       	ret

00005aa4 <Socket_ReadSocketData>:
    5aa4:	ef 92       	push	r14
    5aa6:	ff 92       	push	r15
    5aa8:	0f 93       	push	r16
    5aaa:	1f 93       	push	r17
    5aac:	cf 93       	push	r28
    5aae:	df 93       	push	r29
    5ab0:	cd b7       	in	r28, 0x3d	; 61
    5ab2:	de b7       	in	r29, 0x3e	; 62
    5ab4:	63 97       	sbiw	r28, 0x13	; 19
    5ab6:	cd bf       	out	0x3d, r28	; 61
    5ab8:	de bf       	out	0x3e, r29	; 62
    5aba:	8a 87       	std	Y+10, r24	; 0x0a
    5abc:	6b 87       	std	Y+11, r22	; 0x0b
    5abe:	7c 87       	std	Y+12, r23	; 0x0c
    5ac0:	4d 87       	std	Y+13, r20	; 0x0d
    5ac2:	0e 87       	std	Y+14, r16	; 0x0e
    5ac4:	1f 87       	std	Y+15, r17	; 0x0f
    5ac6:	28 8b       	std	Y+16, r18	; 0x10
    5ac8:	39 8b       	std	Y+17, r19	; 0x11
    5aca:	ea 8a       	std	Y+18, r14	; 0x12
    5acc:	fb 8a       	std	Y+19, r15	; 0x13
    5ace:	8a 89       	ldd	r24, Y+18	; 0x12
    5ad0:	9b 89       	ldd	r25, Y+19	; 0x13
    5ad2:	89 2b       	or	r24, r25
    5ad4:	09 f4       	brne	.+2      	; 0x5ad8 <Socket_ReadSocketData+0x34>
    5ad6:	10 c1       	rjmp	.+544    	; 0x5cf8 <Socket_ReadSocketData+0x254>
    5ad8:	8a 85       	ldd	r24, Y+10	; 0x0a
    5ada:	28 2f       	mov	r18, r24
    5adc:	88 0f       	add	r24, r24
    5ade:	33 0b       	sbc	r19, r19
    5ae0:	4b e0       	ldi	r20, 0x0B	; 11
    5ae2:	42 9f       	mul	r20, r18
    5ae4:	c0 01       	movw	r24, r0
    5ae6:	43 9f       	mul	r20, r19
    5ae8:	90 0d       	add	r25, r0
    5aea:	11 24       	eor	r1, r1
    5aec:	88 55       	subi	r24, 0x58	; 88
    5aee:	91 4d       	sbci	r25, 0xD1	; 209
    5af0:	fc 01       	movw	r30, r24
    5af2:	80 81       	ld	r24, Z
    5af4:	91 81       	ldd	r25, Z+1	; 0x01
    5af6:	89 2b       	or	r24, r25
    5af8:	09 f4       	brne	.+2      	; 0x5afc <Socket_ReadSocketData+0x58>
    5afa:	fe c0       	rjmp	.+508    	; 0x5cf8 <Socket_ReadSocketData+0x254>
    5afc:	8a 85       	ldd	r24, Y+10	; 0x0a
    5afe:	28 2f       	mov	r18, r24
    5b00:	88 0f       	add	r24, r24
    5b02:	33 0b       	sbc	r19, r19
    5b04:	4b e0       	ldi	r20, 0x0B	; 11
    5b06:	42 9f       	mul	r20, r18
    5b08:	c0 01       	movw	r24, r0
    5b0a:	43 9f       	mul	r20, r19
    5b0c:	90 0d       	add	r25, r0
    5b0e:	11 24       	eor	r1, r1
    5b10:	86 55       	subi	r24, 0x56	; 86
    5b12:	91 4d       	sbci	r25, 0xD1	; 209
    5b14:	fc 01       	movw	r30, r24
    5b16:	80 81       	ld	r24, Z
    5b18:	91 81       	ldd	r25, Z+1	; 0x01
    5b1a:	89 2b       	or	r24, r25
    5b1c:	09 f4       	brne	.+2      	; 0x5b20 <Socket_ReadSocketData+0x7c>
    5b1e:	ec c0       	rjmp	.+472    	; 0x5cf8 <Socket_ReadSocketData+0x254>
    5b20:	8a 85       	ldd	r24, Y+10	; 0x0a
    5b22:	28 2f       	mov	r18, r24
    5b24:	88 0f       	add	r24, r24
    5b26:	33 0b       	sbc	r19, r19
    5b28:	4b e0       	ldi	r20, 0x0B	; 11
    5b2a:	42 9f       	mul	r20, r18
    5b2c:	c0 01       	movw	r24, r0
    5b2e:	43 9f       	mul	r20, r19
    5b30:	90 0d       	add	r25, r0
    5b32:	11 24       	eor	r1, r1
    5b34:	80 55       	subi	r24, 0x50	; 80
    5b36:	91 4d       	sbci	r25, 0xD1	; 209
    5b38:	fc 01       	movw	r30, r24
    5b3a:	80 81       	ld	r24, Z
    5b3c:	81 30       	cpi	r24, 0x01	; 1
    5b3e:	09 f0       	breq	.+2      	; 0x5b42 <Socket_ReadSocketData+0x9e>
    5b40:	db c0       	rjmp	.+438    	; 0x5cf8 <Socket_ReadSocketData+0x254>
    5b42:	8e 85       	ldd	r24, Y+14	; 0x0e
    5b44:	9f 85       	ldd	r25, Y+15	; 0x0f
    5b46:	a8 89       	ldd	r26, Y+16	; 0x10
    5b48:	b9 89       	ldd	r27, Y+17	; 0x11
    5b4a:	89 83       	std	Y+1, r24	; 0x01
    5b4c:	9a 83       	std	Y+2, r25	; 0x02
    5b4e:	ab 83       	std	Y+3, r26	; 0x03
    5b50:	bc 83       	std	Y+4, r27	; 0x04
    5b52:	8b 85       	ldd	r24, Y+11	; 0x0b
    5b54:	9c 85       	ldd	r25, Y+12	; 0x0c
    5b56:	2a 89       	ldd	r18, Y+18	; 0x12
    5b58:	3b 89       	ldd	r19, Y+19	; 0x13
    5b5a:	fc 01       	movw	r30, r24
    5b5c:	24 83       	std	Z+4, r18	; 0x04
    5b5e:	35 83       	std	Z+5, r19	; 0x05
    5b60:	81 e0       	ldi	r24, 0x01	; 1
    5b62:	8f 83       	std	Y+7, r24	; 0x07
    5b64:	8a 89       	ldd	r24, Y+18	; 0x12
    5b66:	9b 89       	ldd	r25, Y+19	; 0x13
    5b68:	8d 83       	std	Y+5, r24	; 0x05
    5b6a:	9e 83       	std	Y+6, r25	; 0x06
    5b6c:	8a 85       	ldd	r24, Y+10	; 0x0a
    5b6e:	28 2f       	mov	r18, r24
    5b70:	88 0f       	add	r24, r24
    5b72:	33 0b       	sbc	r19, r19
    5b74:	4b e0       	ldi	r20, 0x0B	; 11
    5b76:	42 9f       	mul	r20, r18
    5b78:	c0 01       	movw	r24, r0
    5b7a:	43 9f       	mul	r20, r19
    5b7c:	90 0d       	add	r25, r0
    5b7e:	11 24       	eor	r1, r1
    5b80:	86 55       	subi	r24, 0x56	; 86
    5b82:	91 4d       	sbci	r25, 0xD1	; 209
    5b84:	fc 01       	movw	r30, r24
    5b86:	80 81       	ld	r24, Z
    5b88:	91 81       	ldd	r25, Z+1	; 0x01
    5b8a:	2d 81       	ldd	r18, Y+5	; 0x05
    5b8c:	3e 81       	ldd	r19, Y+6	; 0x06
    5b8e:	a9 01       	movw	r20, r18
    5b90:	48 1b       	sub	r20, r24
    5b92:	59 0b       	sbc	r21, r25
    5b94:	ca 01       	movw	r24, r20
    5b96:	88 87       	std	Y+8, r24	; 0x08
    5b98:	99 87       	std	Y+9, r25	; 0x09
    5b9a:	88 85       	ldd	r24, Y+8	; 0x08
    5b9c:	99 85       	ldd	r25, Y+9	; 0x09
    5b9e:	18 16       	cp	r1, r24
    5ba0:	19 06       	cpc	r1, r25
    5ba2:	94 f4       	brge	.+36     	; 0x5bc8 <Socket_ReadSocketData+0x124>
    5ba4:	1f 82       	std	Y+7, r1	; 0x07
    5ba6:	8a 85       	ldd	r24, Y+10	; 0x0a
    5ba8:	28 2f       	mov	r18, r24
    5baa:	88 0f       	add	r24, r24
    5bac:	33 0b       	sbc	r19, r19
    5bae:	4b e0       	ldi	r20, 0x0B	; 11
    5bb0:	42 9f       	mul	r20, r18
    5bb2:	c0 01       	movw	r24, r0
    5bb4:	43 9f       	mul	r20, r19
    5bb6:	90 0d       	add	r25, r0
    5bb8:	11 24       	eor	r1, r1
    5bba:	86 55       	subi	r24, 0x56	; 86
    5bbc:	91 4d       	sbci	r25, 0xD1	; 209
    5bbe:	fc 01       	movw	r30, r24
    5bc0:	80 81       	ld	r24, Z
    5bc2:	91 81       	ldd	r25, Z+1	; 0x01
    5bc4:	8d 83       	std	Y+5, r24	; 0x05
    5bc6:	9e 83       	std	Y+6, r25	; 0x06
    5bc8:	8a 85       	ldd	r24, Y+10	; 0x0a
    5bca:	28 2f       	mov	r18, r24
    5bcc:	88 0f       	add	r24, r24
    5bce:	33 0b       	sbc	r19, r19
    5bd0:	4b e0       	ldi	r20, 0x0B	; 11
    5bd2:	42 9f       	mul	r20, r18
    5bd4:	c0 01       	movw	r24, r0
    5bd6:	43 9f       	mul	r20, r19
    5bd8:	90 0d       	add	r25, r0
    5bda:	11 24       	eor	r1, r1
    5bdc:	88 55       	subi	r24, 0x58	; 88
    5bde:	91 4d       	sbci	r25, 0xD1	; 209
    5be0:	fc 01       	movw	r30, r24
    5be2:	40 81       	ld	r20, Z
    5be4:	51 81       	ldd	r21, Z+1	; 0x01
    5be6:	2d 81       	ldd	r18, Y+5	; 0x05
    5be8:	3e 81       	ldd	r19, Y+6	; 0x06
    5bea:	89 81       	ldd	r24, Y+1	; 0x01
    5bec:	9a 81       	ldd	r25, Y+2	; 0x02
    5bee:	ab 81       	ldd	r26, Y+3	; 0x03
    5bf0:	bc 81       	ldd	r27, Y+4	; 0x04
    5bf2:	0f 81       	ldd	r16, Y+7	; 0x07
    5bf4:	bc 01       	movw	r22, r24
    5bf6:	cd 01       	movw	r24, r26
    5bf8:	0e 94 0a 17 	call	0x2e14	; 0x2e14 <hif_receive>
    5bfc:	88 23       	and	r24, r24
    5bfe:	09 f0       	breq	.+2      	; 0x5c02 <Socket_ReadSocketData+0x15e>
    5c00:	7a c0       	rjmp	.+244    	; 0x5cf6 <Socket_ReadSocketData+0x252>
    5c02:	8a 85       	ldd	r24, Y+10	; 0x0a
    5c04:	28 2f       	mov	r18, r24
    5c06:	88 0f       	add	r24, r24
    5c08:	33 0b       	sbc	r19, r19
    5c0a:	4b e0       	ldi	r20, 0x0B	; 11
    5c0c:	42 9f       	mul	r20, r18
    5c0e:	c0 01       	movw	r24, r0
    5c10:	43 9f       	mul	r20, r19
    5c12:	90 0d       	add	r25, r0
    5c14:	11 24       	eor	r1, r1
    5c16:	88 55       	subi	r24, 0x58	; 88
    5c18:	91 4d       	sbci	r25, 0xD1	; 209
    5c1a:	fc 01       	movw	r30, r24
    5c1c:	20 81       	ld	r18, Z
    5c1e:	31 81       	ldd	r19, Z+1	; 0x01
    5c20:	8b 85       	ldd	r24, Y+11	; 0x0b
    5c22:	9c 85       	ldd	r25, Y+12	; 0x0c
    5c24:	fc 01       	movw	r30, r24
    5c26:	20 83       	st	Z, r18
    5c28:	31 83       	std	Z+1, r19	; 0x01
    5c2a:	2d 81       	ldd	r18, Y+5	; 0x05
    5c2c:	3e 81       	ldd	r19, Y+6	; 0x06
    5c2e:	8b 85       	ldd	r24, Y+11	; 0x0b
    5c30:	9c 85       	ldd	r25, Y+12	; 0x0c
    5c32:	fc 01       	movw	r30, r24
    5c34:	22 83       	std	Z+2, r18	; 0x02
    5c36:	33 83       	std	Z+3, r19	; 0x03
    5c38:	8b 85       	ldd	r24, Y+11	; 0x0b
    5c3a:	9c 85       	ldd	r25, Y+12	; 0x0c
    5c3c:	fc 01       	movw	r30, r24
    5c3e:	24 81       	ldd	r18, Z+4	; 0x04
    5c40:	35 81       	ldd	r19, Z+5	; 0x05
    5c42:	8d 81       	ldd	r24, Y+5	; 0x05
    5c44:	9e 81       	ldd	r25, Y+6	; 0x06
    5c46:	28 1b       	sub	r18, r24
    5c48:	39 0b       	sbc	r19, r25
    5c4a:	8b 85       	ldd	r24, Y+11	; 0x0b
    5c4c:	9c 85       	ldd	r25, Y+12	; 0x0c
    5c4e:	fc 01       	movw	r30, r24
    5c50:	24 83       	std	Z+4, r18	; 0x04
    5c52:	35 83       	std	Z+5, r19	; 0x05
    5c54:	80 91 21 2f 	lds	r24, 0x2F21	; 0x802f21 <gpfAppSocketCb>
    5c58:	90 91 22 2f 	lds	r25, 0x2F22	; 0x802f22 <gpfAppSocketCb+0x1>
    5c5c:	89 2b       	or	r24, r25
    5c5e:	59 f0       	breq	.+22     	; 0x5c76 <Socket_ReadSocketData+0x1d2>
    5c60:	20 91 21 2f 	lds	r18, 0x2F21	; 0x802f21 <gpfAppSocketCb>
    5c64:	30 91 22 2f 	lds	r19, 0x2F22	; 0x802f22 <gpfAppSocketCb+0x1>
    5c68:	8b 85       	ldd	r24, Y+11	; 0x0b
    5c6a:	9c 85       	ldd	r25, Y+12	; 0x0c
    5c6c:	ac 01       	movw	r20, r24
    5c6e:	6d 85       	ldd	r22, Y+13	; 0x0d
    5c70:	8a 85       	ldd	r24, Y+10	; 0x0a
    5c72:	f9 01       	movw	r30, r18
    5c74:	09 95       	icall
    5c76:	2a 89       	ldd	r18, Y+18	; 0x12
    5c78:	3b 89       	ldd	r19, Y+19	; 0x13
    5c7a:	8d 81       	ldd	r24, Y+5	; 0x05
    5c7c:	9e 81       	ldd	r25, Y+6	; 0x06
    5c7e:	a9 01       	movw	r20, r18
    5c80:	48 1b       	sub	r20, r24
    5c82:	59 0b       	sbc	r21, r25
    5c84:	ca 01       	movw	r24, r20
    5c86:	8a 8b       	std	Y+18, r24	; 0x12
    5c88:	9b 8b       	std	Y+19, r25	; 0x13
    5c8a:	8d 81       	ldd	r24, Y+5	; 0x05
    5c8c:	9e 81       	ldd	r25, Y+6	; 0x06
    5c8e:	cc 01       	movw	r24, r24
    5c90:	a0 e0       	ldi	r26, 0x00	; 0
    5c92:	b0 e0       	ldi	r27, 0x00	; 0
    5c94:	29 81       	ldd	r18, Y+1	; 0x01
    5c96:	3a 81       	ldd	r19, Y+2	; 0x02
    5c98:	4b 81       	ldd	r20, Y+3	; 0x03
    5c9a:	5c 81       	ldd	r21, Y+4	; 0x04
    5c9c:	82 0f       	add	r24, r18
    5c9e:	93 1f       	adc	r25, r19
    5ca0:	a4 1f       	adc	r26, r20
    5ca2:	b5 1f       	adc	r27, r21
    5ca4:	89 83       	std	Y+1, r24	; 0x01
    5ca6:	9a 83       	std	Y+2, r25	; 0x02
    5ca8:	ab 83       	std	Y+3, r26	; 0x03
    5caa:	bc 83       	std	Y+4, r27	; 0x04
    5cac:	8a 85       	ldd	r24, Y+10	; 0x0a
    5cae:	28 2f       	mov	r18, r24
    5cb0:	88 0f       	add	r24, r24
    5cb2:	33 0b       	sbc	r19, r19
    5cb4:	4b e0       	ldi	r20, 0x0B	; 11
    5cb6:	42 9f       	mul	r20, r18
    5cb8:	c0 01       	movw	r24, r0
    5cba:	43 9f       	mul	r20, r19
    5cbc:	90 0d       	add	r25, r0
    5cbe:	11 24       	eor	r1, r1
    5cc0:	80 55       	subi	r24, 0x50	; 80
    5cc2:	91 4d       	sbci	r25, 0xD1	; 209
    5cc4:	fc 01       	movw	r30, r24
    5cc6:	80 81       	ld	r24, Z
    5cc8:	88 23       	and	r24, r24
    5cca:	79 f4       	brne	.+30     	; 0x5cea <Socket_ReadSocketData+0x246>
    5ccc:	8a 89       	ldd	r24, Y+18	; 0x12
    5cce:	9b 89       	ldd	r25, Y+19	; 0x13
    5cd0:	89 2b       	or	r24, r25
    5cd2:	59 f0       	breq	.+22     	; 0x5cea <Socket_ReadSocketData+0x246>
    5cd4:	01 e0       	ldi	r16, 0x01	; 1
    5cd6:	20 e0       	ldi	r18, 0x00	; 0
    5cd8:	30 e0       	ldi	r19, 0x00	; 0
    5cda:	40 e0       	ldi	r20, 0x00	; 0
    5cdc:	50 e0       	ldi	r21, 0x00	; 0
    5cde:	60 e0       	ldi	r22, 0x00	; 0
    5ce0:	70 e0       	ldi	r23, 0x00	; 0
    5ce2:	cb 01       	movw	r24, r22
    5ce4:	0e 94 0a 17 	call	0x2e14	; 0x2e14 <hif_receive>
    5ce8:	07 c0       	rjmp	.+14     	; 0x5cf8 <Socket_ReadSocketData+0x254>
    5cea:	8a 89       	ldd	r24, Y+18	; 0x12
    5cec:	9b 89       	ldd	r25, Y+19	; 0x13
    5cee:	89 2b       	or	r24, r25
    5cf0:	09 f0       	breq	.+2      	; 0x5cf4 <Socket_ReadSocketData+0x250>
    5cf2:	36 cf       	rjmp	.-404    	; 0x5b60 <Socket_ReadSocketData+0xbc>
    5cf4:	01 c0       	rjmp	.+2      	; 0x5cf8 <Socket_ReadSocketData+0x254>
    5cf6:	00 00       	nop
    5cf8:	00 00       	nop
    5cfa:	63 96       	adiw	r28, 0x13	; 19
    5cfc:	cd bf       	out	0x3d, r28	; 61
    5cfe:	de bf       	out	0x3e, r29	; 62
    5d00:	df 91       	pop	r29
    5d02:	cf 91       	pop	r28
    5d04:	1f 91       	pop	r17
    5d06:	0f 91       	pop	r16
    5d08:	ff 90       	pop	r15
    5d0a:	ef 90       	pop	r14
    5d0c:	08 95       	ret

00005d0e <m2m_ip_cb>:
    5d0e:	ef 92       	push	r14
    5d10:	ff 92       	push	r15
    5d12:	0f 93       	push	r16
    5d14:	1f 93       	push	r17
    5d16:	cf 93       	push	r28
    5d18:	df 93       	push	r29
    5d1a:	cd b7       	in	r28, 0x3d	; 61
    5d1c:	de b7       	in	r29, 0x3e	; 62
    5d1e:	cc 5c       	subi	r28, 0xCC	; 204
    5d20:	d1 09       	sbc	r29, r1
    5d22:	cd bf       	out	0x3d, r28	; 61
    5d24:	de bf       	out	0x3e, r29	; 62
    5d26:	fe 01       	movw	r30, r28
    5d28:	ec 53       	subi	r30, 0x3C	; 60
    5d2a:	ff 4f       	sbci	r31, 0xFF	; 255
    5d2c:	80 83       	st	Z, r24
    5d2e:	ce 01       	movw	r24, r28
    5d30:	8b 53       	subi	r24, 0x3B	; 59
    5d32:	9f 4f       	sbci	r25, 0xFF	; 255
    5d34:	dc 01       	movw	r26, r24
    5d36:	6d 93       	st	X+, r22
    5d38:	7c 93       	st	X, r23
    5d3a:	ce 01       	movw	r24, r28
    5d3c:	89 53       	subi	r24, 0x39	; 57
    5d3e:	9f 4f       	sbci	r25, 0xFF	; 255
    5d40:	fc 01       	movw	r30, r24
    5d42:	20 83       	st	Z, r18
    5d44:	31 83       	std	Z+1, r19	; 0x01
    5d46:	42 83       	std	Z+2, r20	; 0x02
    5d48:	53 83       	std	Z+3, r21	; 0x03
    5d4a:	ce 01       	movw	r24, r28
    5d4c:	8c 53       	subi	r24, 0x3C	; 60
    5d4e:	9f 4f       	sbci	r25, 0xFF	; 255
    5d50:	dc 01       	movw	r26, r24
    5d52:	8c 91       	ld	r24, X
    5d54:	81 34       	cpi	r24, 0x41	; 65
    5d56:	39 f0       	breq	.+14     	; 0x5d66 <m2m_ip_cb+0x58>
    5d58:	ce 01       	movw	r24, r28
    5d5a:	8c 53       	subi	r24, 0x3C	; 60
    5d5c:	9f 4f       	sbci	r25, 0xFF	; 255
    5d5e:	fc 01       	movw	r30, r24
    5d60:	80 81       	ld	r24, Z
    5d62:	84 35       	cpi	r24, 0x54	; 84
    5d64:	59 f5       	brne	.+86     	; 0x5dbc <m2m_ip_cb+0xae>
    5d66:	ae 01       	movw	r20, r28
    5d68:	41 5f       	subi	r20, 0xF1	; 241
    5d6a:	5f 4f       	sbci	r21, 0xFF	; 255
    5d6c:	ce 01       	movw	r24, r28
    5d6e:	89 53       	subi	r24, 0x39	; 57
    5d70:	9f 4f       	sbci	r25, 0xFF	; 255
    5d72:	fc 01       	movw	r30, r24
    5d74:	80 81       	ld	r24, Z
    5d76:	91 81       	ldd	r25, Z+1	; 0x01
    5d78:	a2 81       	ldd	r26, Z+2	; 0x02
    5d7a:	b3 81       	ldd	r27, Z+3	; 0x03
    5d7c:	00 e0       	ldi	r16, 0x00	; 0
    5d7e:	24 e0       	ldi	r18, 0x04	; 4
    5d80:	30 e0       	ldi	r19, 0x00	; 0
    5d82:	bc 01       	movw	r22, r24
    5d84:	cd 01       	movw	r24, r26
    5d86:	0e 94 0a 17 	call	0x2e14	; 0x2e14 <hif_receive>
    5d8a:	88 23       	and	r24, r24
    5d8c:	09 f0       	breq	.+2      	; 0x5d90 <m2m_ip_cb+0x82>
    5d8e:	70 c3       	rjmp	.+1760   	; 0x6470 <m2m_ip_cb+0x762>
    5d90:	88 89       	ldd	r24, Y+16	; 0x10
    5d92:	8b 8b       	std	Y+19, r24	; 0x13
    5d94:	80 91 21 2f 	lds	r24, 0x2F21	; 0x802f21 <gpfAppSocketCb>
    5d98:	90 91 22 2f 	lds	r25, 0x2F22	; 0x802f22 <gpfAppSocketCb+0x1>
    5d9c:	89 2b       	or	r24, r25
    5d9e:	09 f4       	brne	.+2      	; 0x5da2 <m2m_ip_cb+0x94>
    5da0:	67 c3       	rjmp	.+1742   	; 0x6470 <m2m_ip_cb+0x762>
    5da2:	20 91 21 2f 	lds	r18, 0x2F21	; 0x802f21 <gpfAppSocketCb>
    5da6:	30 91 22 2f 	lds	r19, 0x2F22	; 0x802f22 <gpfAppSocketCb+0x1>
    5daa:	7f 85       	ldd	r23, Y+15	; 0x0f
    5dac:	ce 01       	movw	r24, r28
    5dae:	43 96       	adiw	r24, 0x13	; 19
    5db0:	ac 01       	movw	r20, r24
    5db2:	61 e0       	ldi	r22, 0x01	; 1
    5db4:	87 2f       	mov	r24, r23
    5db6:	f9 01       	movw	r30, r18
    5db8:	09 95       	icall
    5dba:	5a c3       	rjmp	.+1716   	; 0x6470 <m2m_ip_cb+0x762>
    5dbc:	ce 01       	movw	r24, r28
    5dbe:	8c 53       	subi	r24, 0x3C	; 60
    5dc0:	9f 4f       	sbci	r25, 0xFF	; 255
    5dc2:	dc 01       	movw	r26, r24
    5dc4:	8c 91       	ld	r24, X
    5dc6:	82 34       	cpi	r24, 0x42	; 66
    5dc8:	59 f5       	brne	.+86     	; 0x5e20 <m2m_ip_cb+0x112>
    5dca:	ae 01       	movw	r20, r28
    5dcc:	4c 5e       	subi	r20, 0xEC	; 236
    5dce:	5f 4f       	sbci	r21, 0xFF	; 255
    5dd0:	ce 01       	movw	r24, r28
    5dd2:	89 53       	subi	r24, 0x39	; 57
    5dd4:	9f 4f       	sbci	r25, 0xFF	; 255
    5dd6:	fc 01       	movw	r30, r24
    5dd8:	80 81       	ld	r24, Z
    5dda:	91 81       	ldd	r25, Z+1	; 0x01
    5ddc:	a2 81       	ldd	r26, Z+2	; 0x02
    5dde:	b3 81       	ldd	r27, Z+3	; 0x03
    5de0:	00 e0       	ldi	r16, 0x00	; 0
    5de2:	24 e0       	ldi	r18, 0x04	; 4
    5de4:	30 e0       	ldi	r19, 0x00	; 0
    5de6:	bc 01       	movw	r22, r24
    5de8:	cd 01       	movw	r24, r26
    5dea:	0e 94 0a 17 	call	0x2e14	; 0x2e14 <hif_receive>
    5dee:	88 23       	and	r24, r24
    5df0:	09 f0       	breq	.+2      	; 0x5df4 <m2m_ip_cb+0xe6>
    5df2:	45 c3       	rjmp	.+1674   	; 0x647e <m2m_ip_cb+0x770>
    5df4:	8d 89       	ldd	r24, Y+21	; 0x15
    5df6:	88 8f       	std	Y+24, r24	; 0x18
    5df8:	80 91 21 2f 	lds	r24, 0x2F21	; 0x802f21 <gpfAppSocketCb>
    5dfc:	90 91 22 2f 	lds	r25, 0x2F22	; 0x802f22 <gpfAppSocketCb+0x1>
    5e00:	89 2b       	or	r24, r25
    5e02:	09 f4       	brne	.+2      	; 0x5e06 <m2m_ip_cb+0xf8>
    5e04:	3c c3       	rjmp	.+1656   	; 0x647e <m2m_ip_cb+0x770>
    5e06:	20 91 21 2f 	lds	r18, 0x2F21	; 0x802f21 <gpfAppSocketCb>
    5e0a:	30 91 22 2f 	lds	r19, 0x2F22	; 0x802f22 <gpfAppSocketCb+0x1>
    5e0e:	7c 89       	ldd	r23, Y+20	; 0x14
    5e10:	ce 01       	movw	r24, r28
    5e12:	48 96       	adiw	r24, 0x18	; 24
    5e14:	ac 01       	movw	r20, r24
    5e16:	62 e0       	ldi	r22, 0x02	; 2
    5e18:	87 2f       	mov	r24, r23
    5e1a:	f9 01       	movw	r30, r18
    5e1c:	09 95       	icall
    5e1e:	2f c3       	rjmp	.+1630   	; 0x647e <m2m_ip_cb+0x770>
    5e20:	ce 01       	movw	r24, r28
    5e22:	8c 53       	subi	r24, 0x3C	; 60
    5e24:	9f 4f       	sbci	r25, 0xFF	; 255
    5e26:	dc 01       	movw	r26, r24
    5e28:	8c 91       	ld	r24, X
    5e2a:	83 34       	cpi	r24, 0x43	; 67
    5e2c:	09 f0       	breq	.+2      	; 0x5e30 <m2m_ip_cb+0x122>
    5e2e:	a9 c0       	rjmp	.+338    	; 0x5f82 <m2m_ip_cb+0x274>
    5e30:	ae 01       	movw	r20, r28
    5e32:	47 5e       	subi	r20, 0xE7	; 231
    5e34:	5f 4f       	sbci	r21, 0xFF	; 255
    5e36:	ce 01       	movw	r24, r28
    5e38:	89 53       	subi	r24, 0x39	; 57
    5e3a:	9f 4f       	sbci	r25, 0xFF	; 255
    5e3c:	fc 01       	movw	r30, r24
    5e3e:	80 81       	ld	r24, Z
    5e40:	91 81       	ldd	r25, Z+1	; 0x01
    5e42:	a2 81       	ldd	r26, Z+2	; 0x02
    5e44:	b3 81       	ldd	r27, Z+3	; 0x03
    5e46:	00 e0       	ldi	r16, 0x00	; 0
    5e48:	2c e0       	ldi	r18, 0x0C	; 12
    5e4a:	30 e0       	ldi	r19, 0x00	; 0
    5e4c:	bc 01       	movw	r22, r24
    5e4e:	cd 01       	movw	r24, r26
    5e50:	0e 94 0a 17 	call	0x2e14	; 0x2e14 <hif_receive>
    5e54:	88 23       	and	r24, r24
    5e56:	09 f0       	breq	.+2      	; 0x5e5a <m2m_ip_cb+0x14c>
    5e58:	12 c3       	rjmp	.+1572   	; 0x647e <m2m_ip_cb+0x770>
    5e5a:	8a a1       	ldd	r24, Y+34	; 0x22
    5e5c:	88 23       	and	r24, r24
    5e5e:	0c f4       	brge	.+2      	; 0x5e62 <m2m_ip_cb+0x154>
    5e60:	6a c0       	rjmp	.+212    	; 0x5f36 <m2m_ip_cb+0x228>
    5e62:	8a a1       	ldd	r24, Y+34	; 0x22
    5e64:	28 2f       	mov	r18, r24
    5e66:	88 0f       	add	r24, r24
    5e68:	33 0b       	sbc	r19, r19
    5e6a:	89 a1       	ldd	r24, Y+33	; 0x21
    5e6c:	48 2f       	mov	r20, r24
    5e6e:	88 0f       	add	r24, r24
    5e70:	55 0b       	sbc	r21, r21
    5e72:	6b e0       	ldi	r22, 0x0B	; 11
    5e74:	64 9f       	mul	r22, r20
    5e76:	c0 01       	movw	r24, r0
    5e78:	65 9f       	mul	r22, r21
    5e7a:	90 0d       	add	r25, r0
    5e7c:	11 24       	eor	r1, r1
    5e7e:	8f 54       	subi	r24, 0x4F	; 79
    5e80:	91 4d       	sbci	r25, 0xD1	; 209
    5e82:	dc 01       	movw	r26, r24
    5e84:	4c 91       	ld	r20, X
    5e86:	5b e0       	ldi	r21, 0x0B	; 11
    5e88:	52 9f       	mul	r21, r18
    5e8a:	c0 01       	movw	r24, r0
    5e8c:	53 9f       	mul	r21, r19
    5e8e:	90 0d       	add	r25, r0
    5e90:	11 24       	eor	r1, r1
    5e92:	8f 54       	subi	r24, 0x4F	; 79
    5e94:	91 4d       	sbci	r25, 0xD1	; 209
    5e96:	fc 01       	movw	r30, r24
    5e98:	40 83       	st	Z, r20
    5e9a:	8a a1       	ldd	r24, Y+34	; 0x22
    5e9c:	28 2f       	mov	r18, r24
    5e9e:	88 0f       	add	r24, r24
    5ea0:	33 0b       	sbc	r19, r19
    5ea2:	4b e0       	ldi	r20, 0x0B	; 11
    5ea4:	42 9f       	mul	r20, r18
    5ea6:	c0 01       	movw	r24, r0
    5ea8:	43 9f       	mul	r20, r19
    5eaa:	90 0d       	add	r25, r0
    5eac:	11 24       	eor	r1, r1
    5eae:	80 55       	subi	r24, 0x50	; 80
    5eb0:	91 4d       	sbci	r25, 0xD1	; 209
    5eb2:	21 e0       	ldi	r18, 0x01	; 1
    5eb4:	dc 01       	movw	r26, r24
    5eb6:	2c 93       	st	X, r18
    5eb8:	8a a1       	ldd	r24, Y+34	; 0x22
    5eba:	48 2f       	mov	r20, r24
    5ebc:	88 0f       	add	r24, r24
    5ebe:	55 0b       	sbc	r21, r21
    5ec0:	8b a1       	ldd	r24, Y+35	; 0x23
    5ec2:	9c a1       	ldd	r25, Y+36	; 0x24
    5ec4:	9c 01       	movw	r18, r24
    5ec6:	28 50       	subi	r18, 0x08	; 8
    5ec8:	31 09       	sbc	r19, r1
    5eca:	6b e0       	ldi	r22, 0x0B	; 11
    5ecc:	64 9f       	mul	r22, r20
    5ece:	c0 01       	movw	r24, r0
    5ed0:	65 9f       	mul	r22, r21
    5ed2:	90 0d       	add	r25, r0
    5ed4:	11 24       	eor	r1, r1
    5ed6:	82 55       	subi	r24, 0x52	; 82
    5ed8:	91 4d       	sbci	r25, 0xD1	; 209
    5eda:	fc 01       	movw	r30, r24
    5edc:	20 83       	st	Z, r18
    5ede:	31 83       	std	Z+1, r19	; 0x01
    5ee0:	80 91 12 2e 	lds	r24, 0x2E12	; 0x802e12 <gu16SessionID>
    5ee4:	90 91 13 2e 	lds	r25, 0x2E13	; 0x802e13 <gu16SessionID+0x1>
    5ee8:	01 96       	adiw	r24, 0x01	; 1
    5eea:	80 93 12 2e 	sts	0x2E12, r24	; 0x802e12 <gu16SessionID>
    5eee:	90 93 13 2e 	sts	0x2E13, r25	; 0x802e13 <gu16SessionID+0x1>
    5ef2:	80 91 12 2e 	lds	r24, 0x2E12	; 0x802e12 <gu16SessionID>
    5ef6:	90 91 13 2e 	lds	r25, 0x2E13	; 0x802e13 <gu16SessionID+0x1>
    5efa:	89 2b       	or	r24, r25
    5efc:	49 f4       	brne	.+18     	; 0x5f10 <m2m_ip_cb+0x202>
    5efe:	80 91 12 2e 	lds	r24, 0x2E12	; 0x802e12 <gu16SessionID>
    5f02:	90 91 13 2e 	lds	r25, 0x2E13	; 0x802e13 <gu16SessionID+0x1>
    5f06:	01 96       	adiw	r24, 0x01	; 1
    5f08:	80 93 12 2e 	sts	0x2E12, r24	; 0x802e12 <gu16SessionID>
    5f0c:	90 93 13 2e 	sts	0x2E13, r25	; 0x802e13 <gu16SessionID+0x1>
    5f10:	8a a1       	ldd	r24, Y+34	; 0x22
    5f12:	48 2f       	mov	r20, r24
    5f14:	88 0f       	add	r24, r24
    5f16:	55 0b       	sbc	r21, r21
    5f18:	20 91 12 2e 	lds	r18, 0x2E12	; 0x802e12 <gu16SessionID>
    5f1c:	30 91 13 2e 	lds	r19, 0x2E13	; 0x802e13 <gu16SessionID+0x1>
    5f20:	6b e0       	ldi	r22, 0x0B	; 11
    5f22:	64 9f       	mul	r22, r20
    5f24:	c0 01       	movw	r24, r0
    5f26:	65 9f       	mul	r22, r21
    5f28:	90 0d       	add	r25, r0
    5f2a:	11 24       	eor	r1, r1
    5f2c:	84 55       	subi	r24, 0x54	; 84
    5f2e:	91 4d       	sbci	r25, 0xD1	; 209
    5f30:	dc 01       	movw	r26, r24
    5f32:	2d 93       	st	X+, r18
    5f34:	3c 93       	st	X, r19
    5f36:	8a a1       	ldd	r24, Y+34	; 0x22
    5f38:	8d a3       	std	Y+37, r24	; 0x25
    5f3a:	82 e0       	ldi	r24, 0x02	; 2
    5f3c:	90 e0       	ldi	r25, 0x00	; 0
    5f3e:	8e a3       	std	Y+38, r24	; 0x26
    5f40:	9f a3       	std	Y+39, r25	; 0x27
    5f42:	8b 8d       	ldd	r24, Y+27	; 0x1b
    5f44:	9c 8d       	ldd	r25, Y+28	; 0x1c
    5f46:	88 a7       	std	Y+40, r24	; 0x28
    5f48:	99 a7       	std	Y+41, r25	; 0x29
    5f4a:	8d 8d       	ldd	r24, Y+29	; 0x1d
    5f4c:	9e 8d       	ldd	r25, Y+30	; 0x1e
    5f4e:	af 8d       	ldd	r26, Y+31	; 0x1f
    5f50:	b8 a1       	ldd	r27, Y+32	; 0x20
    5f52:	8a a7       	std	Y+42, r24	; 0x2a
    5f54:	9b a7       	std	Y+43, r25	; 0x2b
    5f56:	ac a7       	std	Y+44, r26	; 0x2c
    5f58:	bd a7       	std	Y+45, r27	; 0x2d
    5f5a:	80 91 21 2f 	lds	r24, 0x2F21	; 0x802f21 <gpfAppSocketCb>
    5f5e:	90 91 22 2f 	lds	r25, 0x2F22	; 0x802f22 <gpfAppSocketCb+0x1>
    5f62:	89 2b       	or	r24, r25
    5f64:	09 f4       	brne	.+2      	; 0x5f68 <m2m_ip_cb+0x25a>
    5f66:	8b c2       	rjmp	.+1302   	; 0x647e <m2m_ip_cb+0x770>
    5f68:	20 91 21 2f 	lds	r18, 0x2F21	; 0x802f21 <gpfAppSocketCb>
    5f6c:	30 91 22 2f 	lds	r19, 0x2F22	; 0x802f22 <gpfAppSocketCb+0x1>
    5f70:	79 a1       	ldd	r23, Y+33	; 0x21
    5f72:	ce 01       	movw	r24, r28
    5f74:	85 96       	adiw	r24, 0x25	; 37
    5f76:	ac 01       	movw	r20, r24
    5f78:	64 e0       	ldi	r22, 0x04	; 4
    5f7a:	87 2f       	mov	r24, r23
    5f7c:	f9 01       	movw	r30, r18
    5f7e:	09 95       	icall
    5f80:	7e c2       	rjmp	.+1276   	; 0x647e <m2m_ip_cb+0x770>
    5f82:	ce 01       	movw	r24, r28
    5f84:	8c 53       	subi	r24, 0x3C	; 60
    5f86:	9f 4f       	sbci	r25, 0xFF	; 255
    5f88:	dc 01       	movw	r26, r24
    5f8a:	8c 91       	ld	r24, X
    5f8c:	84 34       	cpi	r24, 0x44	; 68
    5f8e:	41 f0       	breq	.+16     	; 0x5fa0 <m2m_ip_cb+0x292>
    5f90:	ce 01       	movw	r24, r28
    5f92:	8c 53       	subi	r24, 0x3C	; 60
    5f94:	9f 4f       	sbci	r25, 0xFF	; 255
    5f96:	fc 01       	movw	r30, r24
    5f98:	80 81       	ld	r24, Z
    5f9a:	8b 34       	cpi	r24, 0x4B	; 75
    5f9c:	09 f0       	breq	.+2      	; 0x5fa0 <m2m_ip_cb+0x292>
    5f9e:	44 c0       	rjmp	.+136    	; 0x6028 <m2m_ip_cb+0x31a>
    5fa0:	ae 01       	movw	r20, r28
    5fa2:	4a 5c       	subi	r20, 0xCA	; 202
    5fa4:	5f 4f       	sbci	r21, 0xFF	; 255
    5fa6:	ce 01       	movw	r24, r28
    5fa8:	89 53       	subi	r24, 0x39	; 57
    5faa:	9f 4f       	sbci	r25, 0xFF	; 255
    5fac:	fc 01       	movw	r30, r24
    5fae:	80 81       	ld	r24, Z
    5fb0:	91 81       	ldd	r25, Z+1	; 0x01
    5fb2:	a2 81       	ldd	r26, Z+2	; 0x02
    5fb4:	b3 81       	ldd	r27, Z+3	; 0x03
    5fb6:	00 e0       	ldi	r16, 0x00	; 0
    5fb8:	24 e0       	ldi	r18, 0x04	; 4
    5fba:	30 e0       	ldi	r19, 0x00	; 0
    5fbc:	bc 01       	movw	r22, r24
    5fbe:	cd 01       	movw	r24, r26
    5fc0:	0e 94 0a 17 	call	0x2e14	; 0x2e14 <hif_receive>
    5fc4:	88 23       	and	r24, r24
    5fc6:	09 f0       	breq	.+2      	; 0x5fca <m2m_ip_cb+0x2bc>
    5fc8:	55 c2       	rjmp	.+1194   	; 0x6474 <m2m_ip_cb+0x766>
    5fca:	8e a9       	ldd	r24, Y+54	; 0x36
    5fcc:	8a af       	std	Y+58, r24	; 0x3a
    5fce:	8f a9       	ldd	r24, Y+55	; 0x37
    5fd0:	8b af       	std	Y+59, r24	; 0x3b
    5fd2:	8f a9       	ldd	r24, Y+55	; 0x37
    5fd4:	88 23       	and	r24, r24
    5fd6:	a1 f4       	brne	.+40     	; 0x6000 <m2m_ip_cb+0x2f2>
    5fd8:	8e a9       	ldd	r24, Y+54	; 0x36
    5fda:	48 2f       	mov	r20, r24
    5fdc:	88 0f       	add	r24, r24
    5fde:	55 0b       	sbc	r21, r21
    5fe0:	88 ad       	ldd	r24, Y+56	; 0x38
    5fe2:	99 ad       	ldd	r25, Y+57	; 0x39
    5fe4:	9c 01       	movw	r18, r24
    5fe6:	28 50       	subi	r18, 0x08	; 8
    5fe8:	31 09       	sbc	r19, r1
    5fea:	6b e0       	ldi	r22, 0x0B	; 11
    5fec:	64 9f       	mul	r22, r20
    5fee:	c0 01       	movw	r24, r0
    5ff0:	65 9f       	mul	r22, r21
    5ff2:	90 0d       	add	r25, r0
    5ff4:	11 24       	eor	r1, r1
    5ff6:	82 55       	subi	r24, 0x52	; 82
    5ff8:	91 4d       	sbci	r25, 0xD1	; 209
    5ffa:	dc 01       	movw	r26, r24
    5ffc:	2d 93       	st	X+, r18
    5ffe:	3c 93       	st	X, r19
    6000:	80 91 21 2f 	lds	r24, 0x2F21	; 0x802f21 <gpfAppSocketCb>
    6004:	90 91 22 2f 	lds	r25, 0x2F22	; 0x802f22 <gpfAppSocketCb+0x1>
    6008:	89 2b       	or	r24, r25
    600a:	09 f4       	brne	.+2      	; 0x600e <m2m_ip_cb+0x300>
    600c:	33 c2       	rjmp	.+1126   	; 0x6474 <m2m_ip_cb+0x766>
    600e:	20 91 21 2f 	lds	r18, 0x2F21	; 0x802f21 <gpfAppSocketCb>
    6012:	30 91 22 2f 	lds	r19, 0x2F22	; 0x802f22 <gpfAppSocketCb+0x1>
    6016:	7e a9       	ldd	r23, Y+54	; 0x36
    6018:	ce 01       	movw	r24, r28
    601a:	ca 96       	adiw	r24, 0x3a	; 58
    601c:	ac 01       	movw	r20, r24
    601e:	65 e0       	ldi	r22, 0x05	; 5
    6020:	87 2f       	mov	r24, r23
    6022:	f9 01       	movw	r30, r18
    6024:	09 95       	icall
    6026:	26 c2       	rjmp	.+1100   	; 0x6474 <m2m_ip_cb+0x766>
    6028:	ce 01       	movw	r24, r28
    602a:	8c 53       	subi	r24, 0x3C	; 60
    602c:	9f 4f       	sbci	r25, 0xFF	; 255
    602e:	dc 01       	movw	r26, r24
    6030:	8c 91       	ld	r24, X
    6032:	8a 34       	cpi	r24, 0x4A	; 74
    6034:	99 f5       	brne	.+102    	; 0x609c <m2m_ip_cb+0x38e>
    6036:	ae 01       	movw	r20, r28
    6038:	40 58       	subi	r20, 0x80	; 128
    603a:	5f 4f       	sbci	r21, 0xFF	; 255
    603c:	ce 01       	movw	r24, r28
    603e:	89 53       	subi	r24, 0x39	; 57
    6040:	9f 4f       	sbci	r25, 0xFF	; 255
    6042:	fc 01       	movw	r30, r24
    6044:	80 81       	ld	r24, Z
    6046:	91 81       	ldd	r25, Z+1	; 0x01
    6048:	a2 81       	ldd	r26, Z+2	; 0x02
    604a:	b3 81       	ldd	r27, Z+3	; 0x03
    604c:	00 e0       	ldi	r16, 0x00	; 0
    604e:	24 e4       	ldi	r18, 0x44	; 68
    6050:	30 e0       	ldi	r19, 0x00	; 0
    6052:	bc 01       	movw	r22, r24
    6054:	cd 01       	movw	r24, r26
    6056:	0e 94 0a 17 	call	0x2e14	; 0x2e14 <hif_receive>
    605a:	88 23       	and	r24, r24
    605c:	09 f0       	breq	.+2      	; 0x6060 <m2m_ip_cb+0x352>
    605e:	0f c2       	rjmp	.+1054   	; 0x647e <m2m_ip_cb+0x770>
    6060:	80 91 25 2f 	lds	r24, 0x2F25	; 0x802f25 <gpfAppResolveCb>
    6064:	90 91 26 2f 	lds	r25, 0x2F26	; 0x802f26 <gpfAppResolveCb+0x1>
    6068:	89 2b       	or	r24, r25
    606a:	09 f4       	brne	.+2      	; 0x606e <m2m_ip_cb+0x360>
    606c:	08 c2       	rjmp	.+1040   	; 0x647e <m2m_ip_cb+0x770>
    606e:	20 91 25 2f 	lds	r18, 0x2F25	; 0x802f25 <gpfAppResolveCb>
    6072:	30 91 26 2f 	lds	r19, 0x2F26	; 0x802f26 <gpfAppResolveCb+0x1>
    6076:	ce 01       	movw	r24, r28
    6078:	80 58       	subi	r24, 0x80	; 128
    607a:	9f 4f       	sbci	r25, 0xFF	; 255
    607c:	80 5c       	subi	r24, 0xC0	; 192
    607e:	9f 4f       	sbci	r25, 0xFF	; 255
    6080:	fc 01       	movw	r30, r24
    6082:	80 81       	ld	r24, Z
    6084:	91 81       	ldd	r25, Z+1	; 0x01
    6086:	a2 81       	ldd	r26, Z+2	; 0x02
    6088:	b3 81       	ldd	r27, Z+3	; 0x03
    608a:	fe 01       	movw	r30, r28
    608c:	e0 58       	subi	r30, 0x80	; 128
    608e:	ff 4f       	sbci	r31, 0xFF	; 255
    6090:	ac 01       	movw	r20, r24
    6092:	bd 01       	movw	r22, r26
    6094:	cf 01       	movw	r24, r30
    6096:	f9 01       	movw	r30, r18
    6098:	09 95       	icall
    609a:	f1 c1       	rjmp	.+994    	; 0x647e <m2m_ip_cb+0x770>
    609c:	ce 01       	movw	r24, r28
    609e:	8c 53       	subi	r24, 0x3C	; 60
    60a0:	9f 4f       	sbci	r25, 0xFF	; 255
    60a2:	dc 01       	movw	r26, r24
    60a4:	8c 91       	ld	r24, X
    60a6:	86 34       	cpi	r24, 0x46	; 70
    60a8:	79 f0       	breq	.+30     	; 0x60c8 <m2m_ip_cb+0x3ba>
    60aa:	ce 01       	movw	r24, r28
    60ac:	8c 53       	subi	r24, 0x3C	; 60
    60ae:	9f 4f       	sbci	r25, 0xFF	; 255
    60b0:	fc 01       	movw	r30, r24
    60b2:	80 81       	ld	r24, Z
    60b4:	88 34       	cpi	r24, 0x48	; 72
    60b6:	41 f0       	breq	.+16     	; 0x60c8 <m2m_ip_cb+0x3ba>
    60b8:	ce 01       	movw	r24, r28
    60ba:	8c 53       	subi	r24, 0x3C	; 60
    60bc:	9f 4f       	sbci	r25, 0xFF	; 255
    60be:	dc 01       	movw	r26, r24
    60c0:	8c 91       	ld	r24, X
    60c2:	8d 34       	cpi	r24, 0x4D	; 77
    60c4:	09 f0       	breq	.+2      	; 0x60c8 <m2m_ip_cb+0x3ba>
    60c6:	fc c0       	rjmp	.+504    	; 0x62c0 <m2m_ip_cb+0x5b2>
    60c8:	86 e0       	ldi	r24, 0x06	; 6
    60ca:	89 83       	std	Y+1, r24	; 0x01
    60cc:	ce 01       	movw	r24, r28
    60ce:	8c 53       	subi	r24, 0x3C	; 60
    60d0:	9f 4f       	sbci	r25, 0xFF	; 255
    60d2:	fc 01       	movw	r30, r24
    60d4:	80 81       	ld	r24, Z
    60d6:	88 34       	cpi	r24, 0x48	; 72
    60d8:	11 f4       	brne	.+4      	; 0x60de <m2m_ip_cb+0x3d0>
    60da:	89 e0       	ldi	r24, 0x09	; 9
    60dc:	89 83       	std	Y+1, r24	; 0x01
    60de:	80 e1       	ldi	r24, 0x10	; 16
    60e0:	90 e0       	ldi	r25, 0x00	; 0
    60e2:	8e 83       	std	Y+6, r24	; 0x06
    60e4:	9f 83       	std	Y+7, r25	; 0x07
    60e6:	2e 81       	ldd	r18, Y+6	; 0x06
    60e8:	3f 81       	ldd	r19, Y+7	; 0x07
    60ea:	ae 01       	movw	r20, r28
    60ec:	44 5c       	subi	r20, 0xC4	; 196
    60ee:	5f 4f       	sbci	r21, 0xFF	; 255
    60f0:	ce 01       	movw	r24, r28
    60f2:	89 53       	subi	r24, 0x39	; 57
    60f4:	9f 4f       	sbci	r25, 0xFF	; 255
    60f6:	fc 01       	movw	r30, r24
    60f8:	80 81       	ld	r24, Z
    60fa:	91 81       	ldd	r25, Z+1	; 0x01
    60fc:	a2 81       	ldd	r26, Z+2	; 0x02
    60fe:	b3 81       	ldd	r27, Z+3	; 0x03
    6100:	00 e0       	ldi	r16, 0x00	; 0
    6102:	bc 01       	movw	r22, r24
    6104:	cd 01       	movw	r24, r26
    6106:	0e 94 0a 17 	call	0x2e14	; 0x2e14 <hif_receive>
    610a:	88 23       	and	r24, r24
    610c:	09 f0       	breq	.+2      	; 0x6110 <m2m_ip_cb+0x402>
    610e:	b4 c1       	rjmp	.+872    	; 0x6478 <m2m_ip_cb+0x76a>
    6110:	18 86       	std	Y+8, r1	; 0x08
    6112:	19 86       	std	Y+9, r1	; 0x09
    6114:	ce 01       	movw	r24, r28
    6116:	88 5b       	subi	r24, 0xB8	; 184
    6118:	9f 4f       	sbci	r25, 0xFF	; 255
    611a:	dc 01       	movw	r26, r24
    611c:	8c 91       	ld	r24, X
    611e:	8a 87       	std	Y+10, r24	; 0x0a
    6120:	ce 01       	movw	r24, r28
    6122:	86 5b       	subi	r24, 0xB6	; 182
    6124:	9f 4f       	sbci	r25, 0xFF	; 255
    6126:	fc 01       	movw	r30, r24
    6128:	80 81       	ld	r24, Z
    612a:	91 81       	ldd	r25, Z+1	; 0x01
    612c:	88 87       	std	Y+8, r24	; 0x08
    612e:	99 87       	std	Y+9, r25	; 0x09
    6130:	8a 85       	ldd	r24, Y+10	; 0x0a
    6132:	28 2f       	mov	r18, r24
    6134:	88 0f       	add	r24, r24
    6136:	33 0b       	sbc	r19, r19
    6138:	4b e0       	ldi	r20, 0x0B	; 11
    613a:	42 9f       	mul	r20, r18
    613c:	c0 01       	movw	r24, r0
    613e:	43 9f       	mul	r20, r19
    6140:	90 0d       	add	r25, r0
    6142:	11 24       	eor	r1, r1
    6144:	8e 54       	subi	r24, 0x4E	; 78
    6146:	91 4d       	sbci	r25, 0xD1	; 209
    6148:	dc 01       	movw	r26, r24
    614a:	1c 92       	st	X, r1
    614c:	ce 01       	movw	r24, r28
    614e:	8c 5b       	subi	r24, 0xBC	; 188
    6150:	9f 4f       	sbci	r25, 0xFF	; 255
    6152:	fc 01       	movw	r30, r24
    6154:	80 81       	ld	r24, Z
    6156:	91 81       	ldd	r25, Z+1	; 0x01
    6158:	8b 87       	std	Y+11, r24	; 0x0b
    615a:	9c 87       	std	Y+12, r25	; 0x0c
    615c:	ce 01       	movw	r24, r28
    615e:	8a 5b       	subi	r24, 0xBA	; 186
    6160:	9f 4f       	sbci	r25, 0xFF	; 255
    6162:	dc 01       	movw	r26, r24
    6164:	8d 91       	ld	r24, X+
    6166:	9c 91       	ld	r25, X
    6168:	8d 87       	std	Y+13, r24	; 0x0d
    616a:	9e 87       	std	Y+14, r25	; 0x0e
    616c:	2e ad       	ldd	r18, Y+62	; 0x3e
    616e:	3f ad       	ldd	r19, Y+63	; 0x3f
    6170:	ce 01       	movw	r24, r28
    6172:	84 5b       	subi	r24, 0xB4	; 180
    6174:	9f 4f       	sbci	r25, 0xFF	; 255
    6176:	fc 01       	movw	r30, r24
    6178:	20 87       	std	Z+8, r18	; 0x08
    617a:	31 87       	std	Z+9, r19	; 0x09
    617c:	ce 01       	movw	r24, r28
    617e:	80 5c       	subi	r24, 0xC0	; 192
    6180:	9f 4f       	sbci	r25, 0xFF	; 255
    6182:	fc 01       	movw	r30, r24
    6184:	80 81       	ld	r24, Z
    6186:	91 81       	ldd	r25, Z+1	; 0x01
    6188:	a2 81       	ldd	r26, Z+2	; 0x02
    618a:	b3 81       	ldd	r27, Z+3	; 0x03
    618c:	9e 01       	movw	r18, r28
    618e:	24 5b       	subi	r18, 0xB4	; 180
    6190:	3f 4f       	sbci	r19, 0xFF	; 255
    6192:	f9 01       	movw	r30, r18
    6194:	82 87       	std	Z+10, r24	; 0x0a
    6196:	93 87       	std	Z+11, r25	; 0x0b
    6198:	a4 87       	std	Z+12, r26	; 0x0c
    619a:	b5 87       	std	Z+13, r27	; 0x0d
    619c:	8a 85       	ldd	r24, Y+10	; 0x0a
    619e:	28 2f       	mov	r18, r24
    61a0:	88 0f       	add	r24, r24
    61a2:	33 0b       	sbc	r19, r19
    61a4:	4b e0       	ldi	r20, 0x0B	; 11
    61a6:	42 9f       	mul	r20, r18
    61a8:	c0 01       	movw	r24, r0
    61aa:	43 9f       	mul	r20, r19
    61ac:	90 0d       	add	r25, r0
    61ae:	11 24       	eor	r1, r1
    61b0:	84 55       	subi	r24, 0x54	; 84
    61b2:	91 4d       	sbci	r25, 0xD1	; 209
    61b4:	dc 01       	movw	r26, r24
    61b6:	2d 91       	ld	r18, X+
    61b8:	3c 91       	ld	r19, X
    61ba:	88 85       	ldd	r24, Y+8	; 0x08
    61bc:	99 85       	ldd	r25, Y+9	; 0x09
    61be:	28 17       	cp	r18, r24
    61c0:	39 07       	cpc	r19, r25
    61c2:	09 f0       	breq	.+2      	; 0x61c6 <m2m_ip_cb+0x4b8>
    61c4:	66 c0       	rjmp	.+204    	; 0x6292 <m2m_ip_cb+0x584>
    61c6:	8b 85       	ldd	r24, Y+11	; 0x0b
    61c8:	9c 85       	ldd	r25, Y+12	; 0x0c
    61ca:	18 16       	cp	r1, r24
    61cc:	19 06       	cpc	r1, r25
    61ce:	ec f5       	brge	.+122    	; 0x624a <m2m_ip_cb+0x53c>
    61d0:	2b 85       	ldd	r18, Y+11	; 0x0b
    61d2:	3c 85       	ldd	r19, Y+12	; 0x0c
    61d4:	ce 01       	movw	r24, r28
    61d6:	8b 53       	subi	r24, 0x3B	; 59
    61d8:	9f 4f       	sbci	r25, 0xFF	; 255
    61da:	fc 01       	movw	r30, r24
    61dc:	80 81       	ld	r24, Z
    61de:	91 81       	ldd	r25, Z+1	; 0x01
    61e0:	28 17       	cp	r18, r24
    61e2:	39 07       	cpc	r19, r25
    61e4:	90 f5       	brcc	.+100    	; 0x624a <m2m_ip_cb+0x53c>
    61e6:	8d 85       	ldd	r24, Y+13	; 0x0d
    61e8:	9e 85       	ldd	r25, Y+14	; 0x0e
    61ea:	9c 01       	movw	r18, r24
    61ec:	40 e0       	ldi	r20, 0x00	; 0
    61ee:	50 e0       	ldi	r21, 0x00	; 0
    61f0:	be 01       	movw	r22, r28
    61f2:	69 53       	subi	r22, 0x39	; 57
    61f4:	7f 4f       	sbci	r23, 0xFF	; 255
    61f6:	ce 01       	movw	r24, r28
    61f8:	89 53       	subi	r24, 0x39	; 57
    61fa:	9f 4f       	sbci	r25, 0xFF	; 255
    61fc:	fc 01       	movw	r30, r24
    61fe:	80 81       	ld	r24, Z
    6200:	91 81       	ldd	r25, Z+1	; 0x01
    6202:	a2 81       	ldd	r26, Z+2	; 0x02
    6204:	b3 81       	ldd	r27, Z+3	; 0x03
    6206:	82 0f       	add	r24, r18
    6208:	93 1f       	adc	r25, r19
    620a:	a4 1f       	adc	r26, r20
    620c:	b5 1f       	adc	r27, r21
    620e:	fb 01       	movw	r30, r22
    6210:	80 83       	st	Z, r24
    6212:	91 83       	std	Z+1, r25	; 0x01
    6214:	a2 83       	std	Z+2, r26	; 0x02
    6216:	b3 83       	std	Z+3, r27	; 0x03
    6218:	8b 85       	ldd	r24, Y+11	; 0x0b
    621a:	9c 85       	ldd	r25, Y+12	; 0x0c
    621c:	8e 83       	std	Y+6, r24	; 0x06
    621e:	9f 83       	std	Y+7, r25	; 0x07
    6220:	2e 81       	ldd	r18, Y+6	; 0x06
    6222:	3f 81       	ldd	r19, Y+7	; 0x07
    6224:	ce 01       	movw	r24, r28
    6226:	89 53       	subi	r24, 0x39	; 57
    6228:	9f 4f       	sbci	r25, 0xFF	; 255
    622a:	fc 01       	movw	r30, r24
    622c:	80 81       	ld	r24, Z
    622e:	91 81       	ldd	r25, Z+1	; 0x01
    6230:	a2 81       	ldd	r26, Z+2	; 0x02
    6232:	b3 81       	ldd	r27, Z+3	; 0x03
    6234:	be 01       	movw	r22, r28
    6236:	64 5b       	subi	r22, 0xB4	; 180
    6238:	7f 4f       	sbci	r23, 0xFF	; 255
    623a:	79 01       	movw	r14, r18
    623c:	8c 01       	movw	r16, r24
    623e:	9d 01       	movw	r18, r26
    6240:	49 81       	ldd	r20, Y+1	; 0x01
    6242:	8a 85       	ldd	r24, Y+10	; 0x0a
    6244:	0e 94 52 2d 	call	0x5aa4	; 0x5aa4 <Socket_ReadSocketData>
    6248:	17 c1       	rjmp	.+558    	; 0x6478 <m2m_ip_cb+0x76a>
    624a:	ce 01       	movw	r24, r28
    624c:	84 5b       	subi	r24, 0xB4	; 180
    624e:	9f 4f       	sbci	r25, 0xFF	; 255
    6250:	2b 85       	ldd	r18, Y+11	; 0x0b
    6252:	3c 85       	ldd	r19, Y+12	; 0x0c
    6254:	dc 01       	movw	r26, r24
    6256:	12 96       	adiw	r26, 0x02	; 2
    6258:	2d 93       	st	X+, r18
    625a:	3c 93       	st	X, r19
    625c:	13 97       	sbiw	r26, 0x03	; 3
    625e:	ce 01       	movw	r24, r28
    6260:	84 5b       	subi	r24, 0xB4	; 180
    6262:	9f 4f       	sbci	r25, 0xFF	; 255
    6264:	fc 01       	movw	r30, r24
    6266:	10 82       	st	Z, r1
    6268:	11 82       	std	Z+1, r1	; 0x01
    626a:	80 91 21 2f 	lds	r24, 0x2F21	; 0x802f21 <gpfAppSocketCb>
    626e:	90 91 22 2f 	lds	r25, 0x2F22	; 0x802f22 <gpfAppSocketCb+0x1>
    6272:	89 2b       	or	r24, r25
    6274:	09 f4       	brne	.+2      	; 0x6278 <m2m_ip_cb+0x56a>
    6276:	00 c1       	rjmp	.+512    	; 0x6478 <m2m_ip_cb+0x76a>
    6278:	20 91 21 2f 	lds	r18, 0x2F21	; 0x802f21 <gpfAppSocketCb>
    627c:	30 91 22 2f 	lds	r19, 0x2F22	; 0x802f22 <gpfAppSocketCb+0x1>
    6280:	ce 01       	movw	r24, r28
    6282:	84 5b       	subi	r24, 0xB4	; 180
    6284:	9f 4f       	sbci	r25, 0xFF	; 255
    6286:	ac 01       	movw	r20, r24
    6288:	69 81       	ldd	r22, Y+1	; 0x01
    628a:	8a 85       	ldd	r24, Y+10	; 0x0a
    628c:	f9 01       	movw	r30, r18
    628e:	09 95       	icall
    6290:	f3 c0       	rjmp	.+486    	; 0x6478 <m2m_ip_cb+0x76a>
    6292:	ce 01       	movw	r24, r28
    6294:	8b 53       	subi	r24, 0x3B	; 59
    6296:	9f 4f       	sbci	r25, 0xFF	; 255
    6298:	2e 81       	ldd	r18, Y+6	; 0x06
    629a:	3f 81       	ldd	r19, Y+7	; 0x07
    629c:	dc 01       	movw	r26, r24
    629e:	8d 91       	ld	r24, X+
    62a0:	9c 91       	ld	r25, X
    62a2:	28 17       	cp	r18, r24
    62a4:	39 07       	cpc	r19, r25
    62a6:	08 f0       	brcs	.+2      	; 0x62aa <m2m_ip_cb+0x59c>
    62a8:	e7 c0       	rjmp	.+462    	; 0x6478 <m2m_ip_cb+0x76a>
    62aa:	01 e0       	ldi	r16, 0x01	; 1
    62ac:	20 e0       	ldi	r18, 0x00	; 0
    62ae:	30 e0       	ldi	r19, 0x00	; 0
    62b0:	40 e0       	ldi	r20, 0x00	; 0
    62b2:	50 e0       	ldi	r21, 0x00	; 0
    62b4:	60 e0       	ldi	r22, 0x00	; 0
    62b6:	70 e0       	ldi	r23, 0x00	; 0
    62b8:	cb 01       	movw	r24, r22
    62ba:	0e 94 0a 17 	call	0x2e14	; 0x2e14 <hif_receive>
    62be:	dc c0       	rjmp	.+440    	; 0x6478 <m2m_ip_cb+0x76a>
    62c0:	ce 01       	movw	r24, r28
    62c2:	8c 53       	subi	r24, 0x3C	; 60
    62c4:	9f 4f       	sbci	r25, 0xFF	; 255
    62c6:	fc 01       	movw	r30, r24
    62c8:	80 81       	ld	r24, Z
    62ca:	85 34       	cpi	r24, 0x45	; 69
    62cc:	79 f0       	breq	.+30     	; 0x62ec <m2m_ip_cb+0x5de>
    62ce:	ce 01       	movw	r24, r28
    62d0:	8c 53       	subi	r24, 0x3C	; 60
    62d2:	9f 4f       	sbci	r25, 0xFF	; 255
    62d4:	dc 01       	movw	r26, r24
    62d6:	8c 91       	ld	r24, X
    62d8:	87 34       	cpi	r24, 0x47	; 71
    62da:	41 f0       	breq	.+16     	; 0x62ec <m2m_ip_cb+0x5de>
    62dc:	ce 01       	movw	r24, r28
    62de:	8c 53       	subi	r24, 0x3C	; 60
    62e0:	9f 4f       	sbci	r25, 0xFF	; 255
    62e2:	fc 01       	movw	r30, r24
    62e4:	80 81       	ld	r24, Z
    62e6:	8c 34       	cpi	r24, 0x4C	; 76
    62e8:	09 f0       	breq	.+2      	; 0x62ec <m2m_ip_cb+0x5de>
    62ea:	67 c0       	rjmp	.+206    	; 0x63ba <m2m_ip_cb+0x6ac>
    62ec:	87 e0       	ldi	r24, 0x07	; 7
    62ee:	8a 83       	std	Y+2, r24	; 0x02
    62f0:	ce 01       	movw	r24, r28
    62f2:	8c 53       	subi	r24, 0x3C	; 60
    62f4:	9f 4f       	sbci	r25, 0xFF	; 255
    62f6:	dc 01       	movw	r26, r24
    62f8:	8c 91       	ld	r24, X
    62fa:	87 34       	cpi	r24, 0x47	; 71
    62fc:	11 f4       	brne	.+4      	; 0x6302 <m2m_ip_cb+0x5f4>
    62fe:	88 e0       	ldi	r24, 0x08	; 8
    6300:	8a 83       	std	Y+2, r24	; 0x02
    6302:	ae 01       	movw	r20, r28
    6304:	4c 59       	subi	r20, 0x9C	; 156
    6306:	5f 4f       	sbci	r21, 0xFF	; 255
    6308:	ce 01       	movw	r24, r28
    630a:	89 53       	subi	r24, 0x39	; 57
    630c:	9f 4f       	sbci	r25, 0xFF	; 255
    630e:	fc 01       	movw	r30, r24
    6310:	80 81       	ld	r24, Z
    6312:	91 81       	ldd	r25, Z+1	; 0x01
    6314:	a2 81       	ldd	r26, Z+2	; 0x02
    6316:	b3 81       	ldd	r27, Z+3	; 0x03
    6318:	00 e0       	ldi	r16, 0x00	; 0
    631a:	28 e0       	ldi	r18, 0x08	; 8
    631c:	30 e0       	ldi	r19, 0x00	; 0
    631e:	bc 01       	movw	r22, r24
    6320:	cd 01       	movw	r24, r26
    6322:	0e 94 0a 17 	call	0x2e14	; 0x2e14 <hif_receive>
    6326:	88 23       	and	r24, r24
    6328:	09 f0       	breq	.+2      	; 0x632c <m2m_ip_cb+0x61e>
    632a:	a8 c0       	rjmp	.+336    	; 0x647c <m2m_ip_cb+0x76e>
    632c:	1b 82       	std	Y+3, r1	; 0x03
    632e:	1c 82       	std	Y+4, r1	; 0x04
    6330:	ce 01       	movw	r24, r28
    6332:	8c 59       	subi	r24, 0x9C	; 156
    6334:	9f 4f       	sbci	r25, 0xFF	; 255
    6336:	dc 01       	movw	r26, r24
    6338:	8c 91       	ld	r24, X
    633a:	8d 83       	std	Y+5, r24	; 0x05
    633c:	ce 01       	movw	r24, r28
    633e:	8c 59       	subi	r24, 0x9C	; 156
    6340:	9f 4f       	sbci	r25, 0xFF	; 255
    6342:	fc 01       	movw	r30, r24
    6344:	84 81       	ldd	r24, Z+4	; 0x04
    6346:	95 81       	ldd	r25, Z+5	; 0x05
    6348:	8b 83       	std	Y+3, r24	; 0x03
    634a:	9c 83       	std	Y+4, r25	; 0x04
    634c:	ce 01       	movw	r24, r28
    634e:	8c 59       	subi	r24, 0x9C	; 156
    6350:	9f 4f       	sbci	r25, 0xFF	; 255
    6352:	dc 01       	movw	r26, r24
    6354:	12 96       	adiw	r26, 0x02	; 2
    6356:	2d 91       	ld	r18, X+
    6358:	3c 91       	ld	r19, X
    635a:	13 97       	sbiw	r26, 0x03	; 3
    635c:	ce 01       	movw	r24, r28
    635e:	8e 59       	subi	r24, 0x9E	; 158
    6360:	9f 4f       	sbci	r25, 0xFF	; 255
    6362:	fc 01       	movw	r30, r24
    6364:	20 83       	st	Z, r18
    6366:	31 83       	std	Z+1, r19	; 0x01
    6368:	8d 81       	ldd	r24, Y+5	; 0x05
    636a:	28 2f       	mov	r18, r24
    636c:	88 0f       	add	r24, r24
    636e:	33 0b       	sbc	r19, r19
    6370:	4b e0       	ldi	r20, 0x0B	; 11
    6372:	42 9f       	mul	r20, r18
    6374:	c0 01       	movw	r24, r0
    6376:	43 9f       	mul	r20, r19
    6378:	90 0d       	add	r25, r0
    637a:	11 24       	eor	r1, r1
    637c:	84 55       	subi	r24, 0x54	; 84
    637e:	91 4d       	sbci	r25, 0xD1	; 209
    6380:	dc 01       	movw	r26, r24
    6382:	2d 91       	ld	r18, X+
    6384:	3c 91       	ld	r19, X
    6386:	8b 81       	ldd	r24, Y+3	; 0x03
    6388:	9c 81       	ldd	r25, Y+4	; 0x04
    638a:	28 17       	cp	r18, r24
    638c:	39 07       	cpc	r19, r25
    638e:	09 f0       	breq	.+2      	; 0x6392 <m2m_ip_cb+0x684>
    6390:	75 c0       	rjmp	.+234    	; 0x647c <m2m_ip_cb+0x76e>
    6392:	80 91 21 2f 	lds	r24, 0x2F21	; 0x802f21 <gpfAppSocketCb>
    6396:	90 91 22 2f 	lds	r25, 0x2F22	; 0x802f22 <gpfAppSocketCb+0x1>
    639a:	89 2b       	or	r24, r25
    639c:	09 f4       	brne	.+2      	; 0x63a0 <m2m_ip_cb+0x692>
    639e:	6e c0       	rjmp	.+220    	; 0x647c <m2m_ip_cb+0x76e>
    63a0:	20 91 21 2f 	lds	r18, 0x2F21	; 0x802f21 <gpfAppSocketCb>
    63a4:	30 91 22 2f 	lds	r19, 0x2F22	; 0x802f22 <gpfAppSocketCb+0x1>
    63a8:	ce 01       	movw	r24, r28
    63aa:	8e 59       	subi	r24, 0x9E	; 158
    63ac:	9f 4f       	sbci	r25, 0xFF	; 255
    63ae:	ac 01       	movw	r20, r24
    63b0:	6a 81       	ldd	r22, Y+2	; 0x02
    63b2:	8d 81       	ldd	r24, Y+5	; 0x05
    63b4:	f9 01       	movw	r30, r18
    63b6:	09 95       	icall
    63b8:	61 c0       	rjmp	.+194    	; 0x647c <m2m_ip_cb+0x76e>
    63ba:	ce 01       	movw	r24, r28
    63bc:	8c 53       	subi	r24, 0x3C	; 60
    63be:	9f 4f       	sbci	r25, 0xFF	; 255
    63c0:	dc 01       	movw	r26, r24
    63c2:	8c 91       	ld	r24, X
    63c4:	82 35       	cpi	r24, 0x52	; 82
    63c6:	09 f0       	breq	.+2      	; 0x63ca <m2m_ip_cb+0x6bc>
    63c8:	5a c0       	rjmp	.+180    	; 0x647e <m2m_ip_cb+0x770>
    63ca:	ae 01       	movw	r20, r28
    63cc:	44 59       	subi	r20, 0x94	; 148
    63ce:	5f 4f       	sbci	r21, 0xFF	; 255
    63d0:	ce 01       	movw	r24, r28
    63d2:	89 53       	subi	r24, 0x39	; 57
    63d4:	9f 4f       	sbci	r25, 0xFF	; 255
    63d6:	fc 01       	movw	r30, r24
    63d8:	80 81       	ld	r24, Z
    63da:	91 81       	ldd	r25, Z+1	; 0x01
    63dc:	a2 81       	ldd	r26, Z+2	; 0x02
    63de:	b3 81       	ldd	r27, Z+3	; 0x03
    63e0:	01 e0       	ldi	r16, 0x01	; 1
    63e2:	24 e1       	ldi	r18, 0x14	; 20
    63e4:	30 e0       	ldi	r19, 0x00	; 0
    63e6:	bc 01       	movw	r22, r24
    63e8:	cd 01       	movw	r24, r26
    63ea:	0e 94 0a 17 	call	0x2e14	; 0x2e14 <hif_receive>
    63ee:	88 23       	and	r24, r24
    63f0:	09 f0       	breq	.+2      	; 0x63f4 <m2m_ip_cb+0x6e6>
    63f2:	45 c0       	rjmp	.+138    	; 0x647e <m2m_ip_cb+0x770>
    63f4:	ce 01       	movw	r24, r28
    63f6:	84 59       	subi	r24, 0x94	; 148
    63f8:	9f 4f       	sbci	r25, 0xFF	; 255
    63fa:	fc 01       	movw	r30, r24
    63fc:	84 81       	ldd	r24, Z+4	; 0x04
    63fe:	95 81       	ldd	r25, Z+5	; 0x05
    6400:	a6 81       	ldd	r26, Z+6	; 0x06
    6402:	b7 81       	ldd	r27, Z+7	; 0x07
    6404:	80 93 23 2f 	sts	0x2F23, r24	; 0x802f23 <gfpPingCb>
    6408:	90 93 24 2f 	sts	0x2F24, r25	; 0x802f24 <gfpPingCb+0x1>
    640c:	80 91 23 2f 	lds	r24, 0x2F23	; 0x802f23 <gfpPingCb>
    6410:	90 91 24 2f 	lds	r25, 0x2F24	; 0x802f24 <gfpPingCb+0x1>
    6414:	89 2b       	or	r24, r25
    6416:	99 f1       	breq	.+102    	; 0x647e <m2m_ip_cb+0x770>
    6418:	a0 91 23 2f 	lds	r26, 0x2F23	; 0x802f23 <gfpPingCb>
    641c:	b0 91 24 2f 	lds	r27, 0x2F24	; 0x802f24 <gfpPingCb+0x1>
    6420:	c5 53       	subi	r28, 0x35	; 53
    6422:	df 4f       	sbci	r29, 0xFF	; 255
    6424:	a8 83       	st	Y, r26
    6426:	b9 83       	std	Y+1, r27	; 0x01
    6428:	cb 5c       	subi	r28, 0xCB	; 203
    642a:	d0 40       	sbci	r29, 0x00	; 0
    642c:	ce 01       	movw	r24, r28
    642e:	84 59       	subi	r24, 0x94	; 148
    6430:	9f 4f       	sbci	r25, 0xFF	; 255
    6432:	fc 01       	movw	r30, r24
    6434:	60 89       	ldd	r22, Z+16	; 0x10
    6436:	ce 01       	movw	r24, r28
    6438:	84 59       	subi	r24, 0x94	; 148
    643a:	9f 4f       	sbci	r25, 0xFF	; 255
    643c:	dc 01       	movw	r26, r24
    643e:	18 96       	adiw	r26, 0x08	; 8
    6440:	2d 91       	ld	r18, X+
    6442:	3d 91       	ld	r19, X+
    6444:	4d 91       	ld	r20, X+
    6446:	5c 91       	ld	r21, X
    6448:	1b 97       	sbiw	r26, 0x0b	; 11
    644a:	ce 01       	movw	r24, r28
    644c:	84 59       	subi	r24, 0x94	; 148
    644e:	9f 4f       	sbci	r25, 0xFF	; 255
    6450:	fc 01       	movw	r30, r24
    6452:	80 81       	ld	r24, Z
    6454:	91 81       	ldd	r25, Z+1	; 0x01
    6456:	a2 81       	ldd	r26, Z+2	; 0x02
    6458:	b3 81       	ldd	r27, Z+3	; 0x03
    645a:	06 2f       	mov	r16, r22
    645c:	bc 01       	movw	r22, r24
    645e:	cd 01       	movw	r24, r26
    6460:	c5 53       	subi	r28, 0x35	; 53
    6462:	df 4f       	sbci	r29, 0xFF	; 255
    6464:	e8 81       	ld	r30, Y
    6466:	f9 81       	ldd	r31, Y+1	; 0x01
    6468:	cb 5c       	subi	r28, 0xCB	; 203
    646a:	d0 40       	sbci	r29, 0x00	; 0
    646c:	09 95       	icall
    646e:	07 c0       	rjmp	.+14     	; 0x647e <m2m_ip_cb+0x770>
    6470:	00 00       	nop
    6472:	05 c0       	rjmp	.+10     	; 0x647e <m2m_ip_cb+0x770>
    6474:	00 00       	nop
    6476:	03 c0       	rjmp	.+6      	; 0x647e <m2m_ip_cb+0x770>
    6478:	00 00       	nop
    647a:	01 c0       	rjmp	.+2      	; 0x647e <m2m_ip_cb+0x770>
    647c:	00 00       	nop
    647e:	00 00       	nop
    6480:	c4 53       	subi	r28, 0x34	; 52
    6482:	df 4f       	sbci	r29, 0xFF	; 255
    6484:	cd bf       	out	0x3d, r28	; 61
    6486:	de bf       	out	0x3e, r29	; 62
    6488:	df 91       	pop	r29
    648a:	cf 91       	pop	r28
    648c:	1f 91       	pop	r17
    648e:	0f 91       	pop	r16
    6490:	ff 90       	pop	r15
    6492:	ef 90       	pop	r14
    6494:	08 95       	ret

00006496 <socketInit>:
    6496:	cf 93       	push	r28
    6498:	df 93       	push	r29
    649a:	cd b7       	in	r28, 0x3d	; 61
    649c:	de b7       	in	r29, 0x3e	; 62
    649e:	80 91 14 2e 	lds	r24, 0x2E14	; 0x802e14 <gbSocketInit>
    64a2:	88 23       	and	r24, r24
    64a4:	a9 f4       	brne	.+42     	; 0x64d0 <socketInit+0x3a>
    64a6:	29 e7       	ldi	r18, 0x79	; 121
    64a8:	30 e0       	ldi	r19, 0x00	; 0
    64aa:	40 e0       	ldi	r20, 0x00	; 0
    64ac:	50 e0       	ldi	r21, 0x00	; 0
    64ae:	60 e0       	ldi	r22, 0x00	; 0
    64b0:	88 ea       	ldi	r24, 0xA8	; 168
    64b2:	9e e2       	ldi	r25, 0x2E	; 46
    64b4:	0e 94 35 12 	call	0x246a	; 0x246a <m2m_memset>
    64b8:	67 e8       	ldi	r22, 0x87	; 135
    64ba:	7e e2       	ldi	r23, 0x2E	; 46
    64bc:	82 e0       	ldi	r24, 0x02	; 2
    64be:	0e 94 d7 17 	call	0x2fae	; 0x2fae <hif_register_cb>
    64c2:	81 e0       	ldi	r24, 0x01	; 1
    64c4:	80 93 14 2e 	sts	0x2E14, r24	; 0x802e14 <gbSocketInit>
    64c8:	10 92 12 2e 	sts	0x2E12, r1	; 0x802e12 <gu16SessionID>
    64cc:	10 92 13 2e 	sts	0x2E13, r1	; 0x802e13 <gu16SessionID+0x1>
    64d0:	00 00       	nop
    64d2:	df 91       	pop	r29
    64d4:	cf 91       	pop	r28
    64d6:	08 95       	ret

000064d8 <registerSocketCallback>:
    64d8:	cf 93       	push	r28
    64da:	df 93       	push	r29
    64dc:	00 d0       	rcall	.+0      	; 0x64de <registerSocketCallback+0x6>
    64de:	00 d0       	rcall	.+0      	; 0x64e0 <registerSocketCallback+0x8>
    64e0:	cd b7       	in	r28, 0x3d	; 61
    64e2:	de b7       	in	r29, 0x3e	; 62
    64e4:	89 83       	std	Y+1, r24	; 0x01
    64e6:	9a 83       	std	Y+2, r25	; 0x02
    64e8:	6b 83       	std	Y+3, r22	; 0x03
    64ea:	7c 83       	std	Y+4, r23	; 0x04
    64ec:	89 81       	ldd	r24, Y+1	; 0x01
    64ee:	9a 81       	ldd	r25, Y+2	; 0x02
    64f0:	80 93 21 2f 	sts	0x2F21, r24	; 0x802f21 <gpfAppSocketCb>
    64f4:	90 93 22 2f 	sts	0x2F22, r25	; 0x802f22 <gpfAppSocketCb+0x1>
    64f8:	8b 81       	ldd	r24, Y+3	; 0x03
    64fa:	9c 81       	ldd	r25, Y+4	; 0x04
    64fc:	80 93 25 2f 	sts	0x2F25, r24	; 0x802f25 <gpfAppResolveCb>
    6500:	90 93 26 2f 	sts	0x2F26, r25	; 0x802f26 <gpfAppResolveCb+0x1>
    6504:	00 00       	nop
    6506:	24 96       	adiw	r28, 0x04	; 4
    6508:	cd bf       	out	0x3d, r28	; 61
    650a:	de bf       	out	0x3e, r29	; 62
    650c:	df 91       	pop	r29
    650e:	cf 91       	pop	r28
    6510:	08 95       	ret

00006512 <socket>:
    6512:	cf 92       	push	r12
    6514:	df 92       	push	r13
    6516:	ef 92       	push	r14
    6518:	ff 92       	push	r15
    651a:	0f 93       	push	r16
    651c:	1f 93       	push	r17
    651e:	cf 93       	push	r28
    6520:	df 93       	push	r29
    6522:	cd b7       	in	r28, 0x3d	; 61
    6524:	de b7       	in	r29, 0x3e	; 62
    6526:	2f 97       	sbiw	r28, 0x0f	; 15
    6528:	cd bf       	out	0x3d, r28	; 61
    652a:	de bf       	out	0x3e, r29	; 62
    652c:	8c 87       	std	Y+12, r24	; 0x0c
    652e:	9d 87       	std	Y+13, r25	; 0x0d
    6530:	6e 87       	std	Y+14, r22	; 0x0e
    6532:	4f 87       	std	Y+15, r20	; 0x0f
    6534:	8f ef       	ldi	r24, 0xFF	; 255
    6536:	89 83       	std	Y+1, r24	; 0x01
    6538:	8c 85       	ldd	r24, Y+12	; 0x0c
    653a:	9d 85       	ldd	r25, Y+13	; 0x0d
    653c:	02 97       	sbiw	r24, 0x02	; 2
    653e:	09 f0       	breq	.+2      	; 0x6542 <socket+0x30>
    6540:	bd c0       	rjmp	.+378    	; 0x66bc <socket+0x1aa>
    6542:	8e 85       	ldd	r24, Y+14	; 0x0e
    6544:	81 30       	cpi	r24, 0x01	; 1
    6546:	79 f5       	brne	.+94     	; 0x65a6 <socket+0x94>
    6548:	1a 82       	std	Y+2, r1	; 0x02
    654a:	29 c0       	rjmp	.+82     	; 0x659e <socket+0x8c>
    654c:	80 91 15 2e 	lds	r24, 0x2E15	; 0x802e15 <u8NextTcpSock.2561>
    6550:	8d 83       	std	Y+5, r24	; 0x05
    6552:	80 91 15 2e 	lds	r24, 0x2E15	; 0x802e15 <u8NextTcpSock.2561>
    6556:	28 2f       	mov	r18, r24
    6558:	30 e0       	ldi	r19, 0x00	; 0
    655a:	4b e0       	ldi	r20, 0x0B	; 11
    655c:	42 9f       	mul	r20, r18
    655e:	c0 01       	movw	r24, r0
    6560:	43 9f       	mul	r20, r19
    6562:	90 0d       	add	r25, r0
    6564:	11 24       	eor	r1, r1
    6566:	88 55       	subi	r24, 0x58	; 88
    6568:	91 4d       	sbci	r25, 0xD1	; 209
    656a:	8b 83       	std	Y+3, r24	; 0x03
    656c:	9c 83       	std	Y+4, r25	; 0x04
    656e:	80 91 15 2e 	lds	r24, 0x2E15	; 0x802e15 <u8NextTcpSock.2561>
    6572:	88 2f       	mov	r24, r24
    6574:	90 e0       	ldi	r25, 0x00	; 0
    6576:	01 96       	adiw	r24, 0x01	; 1
    6578:	27 e0       	ldi	r18, 0x07	; 7
    657a:	30 e0       	ldi	r19, 0x00	; 0
    657c:	b9 01       	movw	r22, r18
    657e:	0e 94 fc 38 	call	0x71f8	; 0x71f8 <__divmodhi4>
    6582:	80 93 15 2e 	sts	0x2E15, r24	; 0x802e15 <u8NextTcpSock.2561>
    6586:	8b 81       	ldd	r24, Y+3	; 0x03
    6588:	9c 81       	ldd	r25, Y+4	; 0x04
    658a:	fc 01       	movw	r30, r24
    658c:	80 85       	ldd	r24, Z+8	; 0x08
    658e:	88 23       	and	r24, r24
    6590:	19 f4       	brne	.+6      	; 0x6598 <socket+0x86>
    6592:	8d 81       	ldd	r24, Y+5	; 0x05
    6594:	89 83       	std	Y+1, r24	; 0x01
    6596:	42 c0       	rjmp	.+132    	; 0x661c <socket+0x10a>
    6598:	8a 81       	ldd	r24, Y+2	; 0x02
    659a:	8f 5f       	subi	r24, 0xFF	; 255
    659c:	8a 83       	std	Y+2, r24	; 0x02
    659e:	8a 81       	ldd	r24, Y+2	; 0x02
    65a0:	87 30       	cpi	r24, 0x07	; 7
    65a2:	a0 f2       	brcs	.-88     	; 0x654c <socket+0x3a>
    65a4:	3b c0       	rjmp	.+118    	; 0x661c <socket+0x10a>
    65a6:	8e 85       	ldd	r24, Y+14	; 0x0e
    65a8:	82 30       	cpi	r24, 0x02	; 2
    65aa:	c1 f5       	brne	.+112    	; 0x661c <socket+0x10a>
    65ac:	85 ef       	ldi	r24, 0xF5	; 245
    65ae:	9e e2       	ldi	r25, 0x2E	; 46
    65b0:	8e 83       	std	Y+6, r24	; 0x06
    65b2:	9f 83       	std	Y+7, r25	; 0x07
    65b4:	1a 82       	std	Y+2, r1	; 0x02
    65b6:	2f c0       	rjmp	.+94     	; 0x6616 <socket+0x104>
    65b8:	80 91 16 2e 	lds	r24, 0x2E16	; 0x802e16 <u8NextUdpSock.2562>
    65bc:	8d 83       	std	Y+5, r24	; 0x05
    65be:	80 91 16 2e 	lds	r24, 0x2E16	; 0x802e16 <u8NextUdpSock.2562>
    65c2:	28 2f       	mov	r18, r24
    65c4:	30 e0       	ldi	r19, 0x00	; 0
    65c6:	4b e0       	ldi	r20, 0x0B	; 11
    65c8:	42 9f       	mul	r20, r18
    65ca:	c0 01       	movw	r24, r0
    65cc:	43 9f       	mul	r20, r19
    65ce:	90 0d       	add	r25, r0
    65d0:	11 24       	eor	r1, r1
    65d2:	2e 81       	ldd	r18, Y+6	; 0x06
    65d4:	3f 81       	ldd	r19, Y+7	; 0x07
    65d6:	82 0f       	add	r24, r18
    65d8:	93 1f       	adc	r25, r19
    65da:	8b 83       	std	Y+3, r24	; 0x03
    65dc:	9c 83       	std	Y+4, r25	; 0x04
    65de:	80 91 16 2e 	lds	r24, 0x2E16	; 0x802e16 <u8NextUdpSock.2562>
    65e2:	88 2f       	mov	r24, r24
    65e4:	90 e0       	ldi	r25, 0x00	; 0
    65e6:	01 96       	adiw	r24, 0x01	; 1
    65e8:	83 70       	andi	r24, 0x03	; 3
    65ea:	90 78       	andi	r25, 0x80	; 128
    65ec:	99 23       	and	r25, r25
    65ee:	24 f4       	brge	.+8      	; 0x65f8 <socket+0xe6>
    65f0:	01 97       	sbiw	r24, 0x01	; 1
    65f2:	8c 6f       	ori	r24, 0xFC	; 252
    65f4:	9f 6f       	ori	r25, 0xFF	; 255
    65f6:	01 96       	adiw	r24, 0x01	; 1
    65f8:	80 93 16 2e 	sts	0x2E16, r24	; 0x802e16 <u8NextUdpSock.2562>
    65fc:	8b 81       	ldd	r24, Y+3	; 0x03
    65fe:	9c 81       	ldd	r25, Y+4	; 0x04
    6600:	fc 01       	movw	r30, r24
    6602:	80 85       	ldd	r24, Z+8	; 0x08
    6604:	88 23       	and	r24, r24
    6606:	21 f4       	brne	.+8      	; 0x6610 <socket+0xfe>
    6608:	8d 81       	ldd	r24, Y+5	; 0x05
    660a:	89 5f       	subi	r24, 0xF9	; 249
    660c:	89 83       	std	Y+1, r24	; 0x01
    660e:	06 c0       	rjmp	.+12     	; 0x661c <socket+0x10a>
    6610:	8a 81       	ldd	r24, Y+2	; 0x02
    6612:	8f 5f       	subi	r24, 0xFF	; 255
    6614:	8a 83       	std	Y+2, r24	; 0x02
    6616:	8a 81       	ldd	r24, Y+2	; 0x02
    6618:	84 30       	cpi	r24, 0x04	; 4
    661a:	70 f2       	brcs	.-100    	; 0x65b8 <socket+0xa6>
    661c:	89 81       	ldd	r24, Y+1	; 0x01
    661e:	88 23       	and	r24, r24
    6620:	0c f4       	brge	.+2      	; 0x6624 <socket+0x112>
    6622:	4c c0       	rjmp	.+152    	; 0x66bc <socket+0x1aa>
    6624:	8b 81       	ldd	r24, Y+3	; 0x03
    6626:	9c 81       	ldd	r25, Y+4	; 0x04
    6628:	2b e0       	ldi	r18, 0x0B	; 11
    662a:	30 e0       	ldi	r19, 0x00	; 0
    662c:	40 e0       	ldi	r20, 0x00	; 0
    662e:	50 e0       	ldi	r21, 0x00	; 0
    6630:	60 e0       	ldi	r22, 0x00	; 0
    6632:	0e 94 35 12 	call	0x246a	; 0x246a <m2m_memset>
    6636:	8b 81       	ldd	r24, Y+3	; 0x03
    6638:	9c 81       	ldd	r25, Y+4	; 0x04
    663a:	21 e0       	ldi	r18, 0x01	; 1
    663c:	fc 01       	movw	r30, r24
    663e:	20 87       	std	Z+8, r18	; 0x08
    6640:	80 91 12 2e 	lds	r24, 0x2E12	; 0x802e12 <gu16SessionID>
    6644:	90 91 13 2e 	lds	r25, 0x2E13	; 0x802e13 <gu16SessionID+0x1>
    6648:	01 96       	adiw	r24, 0x01	; 1
    664a:	80 93 12 2e 	sts	0x2E12, r24	; 0x802e12 <gu16SessionID>
    664e:	90 93 13 2e 	sts	0x2E13, r25	; 0x802e13 <gu16SessionID+0x1>
    6652:	80 91 12 2e 	lds	r24, 0x2E12	; 0x802e12 <gu16SessionID>
    6656:	90 91 13 2e 	lds	r25, 0x2E13	; 0x802e13 <gu16SessionID+0x1>
    665a:	89 2b       	or	r24, r25
    665c:	49 f4       	brne	.+18     	; 0x6670 <socket+0x15e>
    665e:	80 91 12 2e 	lds	r24, 0x2E12	; 0x802e12 <gu16SessionID>
    6662:	90 91 13 2e 	lds	r25, 0x2E13	; 0x802e13 <gu16SessionID+0x1>
    6666:	01 96       	adiw	r24, 0x01	; 1
    6668:	80 93 12 2e 	sts	0x2E12, r24	; 0x802e12 <gu16SessionID>
    666c:	90 93 13 2e 	sts	0x2E13, r25	; 0x802e13 <gu16SessionID+0x1>
    6670:	20 91 12 2e 	lds	r18, 0x2E12	; 0x802e12 <gu16SessionID>
    6674:	30 91 13 2e 	lds	r19, 0x2E13	; 0x802e13 <gu16SessionID+0x1>
    6678:	8b 81       	ldd	r24, Y+3	; 0x03
    667a:	9c 81       	ldd	r25, Y+4	; 0x04
    667c:	fc 01       	movw	r30, r24
    667e:	24 83       	std	Z+4, r18	; 0x04
    6680:	35 83       	std	Z+5, r19	; 0x05
    6682:	8f 85       	ldd	r24, Y+15	; 0x0f
    6684:	88 2f       	mov	r24, r24
    6686:	90 e0       	ldi	r25, 0x00	; 0
    6688:	81 70       	andi	r24, 0x01	; 1
    668a:	99 27       	eor	r25, r25
    668c:	89 2b       	or	r24, r25
    668e:	b1 f0       	breq	.+44     	; 0x66bc <socket+0x1aa>
    6690:	89 81       	ldd	r24, Y+1	; 0x01
    6692:	88 87       	std	Y+8, r24	; 0x08
    6694:	8b 81       	ldd	r24, Y+3	; 0x03
    6696:	9c 81       	ldd	r25, Y+4	; 0x04
    6698:	21 e2       	ldi	r18, 0x21	; 33
    669a:	fc 01       	movw	r30, r24
    669c:	21 87       	std	Z+9, r18	; 0x09
    669e:	ce 01       	movw	r24, r28
    66a0:	08 96       	adiw	r24, 0x08	; 8
    66a2:	c1 2c       	mov	r12, r1
    66a4:	d1 2c       	mov	r13, r1
    66a6:	e1 2c       	mov	r14, r1
    66a8:	f1 2c       	mov	r15, r1
    66aa:	00 e0       	ldi	r16, 0x00	; 0
    66ac:	10 e0       	ldi	r17, 0x00	; 0
    66ae:	24 e0       	ldi	r18, 0x04	; 4
    66b0:	30 e0       	ldi	r19, 0x00	; 0
    66b2:	ac 01       	movw	r20, r24
    66b4:	60 e5       	ldi	r22, 0x50	; 80
    66b6:	82 e0       	ldi	r24, 0x02	; 2
    66b8:	0e 94 63 13 	call	0x26c6	; 0x26c6 <hif_send>
    66bc:	89 81       	ldd	r24, Y+1	; 0x01
    66be:	2f 96       	adiw	r28, 0x0f	; 15
    66c0:	cd bf       	out	0x3d, r28	; 61
    66c2:	de bf       	out	0x3e, r29	; 62
    66c4:	df 91       	pop	r29
    66c6:	cf 91       	pop	r28
    66c8:	1f 91       	pop	r17
    66ca:	0f 91       	pop	r16
    66cc:	ff 90       	pop	r15
    66ce:	ef 90       	pop	r14
    66d0:	df 90       	pop	r13
    66d2:	cf 90       	pop	r12
    66d4:	08 95       	ret

000066d6 <bind>:
    66d6:	cf 92       	push	r12
    66d8:	df 92       	push	r13
    66da:	ef 92       	push	r14
    66dc:	ff 92       	push	r15
    66de:	0f 93       	push	r16
    66e0:	1f 93       	push	r17
    66e2:	cf 93       	push	r28
    66e4:	df 93       	push	r29
    66e6:	cd b7       	in	r28, 0x3d	; 61
    66e8:	de b7       	in	r29, 0x3e	; 62
    66ea:	62 97       	sbiw	r28, 0x12	; 18
    66ec:	cd bf       	out	0x3d, r28	; 61
    66ee:	de bf       	out	0x3e, r29	; 62
    66f0:	8f 87       	std	Y+15, r24	; 0x0f
    66f2:	68 8b       	std	Y+16, r22	; 0x10
    66f4:	79 8b       	std	Y+17, r23	; 0x11
    66f6:	4a 8b       	std	Y+18, r20	; 0x12
    66f8:	8a ef       	ldi	r24, 0xFA	; 250
    66fa:	89 83       	std	Y+1, r24	; 0x01
    66fc:	88 89       	ldd	r24, Y+16	; 0x10
    66fe:	99 89       	ldd	r25, Y+17	; 0x11
    6700:	89 2b       	or	r24, r25
    6702:	09 f4       	brne	.+2      	; 0x6706 <bind+0x30>
    6704:	63 c0       	rjmp	.+198    	; 0x67cc <bind+0xf6>
    6706:	8f 85       	ldd	r24, Y+15	; 0x0f
    6708:	88 23       	and	r24, r24
    670a:	0c f4       	brge	.+2      	; 0x670e <bind+0x38>
    670c:	5f c0       	rjmp	.+190    	; 0x67cc <bind+0xf6>
    670e:	8f 85       	ldd	r24, Y+15	; 0x0f
    6710:	28 2f       	mov	r18, r24
    6712:	88 0f       	add	r24, r24
    6714:	33 0b       	sbc	r19, r19
    6716:	4b e0       	ldi	r20, 0x0B	; 11
    6718:	42 9f       	mul	r20, r18
    671a:	c0 01       	movw	r24, r0
    671c:	43 9f       	mul	r20, r19
    671e:	90 0d       	add	r25, r0
    6720:	11 24       	eor	r1, r1
    6722:	80 55       	subi	r24, 0x50	; 80
    6724:	91 4d       	sbci	r25, 0xD1	; 209
    6726:	fc 01       	movw	r30, r24
    6728:	80 81       	ld	r24, Z
    672a:	81 30       	cpi	r24, 0x01	; 1
    672c:	09 f0       	breq	.+2      	; 0x6730 <bind+0x5a>
    672e:	4e c0       	rjmp	.+156    	; 0x67cc <bind+0xf6>
    6730:	8a 89       	ldd	r24, Y+18	; 0x12
    6732:	88 23       	and	r24, r24
    6734:	09 f4       	brne	.+2      	; 0x6738 <bind+0x62>
    6736:	4a c0       	rjmp	.+148    	; 0x67cc <bind+0xf6>
    6738:	81 e4       	ldi	r24, 0x41	; 65
    673a:	8a 83       	std	Y+2, r24	; 0x02
    673c:	8f 85       	ldd	r24, Y+15	; 0x0f
    673e:	28 2f       	mov	r18, r24
    6740:	88 0f       	add	r24, r24
    6742:	33 0b       	sbc	r19, r19
    6744:	4b e0       	ldi	r20, 0x0B	; 11
    6746:	42 9f       	mul	r20, r18
    6748:	c0 01       	movw	r24, r0
    674a:	43 9f       	mul	r20, r19
    674c:	90 0d       	add	r25, r0
    674e:	11 24       	eor	r1, r1
    6750:	8f 54       	subi	r24, 0x4F	; 79
    6752:	91 4d       	sbci	r25, 0xD1	; 209
    6754:	fc 01       	movw	r30, r24
    6756:	80 81       	ld	r24, Z
    6758:	88 2f       	mov	r24, r24
    675a:	90 e0       	ldi	r25, 0x00	; 0
    675c:	81 70       	andi	r24, 0x01	; 1
    675e:	99 27       	eor	r25, r25
    6760:	89 2b       	or	r24, r25
    6762:	11 f0       	breq	.+4      	; 0x6768 <bind+0x92>
    6764:	84 e5       	ldi	r24, 0x54	; 84
    6766:	8a 83       	std	Y+2, r24	; 0x02
    6768:	8f 85       	ldd	r24, Y+15	; 0x0f
    676a:	8b 87       	std	Y+11, r24	; 0x0b
    676c:	68 89       	ldd	r22, Y+16	; 0x10
    676e:	79 89       	ldd	r23, Y+17	; 0x11
    6770:	ce 01       	movw	r24, r28
    6772:	03 96       	adiw	r24, 0x03	; 3
    6774:	28 e0       	ldi	r18, 0x08	; 8
    6776:	30 e0       	ldi	r19, 0x00	; 0
    6778:	40 e0       	ldi	r20, 0x00	; 0
    677a:	50 e0       	ldi	r21, 0x00	; 0
    677c:	0e 94 f1 11 	call	0x23e2	; 0x23e2 <m2m_memcpy>
    6780:	8f 85       	ldd	r24, Y+15	; 0x0f
    6782:	28 2f       	mov	r18, r24
    6784:	88 0f       	add	r24, r24
    6786:	33 0b       	sbc	r19, r19
    6788:	4b e0       	ldi	r20, 0x0B	; 11
    678a:	42 9f       	mul	r20, r18
    678c:	c0 01       	movw	r24, r0
    678e:	43 9f       	mul	r20, r19
    6790:	90 0d       	add	r25, r0
    6792:	11 24       	eor	r1, r1
    6794:	84 55       	subi	r24, 0x54	; 84
    6796:	91 4d       	sbci	r25, 0xD1	; 209
    6798:	fc 01       	movw	r30, r24
    679a:	80 81       	ld	r24, Z
    679c:	91 81       	ldd	r25, Z+1	; 0x01
    679e:	8d 87       	std	Y+13, r24	; 0x0d
    67a0:	9e 87       	std	Y+14, r25	; 0x0e
    67a2:	ce 01       	movw	r24, r28
    67a4:	03 96       	adiw	r24, 0x03	; 3
    67a6:	c1 2c       	mov	r12, r1
    67a8:	d1 2c       	mov	r13, r1
    67aa:	e1 2c       	mov	r14, r1
    67ac:	f1 2c       	mov	r15, r1
    67ae:	00 e0       	ldi	r16, 0x00	; 0
    67b0:	10 e0       	ldi	r17, 0x00	; 0
    67b2:	2c e0       	ldi	r18, 0x0C	; 12
    67b4:	30 e0       	ldi	r19, 0x00	; 0
    67b6:	ac 01       	movw	r20, r24
    67b8:	6a 81       	ldd	r22, Y+2	; 0x02
    67ba:	82 e0       	ldi	r24, 0x02	; 2
    67bc:	0e 94 63 13 	call	0x26c6	; 0x26c6 <hif_send>
    67c0:	89 83       	std	Y+1, r24	; 0x01
    67c2:	89 81       	ldd	r24, Y+1	; 0x01
    67c4:	88 23       	and	r24, r24
    67c6:	11 f0       	breq	.+4      	; 0x67cc <bind+0xf6>
    67c8:	87 ef       	ldi	r24, 0xF7	; 247
    67ca:	89 83       	std	Y+1, r24	; 0x01
    67cc:	89 81       	ldd	r24, Y+1	; 0x01
    67ce:	62 96       	adiw	r28, 0x12	; 18
    67d0:	cd bf       	out	0x3d, r28	; 61
    67d2:	de bf       	out	0x3e, r29	; 62
    67d4:	df 91       	pop	r29
    67d6:	cf 91       	pop	r28
    67d8:	1f 91       	pop	r17
    67da:	0f 91       	pop	r16
    67dc:	ff 90       	pop	r15
    67de:	ef 90       	pop	r14
    67e0:	df 90       	pop	r13
    67e2:	cf 90       	pop	r12
    67e4:	08 95       	ret

000067e6 <listen>:
    67e6:	cf 92       	push	r12
    67e8:	df 92       	push	r13
    67ea:	ef 92       	push	r14
    67ec:	ff 92       	push	r15
    67ee:	0f 93       	push	r16
    67f0:	1f 93       	push	r17
    67f2:	cf 93       	push	r28
    67f4:	df 93       	push	r29
    67f6:	cd b7       	in	r28, 0x3d	; 61
    67f8:	de b7       	in	r29, 0x3e	; 62
    67fa:	27 97       	sbiw	r28, 0x07	; 7
    67fc:	cd bf       	out	0x3d, r28	; 61
    67fe:	de bf       	out	0x3e, r29	; 62
    6800:	8e 83       	std	Y+6, r24	; 0x06
    6802:	6f 83       	std	Y+7, r22	; 0x07
    6804:	8a ef       	ldi	r24, 0xFA	; 250
    6806:	89 83       	std	Y+1, r24	; 0x01
    6808:	8e 81       	ldd	r24, Y+6	; 0x06
    680a:	88 23       	and	r24, r24
    680c:	d4 f1       	brlt	.+116    	; 0x6882 <listen+0x9c>
    680e:	8e 81       	ldd	r24, Y+6	; 0x06
    6810:	28 2f       	mov	r18, r24
    6812:	88 0f       	add	r24, r24
    6814:	33 0b       	sbc	r19, r19
    6816:	4b e0       	ldi	r20, 0x0B	; 11
    6818:	42 9f       	mul	r20, r18
    681a:	c0 01       	movw	r24, r0
    681c:	43 9f       	mul	r20, r19
    681e:	90 0d       	add	r25, r0
    6820:	11 24       	eor	r1, r1
    6822:	80 55       	subi	r24, 0x50	; 80
    6824:	91 4d       	sbci	r25, 0xD1	; 209
    6826:	fc 01       	movw	r30, r24
    6828:	80 81       	ld	r24, Z
    682a:	81 30       	cpi	r24, 0x01	; 1
    682c:	51 f5       	brne	.+84     	; 0x6882 <listen+0x9c>
    682e:	8e 81       	ldd	r24, Y+6	; 0x06
    6830:	8a 83       	std	Y+2, r24	; 0x02
    6832:	8f 81       	ldd	r24, Y+7	; 0x07
    6834:	8b 83       	std	Y+3, r24	; 0x03
    6836:	8e 81       	ldd	r24, Y+6	; 0x06
    6838:	28 2f       	mov	r18, r24
    683a:	88 0f       	add	r24, r24
    683c:	33 0b       	sbc	r19, r19
    683e:	4b e0       	ldi	r20, 0x0B	; 11
    6840:	42 9f       	mul	r20, r18
    6842:	c0 01       	movw	r24, r0
    6844:	43 9f       	mul	r20, r19
    6846:	90 0d       	add	r25, r0
    6848:	11 24       	eor	r1, r1
    684a:	84 55       	subi	r24, 0x54	; 84
    684c:	91 4d       	sbci	r25, 0xD1	; 209
    684e:	fc 01       	movw	r30, r24
    6850:	80 81       	ld	r24, Z
    6852:	91 81       	ldd	r25, Z+1	; 0x01
    6854:	8c 83       	std	Y+4, r24	; 0x04
    6856:	9d 83       	std	Y+5, r25	; 0x05
    6858:	ce 01       	movw	r24, r28
    685a:	02 96       	adiw	r24, 0x02	; 2
    685c:	c1 2c       	mov	r12, r1
    685e:	d1 2c       	mov	r13, r1
    6860:	e1 2c       	mov	r14, r1
    6862:	f1 2c       	mov	r15, r1
    6864:	00 e0       	ldi	r16, 0x00	; 0
    6866:	10 e0       	ldi	r17, 0x00	; 0
    6868:	24 e0       	ldi	r18, 0x04	; 4
    686a:	30 e0       	ldi	r19, 0x00	; 0
    686c:	ac 01       	movw	r20, r24
    686e:	62 e4       	ldi	r22, 0x42	; 66
    6870:	82 e0       	ldi	r24, 0x02	; 2
    6872:	0e 94 63 13 	call	0x26c6	; 0x26c6 <hif_send>
    6876:	89 83       	std	Y+1, r24	; 0x01
    6878:	89 81       	ldd	r24, Y+1	; 0x01
    687a:	88 23       	and	r24, r24
    687c:	11 f0       	breq	.+4      	; 0x6882 <listen+0x9c>
    687e:	87 ef       	ldi	r24, 0xF7	; 247
    6880:	89 83       	std	Y+1, r24	; 0x01
    6882:	89 81       	ldd	r24, Y+1	; 0x01
    6884:	27 96       	adiw	r28, 0x07	; 7
    6886:	cd bf       	out	0x3d, r28	; 61
    6888:	de bf       	out	0x3e, r29	; 62
    688a:	df 91       	pop	r29
    688c:	cf 91       	pop	r28
    688e:	1f 91       	pop	r17
    6890:	0f 91       	pop	r16
    6892:	ff 90       	pop	r15
    6894:	ef 90       	pop	r14
    6896:	df 90       	pop	r13
    6898:	cf 90       	pop	r12
    689a:	08 95       	ret

0000689c <accept>:
    689c:	cf 93       	push	r28
    689e:	df 93       	push	r29
    68a0:	cd b7       	in	r28, 0x3d	; 61
    68a2:	de b7       	in	r29, 0x3e	; 62
    68a4:	26 97       	sbiw	r28, 0x06	; 6
    68a6:	cd bf       	out	0x3d, r28	; 61
    68a8:	de bf       	out	0x3e, r29	; 62
    68aa:	8a 83       	std	Y+2, r24	; 0x02
    68ac:	6b 83       	std	Y+3, r22	; 0x03
    68ae:	7c 83       	std	Y+4, r23	; 0x04
    68b0:	4d 83       	std	Y+5, r20	; 0x05
    68b2:	5e 83       	std	Y+6, r21	; 0x06
    68b4:	8a ef       	ldi	r24, 0xFA	; 250
    68b6:	89 83       	std	Y+1, r24	; 0x01
    68b8:	8a 81       	ldd	r24, Y+2	; 0x02
    68ba:	88 23       	and	r24, r24
    68bc:	8c f0       	brlt	.+34     	; 0x68e0 <accept+0x44>
    68be:	8a 81       	ldd	r24, Y+2	; 0x02
    68c0:	28 2f       	mov	r18, r24
    68c2:	88 0f       	add	r24, r24
    68c4:	33 0b       	sbc	r19, r19
    68c6:	4b e0       	ldi	r20, 0x0B	; 11
    68c8:	42 9f       	mul	r20, r18
    68ca:	c0 01       	movw	r24, r0
    68cc:	43 9f       	mul	r20, r19
    68ce:	90 0d       	add	r25, r0
    68d0:	11 24       	eor	r1, r1
    68d2:	80 55       	subi	r24, 0x50	; 80
    68d4:	91 4d       	sbci	r25, 0xD1	; 209
    68d6:	fc 01       	movw	r30, r24
    68d8:	80 81       	ld	r24, Z
    68da:	81 30       	cpi	r24, 0x01	; 1
    68dc:	09 f4       	brne	.+2      	; 0x68e0 <accept+0x44>
    68de:	19 82       	std	Y+1, r1	; 0x01
    68e0:	89 81       	ldd	r24, Y+1	; 0x01
    68e2:	26 96       	adiw	r28, 0x06	; 6
    68e4:	cd bf       	out	0x3d, r28	; 61
    68e6:	de bf       	out	0x3e, r29	; 62
    68e8:	df 91       	pop	r29
    68ea:	cf 91       	pop	r28
    68ec:	08 95       	ret

000068ee <send>:
    68ee:	cf 92       	push	r12
    68f0:	df 92       	push	r13
    68f2:	ef 92       	push	r14
    68f4:	ff 92       	push	r15
    68f6:	0f 93       	push	r16
    68f8:	1f 93       	push	r17
    68fa:	cf 93       	push	r28
    68fc:	df 93       	push	r29
    68fe:	cd b7       	in	r28, 0x3d	; 61
    6900:	de b7       	in	r29, 0x3e	; 62
    6902:	6c 97       	sbiw	r28, 0x1c	; 28
    6904:	cd bf       	out	0x3d, r28	; 61
    6906:	de bf       	out	0x3e, r29	; 62
    6908:	8e 8b       	std	Y+22, r24	; 0x16
    690a:	6f 8b       	std	Y+23, r22	; 0x17
    690c:	78 8f       	std	Y+24, r23	; 0x18
    690e:	49 8f       	std	Y+25, r20	; 0x19
    6910:	5a 8f       	std	Y+26, r21	; 0x1a
    6912:	2b 8f       	std	Y+27, r18	; 0x1b
    6914:	3c 8f       	std	Y+28, r19	; 0x1c
    6916:	8a ef       	ldi	r24, 0xFA	; 250
    6918:	9f ef       	ldi	r25, 0xFF	; 255
    691a:	89 83       	std	Y+1, r24	; 0x01
    691c:	9a 83       	std	Y+2, r25	; 0x02
    691e:	8e 89       	ldd	r24, Y+22	; 0x16
    6920:	88 23       	and	r24, r24
    6922:	0c f4       	brge	.+2      	; 0x6926 <send+0x38>
    6924:	89 c0       	rjmp	.+274    	; 0x6a38 <send+0x14a>
    6926:	8f 89       	ldd	r24, Y+23	; 0x17
    6928:	98 8d       	ldd	r25, Y+24	; 0x18
    692a:	89 2b       	or	r24, r25
    692c:	09 f4       	brne	.+2      	; 0x6930 <send+0x42>
    692e:	84 c0       	rjmp	.+264    	; 0x6a38 <send+0x14a>
    6930:	89 8d       	ldd	r24, Y+25	; 0x19
    6932:	9a 8d       	ldd	r25, Y+26	; 0x1a
    6934:	89 37       	cpi	r24, 0x79	; 121
    6936:	95 40       	sbci	r25, 0x05	; 5
    6938:	08 f0       	brcs	.+2      	; 0x693c <send+0x4e>
    693a:	7e c0       	rjmp	.+252    	; 0x6a38 <send+0x14a>
    693c:	8e 89       	ldd	r24, Y+22	; 0x16
    693e:	28 2f       	mov	r18, r24
    6940:	88 0f       	add	r24, r24
    6942:	33 0b       	sbc	r19, r19
    6944:	4b e0       	ldi	r20, 0x0B	; 11
    6946:	42 9f       	mul	r20, r18
    6948:	c0 01       	movw	r24, r0
    694a:	43 9f       	mul	r20, r19
    694c:	90 0d       	add	r25, r0
    694e:	11 24       	eor	r1, r1
    6950:	80 55       	subi	r24, 0x50	; 80
    6952:	91 4d       	sbci	r25, 0xD1	; 209
    6954:	fc 01       	movw	r30, r24
    6956:	80 81       	ld	r24, Z
    6958:	81 30       	cpi	r24, 0x01	; 1
    695a:	09 f0       	breq	.+2      	; 0x695e <send+0x70>
    695c:	6d c0       	rjmp	.+218    	; 0x6a38 <send+0x14a>
    695e:	85 e4       	ldi	r24, 0x45	; 69
    6960:	8d 83       	std	Y+5, r24	; 0x05
    6962:	80 e5       	ldi	r24, 0x50	; 80
    6964:	90 e0       	ldi	r25, 0x00	; 0
    6966:	8b 83       	std	Y+3, r24	; 0x03
    6968:	9c 83       	std	Y+4, r25	; 0x04
    696a:	8e 89       	ldd	r24, Y+22	; 0x16
    696c:	8e 83       	std	Y+6, r24	; 0x06
    696e:	89 8d       	ldd	r24, Y+25	; 0x19
    6970:	9a 8d       	ldd	r25, Y+26	; 0x1a
    6972:	88 87       	std	Y+8, r24	; 0x08
    6974:	99 87       	std	Y+9, r25	; 0x09
    6976:	8e 89       	ldd	r24, Y+22	; 0x16
    6978:	28 2f       	mov	r18, r24
    697a:	88 0f       	add	r24, r24
    697c:	33 0b       	sbc	r19, r19
    697e:	4b e0       	ldi	r20, 0x0B	; 11
    6980:	42 9f       	mul	r20, r18
    6982:	c0 01       	movw	r24, r0
    6984:	43 9f       	mul	r20, r19
    6986:	90 0d       	add	r25, r0
    6988:	11 24       	eor	r1, r1
    698a:	84 55       	subi	r24, 0x54	; 84
    698c:	91 4d       	sbci	r25, 0xD1	; 209
    698e:	fc 01       	movw	r30, r24
    6990:	80 81       	ld	r24, Z
    6992:	91 81       	ldd	r25, Z+1	; 0x01
    6994:	8a 8b       	std	Y+18, r24	; 0x12
    6996:	9b 8b       	std	Y+19, r25	; 0x13
    6998:	8e 89       	ldd	r24, Y+22	; 0x16
    699a:	87 30       	cpi	r24, 0x07	; 7
    699c:	24 f0       	brlt	.+8      	; 0x69a6 <send+0xb8>
    699e:	84 e4       	ldi	r24, 0x44	; 68
    69a0:	90 e0       	ldi	r25, 0x00	; 0
    69a2:	8b 83       	std	Y+3, r24	; 0x03
    69a4:	9c 83       	std	Y+4, r25	; 0x04
    69a6:	8e 89       	ldd	r24, Y+22	; 0x16
    69a8:	28 2f       	mov	r18, r24
    69aa:	88 0f       	add	r24, r24
    69ac:	33 0b       	sbc	r19, r19
    69ae:	4b e0       	ldi	r20, 0x0B	; 11
    69b0:	42 9f       	mul	r20, r18
    69b2:	c0 01       	movw	r24, r0
    69b4:	43 9f       	mul	r20, r19
    69b6:	90 0d       	add	r25, r0
    69b8:	11 24       	eor	r1, r1
    69ba:	8f 54       	subi	r24, 0x4F	; 79
    69bc:	91 4d       	sbci	r25, 0xD1	; 209
    69be:	fc 01       	movw	r30, r24
    69c0:	80 81       	ld	r24, Z
    69c2:	88 2f       	mov	r24, r24
    69c4:	90 e0       	ldi	r25, 0x00	; 0
    69c6:	81 70       	andi	r24, 0x01	; 1
    69c8:	99 27       	eor	r25, r25
    69ca:	89 2b       	or	r24, r25
    69cc:	99 f0       	breq	.+38     	; 0x69f4 <send+0x106>
    69ce:	8c e4       	ldi	r24, 0x4C	; 76
    69d0:	8d 83       	std	Y+5, r24	; 0x05
    69d2:	8e 89       	ldd	r24, Y+22	; 0x16
    69d4:	28 2f       	mov	r18, r24
    69d6:	88 0f       	add	r24, r24
    69d8:	33 0b       	sbc	r19, r19
    69da:	4b e0       	ldi	r20, 0x0B	; 11
    69dc:	42 9f       	mul	r20, r18
    69de:	c0 01       	movw	r24, r0
    69e0:	43 9f       	mul	r20, r19
    69e2:	90 0d       	add	r25, r0
    69e4:	11 24       	eor	r1, r1
    69e6:	82 55       	subi	r24, 0x52	; 82
    69e8:	91 4d       	sbci	r25, 0xD1	; 209
    69ea:	fc 01       	movw	r30, r24
    69ec:	80 81       	ld	r24, Z
    69ee:	91 81       	ldd	r25, Z+1	; 0x01
    69f0:	8b 83       	std	Y+3, r24	; 0x03
    69f2:	9c 83       	std	Y+4, r25	; 0x04
    69f4:	8d 81       	ldd	r24, Y+5	; 0x05
    69f6:	e8 2f       	mov	r30, r24
    69f8:	e0 68       	ori	r30, 0x80	; 128
    69fa:	6b 81       	ldd	r22, Y+3	; 0x03
    69fc:	7c 81       	ldd	r23, Y+4	; 0x04
    69fe:	49 8d       	ldd	r20, Y+25	; 0x19
    6a00:	5a 8d       	ldd	r21, Y+26	; 0x1a
    6a02:	2f 89       	ldd	r18, Y+23	; 0x17
    6a04:	38 8d       	ldd	r19, Y+24	; 0x18
    6a06:	ce 01       	movw	r24, r28
    6a08:	06 96       	adiw	r24, 0x06	; 6
    6a0a:	6b 01       	movw	r12, r22
    6a0c:	7a 01       	movw	r14, r20
    6a0e:	89 01       	movw	r16, r18
    6a10:	20 e1       	ldi	r18, 0x10	; 16
    6a12:	30 e0       	ldi	r19, 0x00	; 0
    6a14:	ac 01       	movw	r20, r24
    6a16:	6e 2f       	mov	r22, r30
    6a18:	82 e0       	ldi	r24, 0x02	; 2
    6a1a:	0e 94 63 13 	call	0x26c6	; 0x26c6 <hif_send>
    6a1e:	08 2e       	mov	r0, r24
    6a20:	00 0c       	add	r0, r0
    6a22:	99 0b       	sbc	r25, r25
    6a24:	89 83       	std	Y+1, r24	; 0x01
    6a26:	9a 83       	std	Y+2, r25	; 0x02
    6a28:	89 81       	ldd	r24, Y+1	; 0x01
    6a2a:	9a 81       	ldd	r25, Y+2	; 0x02
    6a2c:	89 2b       	or	r24, r25
    6a2e:	21 f0       	breq	.+8      	; 0x6a38 <send+0x14a>
    6a30:	82 ef       	ldi	r24, 0xF2	; 242
    6a32:	9f ef       	ldi	r25, 0xFF	; 255
    6a34:	89 83       	std	Y+1, r24	; 0x01
    6a36:	9a 83       	std	Y+2, r25	; 0x02
    6a38:	89 81       	ldd	r24, Y+1	; 0x01
    6a3a:	9a 81       	ldd	r25, Y+2	; 0x02
    6a3c:	6c 96       	adiw	r28, 0x1c	; 28
    6a3e:	cd bf       	out	0x3d, r28	; 61
    6a40:	de bf       	out	0x3e, r29	; 62
    6a42:	df 91       	pop	r29
    6a44:	cf 91       	pop	r28
    6a46:	1f 91       	pop	r17
    6a48:	0f 91       	pop	r16
    6a4a:	ff 90       	pop	r15
    6a4c:	ef 90       	pop	r14
    6a4e:	df 90       	pop	r13
    6a50:	cf 90       	pop	r12
    6a52:	08 95       	ret

00006a54 <recv>:
    6a54:	cf 92       	push	r12
    6a56:	df 92       	push	r13
    6a58:	ef 92       	push	r14
    6a5a:	ff 92       	push	r15
    6a5c:	0f 93       	push	r16
    6a5e:	1f 93       	push	r17
    6a60:	cf 93       	push	r28
    6a62:	df 93       	push	r29
    6a64:	cd b7       	in	r28, 0x3d	; 61
    6a66:	de b7       	in	r29, 0x3e	; 62
    6a68:	64 97       	sbiw	r28, 0x14	; 20
    6a6a:	cd bf       	out	0x3d, r28	; 61
    6a6c:	de bf       	out	0x3e, r29	; 62
    6a6e:	8c 87       	std	Y+12, r24	; 0x0c
    6a70:	6d 87       	std	Y+13, r22	; 0x0d
    6a72:	7e 87       	std	Y+14, r23	; 0x0e
    6a74:	4f 87       	std	Y+15, r20	; 0x0f
    6a76:	58 8b       	std	Y+16, r21	; 0x10
    6a78:	09 8b       	std	Y+17, r16	; 0x11
    6a7a:	1a 8b       	std	Y+18, r17	; 0x12
    6a7c:	2b 8b       	std	Y+19, r18	; 0x13
    6a7e:	3c 8b       	std	Y+20, r19	; 0x14
    6a80:	8a ef       	ldi	r24, 0xFA	; 250
    6a82:	9f ef       	ldi	r25, 0xFF	; 255
    6a84:	89 83       	std	Y+1, r24	; 0x01
    6a86:	9a 83       	std	Y+2, r25	; 0x02
    6a88:	8c 85       	ldd	r24, Y+12	; 0x0c
    6a8a:	88 23       	and	r24, r24
    6a8c:	0c f4       	brge	.+2      	; 0x6a90 <recv+0x3c>
    6a8e:	be c0       	rjmp	.+380    	; 0x6c0c <recv+0x1b8>
    6a90:	8d 85       	ldd	r24, Y+13	; 0x0d
    6a92:	9e 85       	ldd	r25, Y+14	; 0x0e
    6a94:	89 2b       	or	r24, r25
    6a96:	09 f4       	brne	.+2      	; 0x6a9a <recv+0x46>
    6a98:	b9 c0       	rjmp	.+370    	; 0x6c0c <recv+0x1b8>
    6a9a:	8f 85       	ldd	r24, Y+15	; 0x0f
    6a9c:	98 89       	ldd	r25, Y+16	; 0x10
    6a9e:	89 2b       	or	r24, r25
    6aa0:	09 f4       	brne	.+2      	; 0x6aa4 <recv+0x50>
    6aa2:	b4 c0       	rjmp	.+360    	; 0x6c0c <recv+0x1b8>
    6aa4:	8c 85       	ldd	r24, Y+12	; 0x0c
    6aa6:	28 2f       	mov	r18, r24
    6aa8:	88 0f       	add	r24, r24
    6aaa:	33 0b       	sbc	r19, r19
    6aac:	4b e0       	ldi	r20, 0x0B	; 11
    6aae:	42 9f       	mul	r20, r18
    6ab0:	c0 01       	movw	r24, r0
    6ab2:	43 9f       	mul	r20, r19
    6ab4:	90 0d       	add	r25, r0
    6ab6:	11 24       	eor	r1, r1
    6ab8:	80 55       	subi	r24, 0x50	; 80
    6aba:	91 4d       	sbci	r25, 0xD1	; 209
    6abc:	fc 01       	movw	r30, r24
    6abe:	80 81       	ld	r24, Z
    6ac0:	81 30       	cpi	r24, 0x01	; 1
    6ac2:	09 f0       	breq	.+2      	; 0x6ac6 <recv+0x72>
    6ac4:	a3 c0       	rjmp	.+326    	; 0x6c0c <recv+0x1b8>
    6ac6:	19 82       	std	Y+1, r1	; 0x01
    6ac8:	1a 82       	std	Y+2, r1	; 0x02
    6aca:	8c 85       	ldd	r24, Y+12	; 0x0c
    6acc:	28 2f       	mov	r18, r24
    6ace:	88 0f       	add	r24, r24
    6ad0:	33 0b       	sbc	r19, r19
    6ad2:	4b e0       	ldi	r20, 0x0B	; 11
    6ad4:	42 9f       	mul	r20, r18
    6ad6:	c0 01       	movw	r24, r0
    6ad8:	43 9f       	mul	r20, r19
    6ada:	90 0d       	add	r25, r0
    6adc:	11 24       	eor	r1, r1
    6ade:	88 55       	subi	r24, 0x58	; 88
    6ae0:	91 4d       	sbci	r25, 0xD1	; 209
    6ae2:	2d 85       	ldd	r18, Y+13	; 0x0d
    6ae4:	3e 85       	ldd	r19, Y+14	; 0x0e
    6ae6:	fc 01       	movw	r30, r24
    6ae8:	20 83       	st	Z, r18
    6aea:	31 83       	std	Z+1, r19	; 0x01
    6aec:	8c 85       	ldd	r24, Y+12	; 0x0c
    6aee:	28 2f       	mov	r18, r24
    6af0:	88 0f       	add	r24, r24
    6af2:	33 0b       	sbc	r19, r19
    6af4:	4b e0       	ldi	r20, 0x0B	; 11
    6af6:	42 9f       	mul	r20, r18
    6af8:	c0 01       	movw	r24, r0
    6afa:	43 9f       	mul	r20, r19
    6afc:	90 0d       	add	r25, r0
    6afe:	11 24       	eor	r1, r1
    6b00:	86 55       	subi	r24, 0x56	; 86
    6b02:	91 4d       	sbci	r25, 0xD1	; 209
    6b04:	2f 85       	ldd	r18, Y+15	; 0x0f
    6b06:	38 89       	ldd	r19, Y+16	; 0x10
    6b08:	fc 01       	movw	r30, r24
    6b0a:	20 83       	st	Z, r18
    6b0c:	31 83       	std	Z+1, r19	; 0x01
    6b0e:	8c 85       	ldd	r24, Y+12	; 0x0c
    6b10:	28 2f       	mov	r18, r24
    6b12:	88 0f       	add	r24, r24
    6b14:	33 0b       	sbc	r19, r19
    6b16:	4b e0       	ldi	r20, 0x0B	; 11
    6b18:	42 9f       	mul	r20, r18
    6b1a:	c0 01       	movw	r24, r0
    6b1c:	43 9f       	mul	r20, r19
    6b1e:	90 0d       	add	r25, r0
    6b20:	11 24       	eor	r1, r1
    6b22:	8e 54       	subi	r24, 0x4E	; 78
    6b24:	91 4d       	sbci	r25, 0xD1	; 209
    6b26:	fc 01       	movw	r30, r24
    6b28:	80 81       	ld	r24, Z
    6b2a:	88 23       	and	r24, r24
    6b2c:	09 f0       	breq	.+2      	; 0x6b30 <recv+0xdc>
    6b2e:	6e c0       	rjmp	.+220    	; 0x6c0c <recv+0x1b8>
    6b30:	86 e4       	ldi	r24, 0x46	; 70
    6b32:	8b 83       	std	Y+3, r24	; 0x03
    6b34:	8c 85       	ldd	r24, Y+12	; 0x0c
    6b36:	28 2f       	mov	r18, r24
    6b38:	88 0f       	add	r24, r24
    6b3a:	33 0b       	sbc	r19, r19
    6b3c:	4b e0       	ldi	r20, 0x0B	; 11
    6b3e:	42 9f       	mul	r20, r18
    6b40:	c0 01       	movw	r24, r0
    6b42:	43 9f       	mul	r20, r19
    6b44:	90 0d       	add	r25, r0
    6b46:	11 24       	eor	r1, r1
    6b48:	8e 54       	subi	r24, 0x4E	; 78
    6b4a:	91 4d       	sbci	r25, 0xD1	; 209
    6b4c:	21 e0       	ldi	r18, 0x01	; 1
    6b4e:	fc 01       	movw	r30, r24
    6b50:	20 83       	st	Z, r18
    6b52:	8c 85       	ldd	r24, Y+12	; 0x0c
    6b54:	28 2f       	mov	r18, r24
    6b56:	88 0f       	add	r24, r24
    6b58:	33 0b       	sbc	r19, r19
    6b5a:	4b e0       	ldi	r20, 0x0B	; 11
    6b5c:	42 9f       	mul	r20, r18
    6b5e:	c0 01       	movw	r24, r0
    6b60:	43 9f       	mul	r20, r19
    6b62:	90 0d       	add	r25, r0
    6b64:	11 24       	eor	r1, r1
    6b66:	8f 54       	subi	r24, 0x4F	; 79
    6b68:	91 4d       	sbci	r25, 0xD1	; 209
    6b6a:	fc 01       	movw	r30, r24
    6b6c:	80 81       	ld	r24, Z
    6b6e:	88 2f       	mov	r24, r24
    6b70:	90 e0       	ldi	r25, 0x00	; 0
    6b72:	81 70       	andi	r24, 0x01	; 1
    6b74:	99 27       	eor	r25, r25
    6b76:	89 2b       	or	r24, r25
    6b78:	11 f0       	breq	.+4      	; 0x6b7e <recv+0x12a>
    6b7a:	8d e4       	ldi	r24, 0x4D	; 77
    6b7c:	8b 83       	std	Y+3, r24	; 0x03
    6b7e:	89 89       	ldd	r24, Y+17	; 0x11
    6b80:	9a 89       	ldd	r25, Y+18	; 0x12
    6b82:	ab 89       	ldd	r26, Y+19	; 0x13
    6b84:	bc 89       	ldd	r27, Y+20	; 0x14
    6b86:	89 2b       	or	r24, r25
    6b88:	8a 2b       	or	r24, r26
    6b8a:	8b 2b       	or	r24, r27
    6b8c:	41 f4       	brne	.+16     	; 0x6b9e <recv+0x14a>
    6b8e:	8f ef       	ldi	r24, 0xFF	; 255
    6b90:	9f ef       	ldi	r25, 0xFF	; 255
    6b92:	dc 01       	movw	r26, r24
    6b94:	8c 83       	std	Y+4, r24	; 0x04
    6b96:	9d 83       	std	Y+5, r25	; 0x05
    6b98:	ae 83       	std	Y+6, r26	; 0x06
    6b9a:	bf 83       	std	Y+7, r27	; 0x07
    6b9c:	08 c0       	rjmp	.+16     	; 0x6bae <recv+0x15a>
    6b9e:	89 89       	ldd	r24, Y+17	; 0x11
    6ba0:	9a 89       	ldd	r25, Y+18	; 0x12
    6ba2:	ab 89       	ldd	r26, Y+19	; 0x13
    6ba4:	bc 89       	ldd	r27, Y+20	; 0x14
    6ba6:	8c 83       	std	Y+4, r24	; 0x04
    6ba8:	9d 83       	std	Y+5, r25	; 0x05
    6baa:	ae 83       	std	Y+6, r26	; 0x06
    6bac:	bf 83       	std	Y+7, r27	; 0x07
    6bae:	8c 85       	ldd	r24, Y+12	; 0x0c
    6bb0:	88 87       	std	Y+8, r24	; 0x08
    6bb2:	8c 85       	ldd	r24, Y+12	; 0x0c
    6bb4:	28 2f       	mov	r18, r24
    6bb6:	88 0f       	add	r24, r24
    6bb8:	33 0b       	sbc	r19, r19
    6bba:	4b e0       	ldi	r20, 0x0B	; 11
    6bbc:	42 9f       	mul	r20, r18
    6bbe:	c0 01       	movw	r24, r0
    6bc0:	43 9f       	mul	r20, r19
    6bc2:	90 0d       	add	r25, r0
    6bc4:	11 24       	eor	r1, r1
    6bc6:	84 55       	subi	r24, 0x54	; 84
    6bc8:	91 4d       	sbci	r25, 0xD1	; 209
    6bca:	fc 01       	movw	r30, r24
    6bcc:	80 81       	ld	r24, Z
    6bce:	91 81       	ldd	r25, Z+1	; 0x01
    6bd0:	8a 87       	std	Y+10, r24	; 0x0a
    6bd2:	9b 87       	std	Y+11, r25	; 0x0b
    6bd4:	ce 01       	movw	r24, r28
    6bd6:	04 96       	adiw	r24, 0x04	; 4
    6bd8:	c1 2c       	mov	r12, r1
    6bda:	d1 2c       	mov	r13, r1
    6bdc:	e1 2c       	mov	r14, r1
    6bde:	f1 2c       	mov	r15, r1
    6be0:	00 e0       	ldi	r16, 0x00	; 0
    6be2:	10 e0       	ldi	r17, 0x00	; 0
    6be4:	28 e0       	ldi	r18, 0x08	; 8
    6be6:	30 e0       	ldi	r19, 0x00	; 0
    6be8:	ac 01       	movw	r20, r24
    6bea:	6b 81       	ldd	r22, Y+3	; 0x03
    6bec:	82 e0       	ldi	r24, 0x02	; 2
    6bee:	0e 94 63 13 	call	0x26c6	; 0x26c6 <hif_send>
    6bf2:	08 2e       	mov	r0, r24
    6bf4:	00 0c       	add	r0, r0
    6bf6:	99 0b       	sbc	r25, r25
    6bf8:	89 83       	std	Y+1, r24	; 0x01
    6bfa:	9a 83       	std	Y+2, r25	; 0x02
    6bfc:	89 81       	ldd	r24, Y+1	; 0x01
    6bfe:	9a 81       	ldd	r25, Y+2	; 0x02
    6c00:	89 2b       	or	r24, r25
    6c02:	21 f0       	breq	.+8      	; 0x6c0c <recv+0x1b8>
    6c04:	82 ef       	ldi	r24, 0xF2	; 242
    6c06:	9f ef       	ldi	r25, 0xFF	; 255
    6c08:	89 83       	std	Y+1, r24	; 0x01
    6c0a:	9a 83       	std	Y+2, r25	; 0x02
    6c0c:	89 81       	ldd	r24, Y+1	; 0x01
    6c0e:	9a 81       	ldd	r25, Y+2	; 0x02
    6c10:	64 96       	adiw	r28, 0x14	; 20
    6c12:	cd bf       	out	0x3d, r28	; 61
    6c14:	de bf       	out	0x3e, r29	; 62
    6c16:	df 91       	pop	r29
    6c18:	cf 91       	pop	r28
    6c1a:	1f 91       	pop	r17
    6c1c:	0f 91       	pop	r16
    6c1e:	ff 90       	pop	r15
    6c20:	ef 90       	pop	r14
    6c22:	df 90       	pop	r13
    6c24:	cf 90       	pop	r12
    6c26:	08 95       	ret

00006c28 <close>:
    6c28:	cf 92       	push	r12
    6c2a:	df 92       	push	r13
    6c2c:	ef 92       	push	r14
    6c2e:	ff 92       	push	r15
    6c30:	0f 93       	push	r16
    6c32:	1f 93       	push	r17
    6c34:	cf 93       	push	r28
    6c36:	df 93       	push	r29
    6c38:	cd b7       	in	r28, 0x3d	; 61
    6c3a:	de b7       	in	r29, 0x3e	; 62
    6c3c:	27 97       	sbiw	r28, 0x07	; 7
    6c3e:	cd bf       	out	0x3d, r28	; 61
    6c40:	de bf       	out	0x3e, r29	; 62
    6c42:	8f 83       	std	Y+7, r24	; 0x07
    6c44:	8a ef       	ldi	r24, 0xFA	; 250
    6c46:	89 83       	std	Y+1, r24	; 0x01
    6c48:	8f 81       	ldd	r24, Y+7	; 0x07
    6c4a:	88 23       	and	r24, r24
    6c4c:	0c f4       	brge	.+2      	; 0x6c50 <close+0x28>
    6c4e:	81 c0       	rjmp	.+258    	; 0x6d52 <close+0x12a>
    6c50:	8f 81       	ldd	r24, Y+7	; 0x07
    6c52:	28 2f       	mov	r18, r24
    6c54:	88 0f       	add	r24, r24
    6c56:	33 0b       	sbc	r19, r19
    6c58:	4b e0       	ldi	r20, 0x0B	; 11
    6c5a:	42 9f       	mul	r20, r18
    6c5c:	c0 01       	movw	r24, r0
    6c5e:	43 9f       	mul	r20, r19
    6c60:	90 0d       	add	r25, r0
    6c62:	11 24       	eor	r1, r1
    6c64:	80 55       	subi	r24, 0x50	; 80
    6c66:	91 4d       	sbci	r25, 0xD1	; 209
    6c68:	fc 01       	movw	r30, r24
    6c6a:	80 81       	ld	r24, Z
    6c6c:	81 30       	cpi	r24, 0x01	; 1
    6c6e:	09 f0       	breq	.+2      	; 0x6c72 <close+0x4a>
    6c70:	70 c0       	rjmp	.+224    	; 0x6d52 <close+0x12a>
    6c72:	89 e4       	ldi	r24, 0x49	; 73
    6c74:	8a 83       	std	Y+2, r24	; 0x02
    6c76:	8f 81       	ldd	r24, Y+7	; 0x07
    6c78:	8b 83       	std	Y+3, r24	; 0x03
    6c7a:	8f 81       	ldd	r24, Y+7	; 0x07
    6c7c:	28 2f       	mov	r18, r24
    6c7e:	88 0f       	add	r24, r24
    6c80:	33 0b       	sbc	r19, r19
    6c82:	4b e0       	ldi	r20, 0x0B	; 11
    6c84:	42 9f       	mul	r20, r18
    6c86:	c0 01       	movw	r24, r0
    6c88:	43 9f       	mul	r20, r19
    6c8a:	90 0d       	add	r25, r0
    6c8c:	11 24       	eor	r1, r1
    6c8e:	84 55       	subi	r24, 0x54	; 84
    6c90:	91 4d       	sbci	r25, 0xD1	; 209
    6c92:	fc 01       	movw	r30, r24
    6c94:	80 81       	ld	r24, Z
    6c96:	91 81       	ldd	r25, Z+1	; 0x01
    6c98:	8d 83       	std	Y+5, r24	; 0x05
    6c9a:	9e 83       	std	Y+6, r25	; 0x06
    6c9c:	8f 81       	ldd	r24, Y+7	; 0x07
    6c9e:	28 2f       	mov	r18, r24
    6ca0:	88 0f       	add	r24, r24
    6ca2:	33 0b       	sbc	r19, r19
    6ca4:	4b e0       	ldi	r20, 0x0B	; 11
    6ca6:	42 9f       	mul	r20, r18
    6ca8:	c0 01       	movw	r24, r0
    6caa:	43 9f       	mul	r20, r19
    6cac:	90 0d       	add	r25, r0
    6cae:	11 24       	eor	r1, r1
    6cb0:	80 55       	subi	r24, 0x50	; 80
    6cb2:	91 4d       	sbci	r25, 0xD1	; 209
    6cb4:	fc 01       	movw	r30, r24
    6cb6:	10 82       	st	Z, r1
    6cb8:	8f 81       	ldd	r24, Y+7	; 0x07
    6cba:	28 2f       	mov	r18, r24
    6cbc:	88 0f       	add	r24, r24
    6cbe:	33 0b       	sbc	r19, r19
    6cc0:	4b e0       	ldi	r20, 0x0B	; 11
    6cc2:	42 9f       	mul	r20, r18
    6cc4:	c0 01       	movw	r24, r0
    6cc6:	43 9f       	mul	r20, r19
    6cc8:	90 0d       	add	r25, r0
    6cca:	11 24       	eor	r1, r1
    6ccc:	84 55       	subi	r24, 0x54	; 84
    6cce:	91 4d       	sbci	r25, 0xD1	; 209
    6cd0:	fc 01       	movw	r30, r24
    6cd2:	10 82       	st	Z, r1
    6cd4:	11 82       	std	Z+1, r1	; 0x01
    6cd6:	8f 81       	ldd	r24, Y+7	; 0x07
    6cd8:	28 2f       	mov	r18, r24
    6cda:	88 0f       	add	r24, r24
    6cdc:	33 0b       	sbc	r19, r19
    6cde:	4b e0       	ldi	r20, 0x0B	; 11
    6ce0:	42 9f       	mul	r20, r18
    6ce2:	c0 01       	movw	r24, r0
    6ce4:	43 9f       	mul	r20, r19
    6ce6:	90 0d       	add	r25, r0
    6ce8:	11 24       	eor	r1, r1
    6cea:	8f 54       	subi	r24, 0x4F	; 79
    6cec:	91 4d       	sbci	r25, 0xD1	; 209
    6cee:	fc 01       	movw	r30, r24
    6cf0:	80 81       	ld	r24, Z
    6cf2:	88 2f       	mov	r24, r24
    6cf4:	90 e0       	ldi	r25, 0x00	; 0
    6cf6:	81 70       	andi	r24, 0x01	; 1
    6cf8:	99 27       	eor	r25, r25
    6cfa:	89 2b       	or	r24, r25
    6cfc:	11 f0       	breq	.+4      	; 0x6d02 <close+0xda>
    6cfe:	8e e4       	ldi	r24, 0x4E	; 78
    6d00:	8a 83       	std	Y+2, r24	; 0x02
    6d02:	ce 01       	movw	r24, r28
    6d04:	03 96       	adiw	r24, 0x03	; 3
    6d06:	c1 2c       	mov	r12, r1
    6d08:	d1 2c       	mov	r13, r1
    6d0a:	e1 2c       	mov	r14, r1
    6d0c:	f1 2c       	mov	r15, r1
    6d0e:	00 e0       	ldi	r16, 0x00	; 0
    6d10:	10 e0       	ldi	r17, 0x00	; 0
    6d12:	24 e0       	ldi	r18, 0x04	; 4
    6d14:	30 e0       	ldi	r19, 0x00	; 0
    6d16:	ac 01       	movw	r20, r24
    6d18:	6a 81       	ldd	r22, Y+2	; 0x02
    6d1a:	82 e0       	ldi	r24, 0x02	; 2
    6d1c:	0e 94 63 13 	call	0x26c6	; 0x26c6 <hif_send>
    6d20:	89 83       	std	Y+1, r24	; 0x01
    6d22:	89 81       	ldd	r24, Y+1	; 0x01
    6d24:	88 23       	and	r24, r24
    6d26:	11 f0       	breq	.+4      	; 0x6d2c <close+0x104>
    6d28:	87 ef       	ldi	r24, 0xF7	; 247
    6d2a:	89 83       	std	Y+1, r24	; 0x01
    6d2c:	8f 81       	ldd	r24, Y+7	; 0x07
    6d2e:	28 2f       	mov	r18, r24
    6d30:	88 0f       	add	r24, r24
    6d32:	33 0b       	sbc	r19, r19
    6d34:	4b e0       	ldi	r20, 0x0B	; 11
    6d36:	42 9f       	mul	r20, r18
    6d38:	c0 01       	movw	r24, r0
    6d3a:	43 9f       	mul	r20, r19
    6d3c:	90 0d       	add	r25, r0
    6d3e:	11 24       	eor	r1, r1
    6d40:	88 55       	subi	r24, 0x58	; 88
    6d42:	91 4d       	sbci	r25, 0xD1	; 209
    6d44:	2b e0       	ldi	r18, 0x0B	; 11
    6d46:	30 e0       	ldi	r19, 0x00	; 0
    6d48:	40 e0       	ldi	r20, 0x00	; 0
    6d4a:	50 e0       	ldi	r21, 0x00	; 0
    6d4c:	60 e0       	ldi	r22, 0x00	; 0
    6d4e:	0e 94 35 12 	call	0x246a	; 0x246a <m2m_memset>
    6d52:	89 81       	ldd	r24, Y+1	; 0x01
    6d54:	27 96       	adiw	r28, 0x07	; 7
    6d56:	cd bf       	out	0x3d, r28	; 61
    6d58:	de bf       	out	0x3e, r29	; 62
    6d5a:	df 91       	pop	r29
    6d5c:	cf 91       	pop	r28
    6d5e:	1f 91       	pop	r17
    6d60:	0f 91       	pop	r16
    6d62:	ff 90       	pop	r15
    6d64:	ef 90       	pop	r14
    6d66:	df 90       	pop	r13
    6d68:	cf 90       	pop	r12
    6d6a:	08 95       	ret

00006d6c <spi_flash_enter_low_power_mode>:
    6d6c:	cf 93       	push	r28
    6d6e:	df 93       	push	r29
    6d70:	cd b7       	in	r28, 0x3d	; 61
    6d72:	de b7       	in	r29, 0x3e	; 62
    6d74:	26 97       	sbiw	r28, 0x06	; 6
    6d76:	cd bf       	out	0x3d, r28	; 61
    6d78:	de bf       	out	0x3e, r29	; 62
    6d7a:	ce 01       	movw	r24, r28
    6d7c:	03 96       	adiw	r24, 0x03	; 3
    6d7e:	89 83       	std	Y+1, r24	; 0x01
    6d80:	9a 83       	std	Y+2, r25	; 0x02
    6d82:	89 81       	ldd	r24, Y+1	; 0x01
    6d84:	9a 81       	ldd	r25, Y+2	; 0x02
    6d86:	29 eb       	ldi	r18, 0xB9	; 185
    6d88:	fc 01       	movw	r30, r24
    6d8a:	20 83       	st	Z, r18
    6d8c:	20 e0       	ldi	r18, 0x00	; 0
    6d8e:	30 e0       	ldi	r19, 0x00	; 0
    6d90:	a9 01       	movw	r20, r18
    6d92:	68 e0       	ldi	r22, 0x08	; 8
    6d94:	72 e0       	ldi	r23, 0x02	; 2
    6d96:	81 e0       	ldi	r24, 0x01	; 1
    6d98:	90 e0       	ldi	r25, 0x00	; 0
    6d9a:	0e 94 8c 22 	call	0x4518	; 0x4518 <nm_write_reg>
    6d9e:	89 81       	ldd	r24, Y+1	; 0x01
    6da0:	9a 81       	ldd	r25, Y+2	; 0x02
    6da2:	fc 01       	movw	r30, r24
    6da4:	80 81       	ld	r24, Z
    6da6:	88 2f       	mov	r24, r24
    6da8:	90 e0       	ldi	r25, 0x00	; 0
    6daa:	a0 e0       	ldi	r26, 0x00	; 0
    6dac:	b0 e0       	ldi	r27, 0x00	; 0
    6dae:	9c 01       	movw	r18, r24
    6db0:	ad 01       	movw	r20, r26
    6db2:	6c e0       	ldi	r22, 0x0C	; 12
    6db4:	72 e0       	ldi	r23, 0x02	; 2
    6db6:	81 e0       	ldi	r24, 0x01	; 1
    6db8:	90 e0       	ldi	r25, 0x00	; 0
    6dba:	0e 94 8c 22 	call	0x4518	; 0x4518 <nm_write_reg>
    6dbe:	21 e0       	ldi	r18, 0x01	; 1
    6dc0:	30 e0       	ldi	r19, 0x00	; 0
    6dc2:	40 e0       	ldi	r20, 0x00	; 0
    6dc4:	50 e0       	ldi	r21, 0x00	; 0
    6dc6:	64 e1       	ldi	r22, 0x14	; 20
    6dc8:	72 e0       	ldi	r23, 0x02	; 2
    6dca:	81 e0       	ldi	r24, 0x01	; 1
    6dcc:	90 e0       	ldi	r25, 0x00	; 0
    6dce:	0e 94 8c 22 	call	0x4518	; 0x4518 <nm_write_reg>
    6dd2:	20 e0       	ldi	r18, 0x00	; 0
    6dd4:	30 e0       	ldi	r19, 0x00	; 0
    6dd6:	a9 01       	movw	r20, r18
    6dd8:	6c e1       	ldi	r22, 0x1C	; 28
    6dda:	72 e0       	ldi	r23, 0x02	; 2
    6ddc:	81 e0       	ldi	r24, 0x01	; 1
    6dde:	90 e0       	ldi	r25, 0x00	; 0
    6de0:	0e 94 8c 22 	call	0x4518	; 0x4518 <nm_write_reg>
    6de4:	21 e8       	ldi	r18, 0x81	; 129
    6de6:	30 e0       	ldi	r19, 0x00	; 0
    6de8:	40 e0       	ldi	r20, 0x00	; 0
    6dea:	50 e0       	ldi	r21, 0x00	; 0
    6dec:	64 e0       	ldi	r22, 0x04	; 4
    6dee:	72 e0       	ldi	r23, 0x02	; 2
    6df0:	81 e0       	ldi	r24, 0x01	; 1
    6df2:	90 e0       	ldi	r25, 0x00	; 0
    6df4:	0e 94 8c 22 	call	0x4518	; 0x4518 <nm_write_reg>
    6df8:	00 00       	nop
    6dfa:	68 e1       	ldi	r22, 0x18	; 24
    6dfc:	72 e0       	ldi	r23, 0x02	; 2
    6dfe:	81 e0       	ldi	r24, 0x01	; 1
    6e00:	90 e0       	ldi	r25, 0x00	; 0
    6e02:	0e 94 52 22 	call	0x44a4	; 0x44a4 <nm_read_reg>
    6e06:	dc 01       	movw	r26, r24
    6e08:	cb 01       	movw	r24, r22
    6e0a:	01 97       	sbiw	r24, 0x01	; 1
    6e0c:	a1 05       	cpc	r26, r1
    6e0e:	b1 05       	cpc	r27, r1
    6e10:	a1 f7       	brne	.-24     	; 0x6dfa <spi_flash_enter_low_power_mode+0x8e>
    6e12:	00 00       	nop
    6e14:	26 96       	adiw	r28, 0x06	; 6
    6e16:	cd bf       	out	0x3d, r28	; 61
    6e18:	de bf       	out	0x3e, r29	; 62
    6e1a:	df 91       	pop	r29
    6e1c:	cf 91       	pop	r28
    6e1e:	08 95       	ret

00006e20 <spi_flash_leave_low_power_mode>:
    6e20:	cf 93       	push	r28
    6e22:	df 93       	push	r29
    6e24:	cd b7       	in	r28, 0x3d	; 61
    6e26:	de b7       	in	r29, 0x3e	; 62
    6e28:	26 97       	sbiw	r28, 0x06	; 6
    6e2a:	cd bf       	out	0x3d, r28	; 61
    6e2c:	de bf       	out	0x3e, r29	; 62
    6e2e:	ce 01       	movw	r24, r28
    6e30:	03 96       	adiw	r24, 0x03	; 3
    6e32:	89 83       	std	Y+1, r24	; 0x01
    6e34:	9a 83       	std	Y+2, r25	; 0x02
    6e36:	89 81       	ldd	r24, Y+1	; 0x01
    6e38:	9a 81       	ldd	r25, Y+2	; 0x02
    6e3a:	2b ea       	ldi	r18, 0xAB	; 171
    6e3c:	fc 01       	movw	r30, r24
    6e3e:	20 83       	st	Z, r18
    6e40:	20 e0       	ldi	r18, 0x00	; 0
    6e42:	30 e0       	ldi	r19, 0x00	; 0
    6e44:	a9 01       	movw	r20, r18
    6e46:	68 e0       	ldi	r22, 0x08	; 8
    6e48:	72 e0       	ldi	r23, 0x02	; 2
    6e4a:	81 e0       	ldi	r24, 0x01	; 1
    6e4c:	90 e0       	ldi	r25, 0x00	; 0
    6e4e:	0e 94 8c 22 	call	0x4518	; 0x4518 <nm_write_reg>
    6e52:	89 81       	ldd	r24, Y+1	; 0x01
    6e54:	9a 81       	ldd	r25, Y+2	; 0x02
    6e56:	fc 01       	movw	r30, r24
    6e58:	80 81       	ld	r24, Z
    6e5a:	88 2f       	mov	r24, r24
    6e5c:	90 e0       	ldi	r25, 0x00	; 0
    6e5e:	a0 e0       	ldi	r26, 0x00	; 0
    6e60:	b0 e0       	ldi	r27, 0x00	; 0
    6e62:	9c 01       	movw	r18, r24
    6e64:	ad 01       	movw	r20, r26
    6e66:	6c e0       	ldi	r22, 0x0C	; 12
    6e68:	72 e0       	ldi	r23, 0x02	; 2
    6e6a:	81 e0       	ldi	r24, 0x01	; 1
    6e6c:	90 e0       	ldi	r25, 0x00	; 0
    6e6e:	0e 94 8c 22 	call	0x4518	; 0x4518 <nm_write_reg>
    6e72:	21 e0       	ldi	r18, 0x01	; 1
    6e74:	30 e0       	ldi	r19, 0x00	; 0
    6e76:	40 e0       	ldi	r20, 0x00	; 0
    6e78:	50 e0       	ldi	r21, 0x00	; 0
    6e7a:	64 e1       	ldi	r22, 0x14	; 20
    6e7c:	72 e0       	ldi	r23, 0x02	; 2
    6e7e:	81 e0       	ldi	r24, 0x01	; 1
    6e80:	90 e0       	ldi	r25, 0x00	; 0
    6e82:	0e 94 8c 22 	call	0x4518	; 0x4518 <nm_write_reg>
    6e86:	20 e0       	ldi	r18, 0x00	; 0
    6e88:	30 e0       	ldi	r19, 0x00	; 0
    6e8a:	a9 01       	movw	r20, r18
    6e8c:	6c e1       	ldi	r22, 0x1C	; 28
    6e8e:	72 e0       	ldi	r23, 0x02	; 2
    6e90:	81 e0       	ldi	r24, 0x01	; 1
    6e92:	90 e0       	ldi	r25, 0x00	; 0
    6e94:	0e 94 8c 22 	call	0x4518	; 0x4518 <nm_write_reg>
    6e98:	21 e8       	ldi	r18, 0x81	; 129
    6e9a:	30 e0       	ldi	r19, 0x00	; 0
    6e9c:	40 e0       	ldi	r20, 0x00	; 0
    6e9e:	50 e0       	ldi	r21, 0x00	; 0
    6ea0:	64 e0       	ldi	r22, 0x04	; 4
    6ea2:	72 e0       	ldi	r23, 0x02	; 2
    6ea4:	81 e0       	ldi	r24, 0x01	; 1
    6ea6:	90 e0       	ldi	r25, 0x00	; 0
    6ea8:	0e 94 8c 22 	call	0x4518	; 0x4518 <nm_write_reg>
    6eac:	00 00       	nop
    6eae:	68 e1       	ldi	r22, 0x18	; 24
    6eb0:	72 e0       	ldi	r23, 0x02	; 2
    6eb2:	81 e0       	ldi	r24, 0x01	; 1
    6eb4:	90 e0       	ldi	r25, 0x00	; 0
    6eb6:	0e 94 52 22 	call	0x44a4	; 0x44a4 <nm_read_reg>
    6eba:	dc 01       	movw	r26, r24
    6ebc:	cb 01       	movw	r24, r22
    6ebe:	01 97       	sbiw	r24, 0x01	; 1
    6ec0:	a1 05       	cpc	r26, r1
    6ec2:	b1 05       	cpc	r27, r1
    6ec4:	a1 f7       	brne	.-24     	; 0x6eae <spi_flash_leave_low_power_mode+0x8e>
    6ec6:	00 00       	nop
    6ec8:	26 96       	adiw	r28, 0x06	; 6
    6eca:	cd bf       	out	0x3d, r28	; 61
    6ecc:	de bf       	out	0x3e, r29	; 62
    6ece:	df 91       	pop	r29
    6ed0:	cf 91       	pop	r28
    6ed2:	08 95       	ret

00006ed4 <spi_flash_enable>:
    6ed4:	cf 93       	push	r28
    6ed6:	df 93       	push	r29
    6ed8:	cd b7       	in	r28, 0x3d	; 61
    6eda:	de b7       	in	r29, 0x3e	; 62
    6edc:	26 97       	sbiw	r28, 0x06	; 6
    6ede:	cd bf       	out	0x3d, r28	; 61
    6ee0:	de bf       	out	0x3e, r29	; 62
    6ee2:	8e 83       	std	Y+6, r24	; 0x06
    6ee4:	19 82       	std	Y+1, r1	; 0x01
    6ee6:	0e 94 18 1e 	call	0x3c30	; 0x3c30 <nmi_get_chipid>
    6eea:	dc 01       	movw	r26, r24
    6eec:	cb 01       	movw	r24, r22
    6eee:	9f 70       	andi	r25, 0x0F	; 15
    6ef0:	aa 27       	eor	r26, r26
    6ef2:	bb 27       	eor	r27, r27
    6ef4:	80 3a       	cpi	r24, 0xA0	; 160
    6ef6:	93 40       	sbci	r25, 0x03	; 3
    6ef8:	a1 05       	cpc	r26, r1
    6efa:	b1 05       	cpc	r27, r1
    6efc:	08 f4       	brcc	.+2      	; 0x6f00 <spi_flash_enable+0x2c>
    6efe:	5a c0       	rjmp	.+180    	; 0x6fb4 <spi_flash_enable+0xe0>
    6f00:	ce 01       	movw	r24, r28
    6f02:	02 96       	adiw	r24, 0x02	; 2
    6f04:	ac 01       	movw	r20, r24
    6f06:	60 e1       	ldi	r22, 0x10	; 16
    6f08:	74 e1       	ldi	r23, 0x14	; 20
    6f0a:	80 e0       	ldi	r24, 0x00	; 0
    6f0c:	90 e0       	ldi	r25, 0x00	; 0
    6f0e:	0e 94 6e 22 	call	0x44dc	; 0x44dc <nm_read_reg_with_ret>
    6f12:	89 83       	std	Y+1, r24	; 0x01
    6f14:	89 81       	ldd	r24, Y+1	; 0x01
    6f16:	88 23       	and	r24, r24
    6f18:	09 f0       	breq	.+2      	; 0x6f1c <spi_flash_enable+0x48>
    6f1a:	4b c0       	rjmp	.+150    	; 0x6fb2 <spi_flash_enable+0xde>
    6f1c:	8a 81       	ldd	r24, Y+2	; 0x02
    6f1e:	9b 81       	ldd	r25, Y+3	; 0x03
    6f20:	ac 81       	ldd	r26, Y+4	; 0x04
    6f22:	bd 81       	ldd	r27, Y+5	; 0x05
    6f24:	9f 78       	andi	r25, 0x8F	; 143
    6f26:	a8 78       	andi	r26, 0x88	; 136
    6f28:	b8 7f       	andi	r27, 0xF8	; 248
    6f2a:	8a 83       	std	Y+2, r24	; 0x02
    6f2c:	9b 83       	std	Y+3, r25	; 0x03
    6f2e:	ac 83       	std	Y+4, r26	; 0x04
    6f30:	bd 83       	std	Y+5, r27	; 0x05
    6f32:	8a 81       	ldd	r24, Y+2	; 0x02
    6f34:	9b 81       	ldd	r25, Y+3	; 0x03
    6f36:	ac 81       	ldd	r26, Y+4	; 0x04
    6f38:	bd 81       	ldd	r27, Y+5	; 0x05
    6f3a:	90 61       	ori	r25, 0x10	; 16
    6f3c:	a1 61       	ori	r26, 0x11	; 17
    6f3e:	b1 60       	ori	r27, 0x01	; 1
    6f40:	8a 83       	std	Y+2, r24	; 0x02
    6f42:	9b 83       	std	Y+3, r25	; 0x03
    6f44:	ac 83       	std	Y+4, r26	; 0x04
    6f46:	bd 83       	std	Y+5, r27	; 0x05
    6f48:	8a 81       	ldd	r24, Y+2	; 0x02
    6f4a:	9b 81       	ldd	r25, Y+3	; 0x03
    6f4c:	ac 81       	ldd	r26, Y+4	; 0x04
    6f4e:	bd 81       	ldd	r27, Y+5	; 0x05
    6f50:	9c 01       	movw	r18, r24
    6f52:	ad 01       	movw	r20, r26
    6f54:	60 e1       	ldi	r22, 0x10	; 16
    6f56:	74 e1       	ldi	r23, 0x14	; 20
    6f58:	80 e0       	ldi	r24, 0x00	; 0
    6f5a:	90 e0       	ldi	r25, 0x00	; 0
    6f5c:	0e 94 8c 22 	call	0x4518	; 0x4518 <nm_write_reg>
    6f60:	8e 81       	ldd	r24, Y+6	; 0x06
    6f62:	88 23       	and	r24, r24
    6f64:	19 f0       	breq	.+6      	; 0x6f6c <spi_flash_enable+0x98>
    6f66:	0e 94 10 37 	call	0x6e20	; 0x6e20 <spi_flash_leave_low_power_mode>
    6f6a:	02 c0       	rjmp	.+4      	; 0x6f70 <spi_flash_enable+0x9c>
    6f6c:	0e 94 b6 36 	call	0x6d6c	; 0x6d6c <spi_flash_enter_low_power_mode>
    6f70:	8a 81       	ldd	r24, Y+2	; 0x02
    6f72:	9b 81       	ldd	r25, Y+3	; 0x03
    6f74:	ac 81       	ldd	r26, Y+4	; 0x04
    6f76:	bd 81       	ldd	r27, Y+5	; 0x05
    6f78:	9f 78       	andi	r25, 0x8F	; 143
    6f7a:	a8 78       	andi	r26, 0x88	; 136
    6f7c:	b8 7f       	andi	r27, 0xF8	; 248
    6f7e:	8a 83       	std	Y+2, r24	; 0x02
    6f80:	9b 83       	std	Y+3, r25	; 0x03
    6f82:	ac 83       	std	Y+4, r26	; 0x04
    6f84:	bd 83       	std	Y+5, r27	; 0x05
    6f86:	8a 81       	ldd	r24, Y+2	; 0x02
    6f88:	9b 81       	ldd	r25, Y+3	; 0x03
    6f8a:	ac 81       	ldd	r26, Y+4	; 0x04
    6f8c:	bd 81       	ldd	r27, Y+5	; 0x05
    6f8e:	a1 60       	ori	r26, 0x01	; 1
    6f90:	8a 83       	std	Y+2, r24	; 0x02
    6f92:	9b 83       	std	Y+3, r25	; 0x03
    6f94:	ac 83       	std	Y+4, r26	; 0x04
    6f96:	bd 83       	std	Y+5, r27	; 0x05
    6f98:	8a 81       	ldd	r24, Y+2	; 0x02
    6f9a:	9b 81       	ldd	r25, Y+3	; 0x03
    6f9c:	ac 81       	ldd	r26, Y+4	; 0x04
    6f9e:	bd 81       	ldd	r27, Y+5	; 0x05
    6fa0:	9c 01       	movw	r18, r24
    6fa2:	ad 01       	movw	r20, r26
    6fa4:	60 e1       	ldi	r22, 0x10	; 16
    6fa6:	74 e1       	ldi	r23, 0x14	; 20
    6fa8:	80 e0       	ldi	r24, 0x00	; 0
    6faa:	90 e0       	ldi	r25, 0x00	; 0
    6fac:	0e 94 8c 22 	call	0x4518	; 0x4518 <nm_write_reg>
    6fb0:	01 c0       	rjmp	.+2      	; 0x6fb4 <spi_flash_enable+0xe0>
    6fb2:	00 00       	nop
    6fb4:	89 81       	ldd	r24, Y+1	; 0x01
    6fb6:	26 96       	adiw	r28, 0x06	; 6
    6fb8:	cd bf       	out	0x3d, r28	; 61
    6fba:	de bf       	out	0x3e, r29	; 62
    6fbc:	df 91       	pop	r29
    6fbe:	cf 91       	pop	r28
    6fc0:	08 95       	ret

00006fc2 <__cmpsf2>:
    6fc2:	0e 94 15 38 	call	0x702a	; 0x702a <__fp_cmp>
    6fc6:	08 f4       	brcc	.+2      	; 0x6fca <__cmpsf2+0x8>
    6fc8:	81 e0       	ldi	r24, 0x01	; 1
    6fca:	08 95       	ret

00006fcc <__fixunssfsi>:
    6fcc:	0e 94 41 38 	call	0x7082	; 0x7082 <__fp_splitA>
    6fd0:	88 f0       	brcs	.+34     	; 0x6ff4 <__fixunssfsi+0x28>
    6fd2:	9f 57       	subi	r25, 0x7F	; 127
    6fd4:	98 f0       	brcs	.+38     	; 0x6ffc <__fixunssfsi+0x30>
    6fd6:	b9 2f       	mov	r27, r25
    6fd8:	99 27       	eor	r25, r25
    6fda:	b7 51       	subi	r27, 0x17	; 23
    6fdc:	b0 f0       	brcs	.+44     	; 0x700a <__fixunssfsi+0x3e>
    6fde:	e1 f0       	breq	.+56     	; 0x7018 <__fixunssfsi+0x4c>
    6fe0:	66 0f       	add	r22, r22
    6fe2:	77 1f       	adc	r23, r23
    6fe4:	88 1f       	adc	r24, r24
    6fe6:	99 1f       	adc	r25, r25
    6fe8:	1a f0       	brmi	.+6      	; 0x6ff0 <__fixunssfsi+0x24>
    6fea:	ba 95       	dec	r27
    6fec:	c9 f7       	brne	.-14     	; 0x6fe0 <__fixunssfsi+0x14>
    6fee:	14 c0       	rjmp	.+40     	; 0x7018 <__fixunssfsi+0x4c>
    6ff0:	b1 30       	cpi	r27, 0x01	; 1
    6ff2:	91 f0       	breq	.+36     	; 0x7018 <__fixunssfsi+0x4c>
    6ff4:	0e 94 5b 38 	call	0x70b6	; 0x70b6 <__fp_zero>
    6ff8:	b1 e0       	ldi	r27, 0x01	; 1
    6ffa:	08 95       	ret
    6ffc:	0c 94 5b 38 	jmp	0x70b6	; 0x70b6 <__fp_zero>
    7000:	67 2f       	mov	r22, r23
    7002:	78 2f       	mov	r23, r24
    7004:	88 27       	eor	r24, r24
    7006:	b8 5f       	subi	r27, 0xF8	; 248
    7008:	39 f0       	breq	.+14     	; 0x7018 <__fixunssfsi+0x4c>
    700a:	b9 3f       	cpi	r27, 0xF9	; 249
    700c:	cc f3       	brlt	.-14     	; 0x7000 <__fixunssfsi+0x34>
    700e:	86 95       	lsr	r24
    7010:	77 95       	ror	r23
    7012:	67 95       	ror	r22
    7014:	b3 95       	inc	r27
    7016:	d9 f7       	brne	.-10     	; 0x700e <__fixunssfsi+0x42>
    7018:	3e f4       	brtc	.+14     	; 0x7028 <__fixunssfsi+0x5c>
    701a:	90 95       	com	r25
    701c:	80 95       	com	r24
    701e:	70 95       	com	r23
    7020:	61 95       	neg	r22
    7022:	7f 4f       	sbci	r23, 0xFF	; 255
    7024:	8f 4f       	sbci	r24, 0xFF	; 255
    7026:	9f 4f       	sbci	r25, 0xFF	; 255
    7028:	08 95       	ret

0000702a <__fp_cmp>:
    702a:	99 0f       	add	r25, r25
    702c:	00 08       	sbc	r0, r0
    702e:	55 0f       	add	r21, r21
    7030:	aa 0b       	sbc	r26, r26
    7032:	e0 e8       	ldi	r30, 0x80	; 128
    7034:	fe ef       	ldi	r31, 0xFE	; 254
    7036:	16 16       	cp	r1, r22
    7038:	17 06       	cpc	r1, r23
    703a:	e8 07       	cpc	r30, r24
    703c:	f9 07       	cpc	r31, r25
    703e:	c0 f0       	brcs	.+48     	; 0x7070 <__fp_cmp+0x46>
    7040:	12 16       	cp	r1, r18
    7042:	13 06       	cpc	r1, r19
    7044:	e4 07       	cpc	r30, r20
    7046:	f5 07       	cpc	r31, r21
    7048:	98 f0       	brcs	.+38     	; 0x7070 <__fp_cmp+0x46>
    704a:	62 1b       	sub	r22, r18
    704c:	73 0b       	sbc	r23, r19
    704e:	84 0b       	sbc	r24, r20
    7050:	95 0b       	sbc	r25, r21
    7052:	39 f4       	brne	.+14     	; 0x7062 <__fp_cmp+0x38>
    7054:	0a 26       	eor	r0, r26
    7056:	61 f0       	breq	.+24     	; 0x7070 <__fp_cmp+0x46>
    7058:	23 2b       	or	r18, r19
    705a:	24 2b       	or	r18, r20
    705c:	25 2b       	or	r18, r21
    705e:	21 f4       	brne	.+8      	; 0x7068 <__fp_cmp+0x3e>
    7060:	08 95       	ret
    7062:	0a 26       	eor	r0, r26
    7064:	09 f4       	brne	.+2      	; 0x7068 <__fp_cmp+0x3e>
    7066:	a1 40       	sbci	r26, 0x01	; 1
    7068:	a6 95       	lsr	r26
    706a:	8f ef       	ldi	r24, 0xFF	; 255
    706c:	81 1d       	adc	r24, r1
    706e:	81 1d       	adc	r24, r1
    7070:	08 95       	ret

00007072 <__fp_split3>:
    7072:	57 fd       	sbrc	r21, 7
    7074:	90 58       	subi	r25, 0x80	; 128
    7076:	44 0f       	add	r20, r20
    7078:	55 1f       	adc	r21, r21
    707a:	59 f0       	breq	.+22     	; 0x7092 <__fp_splitA+0x10>
    707c:	5f 3f       	cpi	r21, 0xFF	; 255
    707e:	71 f0       	breq	.+28     	; 0x709c <__fp_splitA+0x1a>
    7080:	47 95       	ror	r20

00007082 <__fp_splitA>:
    7082:	88 0f       	add	r24, r24
    7084:	97 fb       	bst	r25, 7
    7086:	99 1f       	adc	r25, r25
    7088:	61 f0       	breq	.+24     	; 0x70a2 <__fp_splitA+0x20>
    708a:	9f 3f       	cpi	r25, 0xFF	; 255
    708c:	79 f0       	breq	.+30     	; 0x70ac <__fp_splitA+0x2a>
    708e:	87 95       	ror	r24
    7090:	08 95       	ret
    7092:	12 16       	cp	r1, r18
    7094:	13 06       	cpc	r1, r19
    7096:	14 06       	cpc	r1, r20
    7098:	55 1f       	adc	r21, r21
    709a:	f2 cf       	rjmp	.-28     	; 0x7080 <__fp_split3+0xe>
    709c:	46 95       	lsr	r20
    709e:	f1 df       	rcall	.-30     	; 0x7082 <__fp_splitA>
    70a0:	08 c0       	rjmp	.+16     	; 0x70b2 <__fp_splitA+0x30>
    70a2:	16 16       	cp	r1, r22
    70a4:	17 06       	cpc	r1, r23
    70a6:	18 06       	cpc	r1, r24
    70a8:	99 1f       	adc	r25, r25
    70aa:	f1 cf       	rjmp	.-30     	; 0x708e <__fp_splitA+0xc>
    70ac:	86 95       	lsr	r24
    70ae:	71 05       	cpc	r23, r1
    70b0:	61 05       	cpc	r22, r1
    70b2:	08 94       	sec
    70b4:	08 95       	ret

000070b6 <__fp_zero>:
    70b6:	e8 94       	clt

000070b8 <__fp_szero>:
    70b8:	bb 27       	eor	r27, r27
    70ba:	66 27       	eor	r22, r22
    70bc:	77 27       	eor	r23, r23
    70be:	cb 01       	movw	r24, r22
    70c0:	97 f9       	bld	r25, 7
    70c2:	08 95       	ret

000070c4 <__gesf2>:
    70c4:	0e 94 15 38 	call	0x702a	; 0x702a <__fp_cmp>
    70c8:	08 f4       	brcc	.+2      	; 0x70cc <__gesf2+0x8>
    70ca:	8f ef       	ldi	r24, 0xFF	; 255
    70cc:	08 95       	ret

000070ce <__mulsf3>:
    70ce:	0e 94 7a 38 	call	0x70f4	; 0x70f4 <__mulsf3x>
    70d2:	0c 94 eb 38 	jmp	0x71d6	; 0x71d6 <__fp_round>
    70d6:	0e 94 dd 38 	call	0x71ba	; 0x71ba <__fp_pscA>
    70da:	38 f0       	brcs	.+14     	; 0x70ea <__mulsf3+0x1c>
    70dc:	0e 94 e4 38 	call	0x71c8	; 0x71c8 <__fp_pscB>
    70e0:	20 f0       	brcs	.+8      	; 0x70ea <__mulsf3+0x1c>
    70e2:	95 23       	and	r25, r21
    70e4:	11 f0       	breq	.+4      	; 0x70ea <__mulsf3+0x1c>
    70e6:	0c 94 d4 38 	jmp	0x71a8	; 0x71a8 <__fp_inf>
    70ea:	0c 94 da 38 	jmp	0x71b4	; 0x71b4 <__fp_nan>
    70ee:	11 24       	eor	r1, r1
    70f0:	0c 94 5c 38 	jmp	0x70b8	; 0x70b8 <__fp_szero>

000070f4 <__mulsf3x>:
    70f4:	0e 94 39 38 	call	0x7072	; 0x7072 <__fp_split3>
    70f8:	70 f3       	brcs	.-36     	; 0x70d6 <__mulsf3+0x8>

000070fa <__mulsf3_pse>:
    70fa:	95 9f       	mul	r25, r21
    70fc:	c1 f3       	breq	.-16     	; 0x70ee <__mulsf3+0x20>
    70fe:	95 0f       	add	r25, r21
    7100:	50 e0       	ldi	r21, 0x00	; 0
    7102:	55 1f       	adc	r21, r21
    7104:	62 9f       	mul	r22, r18
    7106:	f0 01       	movw	r30, r0
    7108:	72 9f       	mul	r23, r18
    710a:	bb 27       	eor	r27, r27
    710c:	f0 0d       	add	r31, r0
    710e:	b1 1d       	adc	r27, r1
    7110:	63 9f       	mul	r22, r19
    7112:	aa 27       	eor	r26, r26
    7114:	f0 0d       	add	r31, r0
    7116:	b1 1d       	adc	r27, r1
    7118:	aa 1f       	adc	r26, r26
    711a:	64 9f       	mul	r22, r20
    711c:	66 27       	eor	r22, r22
    711e:	b0 0d       	add	r27, r0
    7120:	a1 1d       	adc	r26, r1
    7122:	66 1f       	adc	r22, r22
    7124:	82 9f       	mul	r24, r18
    7126:	22 27       	eor	r18, r18
    7128:	b0 0d       	add	r27, r0
    712a:	a1 1d       	adc	r26, r1
    712c:	62 1f       	adc	r22, r18
    712e:	73 9f       	mul	r23, r19
    7130:	b0 0d       	add	r27, r0
    7132:	a1 1d       	adc	r26, r1
    7134:	62 1f       	adc	r22, r18
    7136:	83 9f       	mul	r24, r19
    7138:	a0 0d       	add	r26, r0
    713a:	61 1d       	adc	r22, r1
    713c:	22 1f       	adc	r18, r18
    713e:	74 9f       	mul	r23, r20
    7140:	33 27       	eor	r19, r19
    7142:	a0 0d       	add	r26, r0
    7144:	61 1d       	adc	r22, r1
    7146:	23 1f       	adc	r18, r19
    7148:	84 9f       	mul	r24, r20
    714a:	60 0d       	add	r22, r0
    714c:	21 1d       	adc	r18, r1
    714e:	82 2f       	mov	r24, r18
    7150:	76 2f       	mov	r23, r22
    7152:	6a 2f       	mov	r22, r26
    7154:	11 24       	eor	r1, r1
    7156:	9f 57       	subi	r25, 0x7F	; 127
    7158:	50 40       	sbci	r21, 0x00	; 0
    715a:	9a f0       	brmi	.+38     	; 0x7182 <__mulsf3_pse+0x88>
    715c:	f1 f0       	breq	.+60     	; 0x719a <__mulsf3_pse+0xa0>
    715e:	88 23       	and	r24, r24
    7160:	4a f0       	brmi	.+18     	; 0x7174 <__mulsf3_pse+0x7a>
    7162:	ee 0f       	add	r30, r30
    7164:	ff 1f       	adc	r31, r31
    7166:	bb 1f       	adc	r27, r27
    7168:	66 1f       	adc	r22, r22
    716a:	77 1f       	adc	r23, r23
    716c:	88 1f       	adc	r24, r24
    716e:	91 50       	subi	r25, 0x01	; 1
    7170:	50 40       	sbci	r21, 0x00	; 0
    7172:	a9 f7       	brne	.-22     	; 0x715e <__mulsf3_pse+0x64>
    7174:	9e 3f       	cpi	r25, 0xFE	; 254
    7176:	51 05       	cpc	r21, r1
    7178:	80 f0       	brcs	.+32     	; 0x719a <__mulsf3_pse+0xa0>
    717a:	0c 94 d4 38 	jmp	0x71a8	; 0x71a8 <__fp_inf>
    717e:	0c 94 5c 38 	jmp	0x70b8	; 0x70b8 <__fp_szero>
    7182:	5f 3f       	cpi	r21, 0xFF	; 255
    7184:	e4 f3       	brlt	.-8      	; 0x717e <__mulsf3_pse+0x84>
    7186:	98 3e       	cpi	r25, 0xE8	; 232
    7188:	d4 f3       	brlt	.-12     	; 0x717e <__mulsf3_pse+0x84>
    718a:	86 95       	lsr	r24
    718c:	77 95       	ror	r23
    718e:	67 95       	ror	r22
    7190:	b7 95       	ror	r27
    7192:	f7 95       	ror	r31
    7194:	e7 95       	ror	r30
    7196:	9f 5f       	subi	r25, 0xFF	; 255
    7198:	c1 f7       	brne	.-16     	; 0x718a <__mulsf3_pse+0x90>
    719a:	fe 2b       	or	r31, r30
    719c:	88 0f       	add	r24, r24
    719e:	91 1d       	adc	r25, r1
    71a0:	96 95       	lsr	r25
    71a2:	87 95       	ror	r24
    71a4:	97 f9       	bld	r25, 7
    71a6:	08 95       	ret

000071a8 <__fp_inf>:
    71a8:	97 f9       	bld	r25, 7
    71aa:	9f 67       	ori	r25, 0x7F	; 127
    71ac:	80 e8       	ldi	r24, 0x80	; 128
    71ae:	70 e0       	ldi	r23, 0x00	; 0
    71b0:	60 e0       	ldi	r22, 0x00	; 0
    71b2:	08 95       	ret

000071b4 <__fp_nan>:
    71b4:	9f ef       	ldi	r25, 0xFF	; 255
    71b6:	80 ec       	ldi	r24, 0xC0	; 192
    71b8:	08 95       	ret

000071ba <__fp_pscA>:
    71ba:	00 24       	eor	r0, r0
    71bc:	0a 94       	dec	r0
    71be:	16 16       	cp	r1, r22
    71c0:	17 06       	cpc	r1, r23
    71c2:	18 06       	cpc	r1, r24
    71c4:	09 06       	cpc	r0, r25
    71c6:	08 95       	ret

000071c8 <__fp_pscB>:
    71c8:	00 24       	eor	r0, r0
    71ca:	0a 94       	dec	r0
    71cc:	12 16       	cp	r1, r18
    71ce:	13 06       	cpc	r1, r19
    71d0:	14 06       	cpc	r1, r20
    71d2:	05 06       	cpc	r0, r21
    71d4:	08 95       	ret

000071d6 <__fp_round>:
    71d6:	09 2e       	mov	r0, r25
    71d8:	03 94       	inc	r0
    71da:	00 0c       	add	r0, r0
    71dc:	11 f4       	brne	.+4      	; 0x71e2 <__fp_round+0xc>
    71de:	88 23       	and	r24, r24
    71e0:	52 f0       	brmi	.+20     	; 0x71f6 <__fp_round+0x20>
    71e2:	bb 0f       	add	r27, r27
    71e4:	40 f4       	brcc	.+16     	; 0x71f6 <__fp_round+0x20>
    71e6:	bf 2b       	or	r27, r31
    71e8:	11 f4       	brne	.+4      	; 0x71ee <__fp_round+0x18>
    71ea:	60 ff       	sbrs	r22, 0
    71ec:	04 c0       	rjmp	.+8      	; 0x71f6 <__fp_round+0x20>
    71ee:	6f 5f       	subi	r22, 0xFF	; 255
    71f0:	7f 4f       	sbci	r23, 0xFF	; 255
    71f2:	8f 4f       	sbci	r24, 0xFF	; 255
    71f4:	9f 4f       	sbci	r25, 0xFF	; 255
    71f6:	08 95       	ret

000071f8 <__divmodhi4>:
    71f8:	97 fb       	bst	r25, 7
    71fa:	07 2e       	mov	r0, r23
    71fc:	16 f4       	brtc	.+4      	; 0x7202 <__divmodhi4+0xa>
    71fe:	00 94       	com	r0
    7200:	07 d0       	rcall	.+14     	; 0x7210 <__divmodhi4_neg1>
    7202:	77 fd       	sbrc	r23, 7
    7204:	09 d0       	rcall	.+18     	; 0x7218 <__divmodhi4_neg2>
    7206:	0e 94 16 39 	call	0x722c	; 0x722c <__udivmodhi4>
    720a:	07 fc       	sbrc	r0, 7
    720c:	05 d0       	rcall	.+10     	; 0x7218 <__divmodhi4_neg2>
    720e:	3e f4       	brtc	.+14     	; 0x721e <__divmodhi4_exit>

00007210 <__divmodhi4_neg1>:
    7210:	90 95       	com	r25
    7212:	81 95       	neg	r24
    7214:	9f 4f       	sbci	r25, 0xFF	; 255
    7216:	08 95       	ret

00007218 <__divmodhi4_neg2>:
    7218:	70 95       	com	r23
    721a:	61 95       	neg	r22
    721c:	7f 4f       	sbci	r23, 0xFF	; 255

0000721e <__divmodhi4_exit>:
    721e:	08 95       	ret

00007220 <__tablejump2__>:
    7220:	ee 0f       	add	r30, r30
    7222:	ff 1f       	adc	r31, r31
    7224:	05 90       	lpm	r0, Z+
    7226:	f4 91       	lpm	r31, Z
    7228:	e0 2d       	mov	r30, r0
    722a:	09 94       	ijmp

0000722c <__udivmodhi4>:
    722c:	aa 1b       	sub	r26, r26
    722e:	bb 1b       	sub	r27, r27
    7230:	51 e1       	ldi	r21, 0x11	; 17
    7232:	07 c0       	rjmp	.+14     	; 0x7242 <__udivmodhi4_ep>

00007234 <__udivmodhi4_loop>:
    7234:	aa 1f       	adc	r26, r26
    7236:	bb 1f       	adc	r27, r27
    7238:	a6 17       	cp	r26, r22
    723a:	b7 07       	cpc	r27, r23
    723c:	10 f0       	brcs	.+4      	; 0x7242 <__udivmodhi4_ep>
    723e:	a6 1b       	sub	r26, r22
    7240:	b7 0b       	sbc	r27, r23

00007242 <__udivmodhi4_ep>:
    7242:	88 1f       	adc	r24, r24
    7244:	99 1f       	adc	r25, r25
    7246:	5a 95       	dec	r21
    7248:	a9 f7       	brne	.-22     	; 0x7234 <__udivmodhi4_loop>
    724a:	80 95       	com	r24
    724c:	90 95       	com	r25
    724e:	bc 01       	movw	r22, r24
    7250:	cd 01       	movw	r24, r26
    7252:	08 95       	ret

00007254 <memset>:
    7254:	dc 01       	movw	r26, r24
    7256:	01 c0       	rjmp	.+2      	; 0x725a <memset+0x6>
    7258:	6d 93       	st	X+, r22
    725a:	41 50       	subi	r20, 0x01	; 1
    725c:	50 40       	sbci	r21, 0x00	; 0
    725e:	e0 f7       	brcc	.-8      	; 0x7258 <memset+0x4>
    7260:	08 95       	ret

00007262 <strcmp>:
    7262:	fb 01       	movw	r30, r22
    7264:	dc 01       	movw	r26, r24
    7266:	8d 91       	ld	r24, X+
    7268:	01 90       	ld	r0, Z+
    726a:	80 19       	sub	r24, r0
    726c:	01 10       	cpse	r0, r1
    726e:	d9 f3       	breq	.-10     	; 0x7266 <strcmp+0x4>
    7270:	99 0b       	sbc	r25, r25
    7272:	08 95       	ret

00007274 <printf>:
    7274:	a0 e0       	ldi	r26, 0x00	; 0
    7276:	b0 e0       	ldi	r27, 0x00	; 0
    7278:	e0 e4       	ldi	r30, 0x40	; 64
    727a:	f9 e3       	ldi	r31, 0x39	; 57
    727c:	0c 94 21 3c 	jmp	0x7842	; 0x7842 <__prologue_saves__+0x20>
    7280:	ae 01       	movw	r20, r28
    7282:	4b 5f       	subi	r20, 0xFB	; 251
    7284:	5f 4f       	sbci	r21, 0xFF	; 255
    7286:	fa 01       	movw	r30, r20
    7288:	61 91       	ld	r22, Z+
    728a:	71 91       	ld	r23, Z+
    728c:	af 01       	movw	r20, r30
    728e:	80 91 29 2f 	lds	r24, 0x2F29	; 0x802f29 <__iob+0x2>
    7292:	90 91 2a 2f 	lds	r25, 0x2F2A	; 0x802f2a <__iob+0x3>
    7296:	0e 94 80 39 	call	0x7300	; 0x7300 <vfprintf>
    729a:	e2 e0       	ldi	r30, 0x02	; 2
    729c:	0c 94 3a 3c 	jmp	0x7874	; 0x7874 <__epilogue_restores__+0x20>

000072a0 <puts>:
    72a0:	0f 93       	push	r16
    72a2:	1f 93       	push	r17
    72a4:	cf 93       	push	r28
    72a6:	df 93       	push	r29
    72a8:	e0 91 29 2f 	lds	r30, 0x2F29	; 0x802f29 <__iob+0x2>
    72ac:	f0 91 2a 2f 	lds	r31, 0x2F2A	; 0x802f2a <__iob+0x3>
    72b0:	23 81       	ldd	r18, Z+3	; 0x03
    72b2:	21 ff       	sbrs	r18, 1
    72b4:	1b c0       	rjmp	.+54     	; 0x72ec <puts+0x4c>
    72b6:	8c 01       	movw	r16, r24
    72b8:	d0 e0       	ldi	r29, 0x00	; 0
    72ba:	c0 e0       	ldi	r28, 0x00	; 0
    72bc:	f8 01       	movw	r30, r16
    72be:	81 91       	ld	r24, Z+
    72c0:	8f 01       	movw	r16, r30
    72c2:	60 91 29 2f 	lds	r22, 0x2F29	; 0x802f29 <__iob+0x2>
    72c6:	70 91 2a 2f 	lds	r23, 0x2F2A	; 0x802f2a <__iob+0x3>
    72ca:	db 01       	movw	r26, r22
    72cc:	18 96       	adiw	r26, 0x08	; 8
    72ce:	ed 91       	ld	r30, X+
    72d0:	fc 91       	ld	r31, X
    72d2:	19 97       	sbiw	r26, 0x09	; 9
    72d4:	88 23       	and	r24, r24
    72d6:	31 f0       	breq	.+12     	; 0x72e4 <puts+0x44>
    72d8:	09 95       	icall
    72da:	89 2b       	or	r24, r25
    72dc:	79 f3       	breq	.-34     	; 0x72bc <puts+0x1c>
    72de:	df ef       	ldi	r29, 0xFF	; 255
    72e0:	cf ef       	ldi	r28, 0xFF	; 255
    72e2:	ec cf       	rjmp	.-40     	; 0x72bc <puts+0x1c>
    72e4:	8a e0       	ldi	r24, 0x0A	; 10
    72e6:	09 95       	icall
    72e8:	89 2b       	or	r24, r25
    72ea:	19 f0       	breq	.+6      	; 0x72f2 <puts+0x52>
    72ec:	8f ef       	ldi	r24, 0xFF	; 255
    72ee:	9f ef       	ldi	r25, 0xFF	; 255
    72f0:	02 c0       	rjmp	.+4      	; 0x72f6 <puts+0x56>
    72f2:	8d 2f       	mov	r24, r29
    72f4:	9c 2f       	mov	r25, r28
    72f6:	df 91       	pop	r29
    72f8:	cf 91       	pop	r28
    72fa:	1f 91       	pop	r17
    72fc:	0f 91       	pop	r16
    72fe:	08 95       	ret

00007300 <vfprintf>:
    7300:	ab e0       	ldi	r26, 0x0B	; 11
    7302:	b0 e0       	ldi	r27, 0x00	; 0
    7304:	e6 e8       	ldi	r30, 0x86	; 134
    7306:	f9 e3       	ldi	r31, 0x39	; 57
    7308:	0c 94 11 3c 	jmp	0x7822	; 0x7822 <__prologue_saves__>
    730c:	6c 01       	movw	r12, r24
    730e:	7b 01       	movw	r14, r22
    7310:	8a 01       	movw	r16, r20
    7312:	fc 01       	movw	r30, r24
    7314:	16 82       	std	Z+6, r1	; 0x06
    7316:	17 82       	std	Z+7, r1	; 0x07
    7318:	83 81       	ldd	r24, Z+3	; 0x03
    731a:	81 ff       	sbrs	r24, 1
    731c:	cc c1       	rjmp	.+920    	; 0x76b6 <vfprintf+0x3b6>
    731e:	ce 01       	movw	r24, r28
    7320:	01 96       	adiw	r24, 0x01	; 1
    7322:	3c 01       	movw	r6, r24
    7324:	f6 01       	movw	r30, r12
    7326:	93 81       	ldd	r25, Z+3	; 0x03
    7328:	f7 01       	movw	r30, r14
    732a:	93 fd       	sbrc	r25, 3
    732c:	85 91       	lpm	r24, Z+
    732e:	93 ff       	sbrs	r25, 3
    7330:	81 91       	ld	r24, Z+
    7332:	7f 01       	movw	r14, r30
    7334:	88 23       	and	r24, r24
    7336:	09 f4       	brne	.+2      	; 0x733a <vfprintf+0x3a>
    7338:	ba c1       	rjmp	.+884    	; 0x76ae <vfprintf+0x3ae>
    733a:	85 32       	cpi	r24, 0x25	; 37
    733c:	39 f4       	brne	.+14     	; 0x734c <vfprintf+0x4c>
    733e:	93 fd       	sbrc	r25, 3
    7340:	85 91       	lpm	r24, Z+
    7342:	93 ff       	sbrs	r25, 3
    7344:	81 91       	ld	r24, Z+
    7346:	7f 01       	movw	r14, r30
    7348:	85 32       	cpi	r24, 0x25	; 37
    734a:	29 f4       	brne	.+10     	; 0x7356 <vfprintf+0x56>
    734c:	b6 01       	movw	r22, r12
    734e:	90 e0       	ldi	r25, 0x00	; 0
    7350:	0e 94 77 3b 	call	0x76ee	; 0x76ee <fputc>
    7354:	e7 cf       	rjmp	.-50     	; 0x7324 <vfprintf+0x24>
    7356:	91 2c       	mov	r9, r1
    7358:	21 2c       	mov	r2, r1
    735a:	31 2c       	mov	r3, r1
    735c:	ff e1       	ldi	r31, 0x1F	; 31
    735e:	f3 15       	cp	r31, r3
    7360:	d8 f0       	brcs	.+54     	; 0x7398 <vfprintf+0x98>
    7362:	8b 32       	cpi	r24, 0x2B	; 43
    7364:	79 f0       	breq	.+30     	; 0x7384 <vfprintf+0x84>
    7366:	38 f4       	brcc	.+14     	; 0x7376 <vfprintf+0x76>
    7368:	80 32       	cpi	r24, 0x20	; 32
    736a:	79 f0       	breq	.+30     	; 0x738a <vfprintf+0x8a>
    736c:	83 32       	cpi	r24, 0x23	; 35
    736e:	a1 f4       	brne	.+40     	; 0x7398 <vfprintf+0x98>
    7370:	23 2d       	mov	r18, r3
    7372:	20 61       	ori	r18, 0x10	; 16
    7374:	1d c0       	rjmp	.+58     	; 0x73b0 <vfprintf+0xb0>
    7376:	8d 32       	cpi	r24, 0x2D	; 45
    7378:	61 f0       	breq	.+24     	; 0x7392 <vfprintf+0x92>
    737a:	80 33       	cpi	r24, 0x30	; 48
    737c:	69 f4       	brne	.+26     	; 0x7398 <vfprintf+0x98>
    737e:	23 2d       	mov	r18, r3
    7380:	21 60       	ori	r18, 0x01	; 1
    7382:	16 c0       	rjmp	.+44     	; 0x73b0 <vfprintf+0xb0>
    7384:	83 2d       	mov	r24, r3
    7386:	82 60       	ori	r24, 0x02	; 2
    7388:	38 2e       	mov	r3, r24
    738a:	e3 2d       	mov	r30, r3
    738c:	e4 60       	ori	r30, 0x04	; 4
    738e:	3e 2e       	mov	r3, r30
    7390:	2a c0       	rjmp	.+84     	; 0x73e6 <vfprintf+0xe6>
    7392:	f3 2d       	mov	r31, r3
    7394:	f8 60       	ori	r31, 0x08	; 8
    7396:	1d c0       	rjmp	.+58     	; 0x73d2 <vfprintf+0xd2>
    7398:	37 fc       	sbrc	r3, 7
    739a:	2d c0       	rjmp	.+90     	; 0x73f6 <vfprintf+0xf6>
    739c:	20 ed       	ldi	r18, 0xD0	; 208
    739e:	28 0f       	add	r18, r24
    73a0:	2a 30       	cpi	r18, 0x0A	; 10
    73a2:	40 f0       	brcs	.+16     	; 0x73b4 <vfprintf+0xb4>
    73a4:	8e 32       	cpi	r24, 0x2E	; 46
    73a6:	b9 f4       	brne	.+46     	; 0x73d6 <vfprintf+0xd6>
    73a8:	36 fc       	sbrc	r3, 6
    73aa:	81 c1       	rjmp	.+770    	; 0x76ae <vfprintf+0x3ae>
    73ac:	23 2d       	mov	r18, r3
    73ae:	20 64       	ori	r18, 0x40	; 64
    73b0:	32 2e       	mov	r3, r18
    73b2:	19 c0       	rjmp	.+50     	; 0x73e6 <vfprintf+0xe6>
    73b4:	36 fe       	sbrs	r3, 6
    73b6:	06 c0       	rjmp	.+12     	; 0x73c4 <vfprintf+0xc4>
    73b8:	8a e0       	ldi	r24, 0x0A	; 10
    73ba:	98 9e       	mul	r9, r24
    73bc:	20 0d       	add	r18, r0
    73be:	11 24       	eor	r1, r1
    73c0:	92 2e       	mov	r9, r18
    73c2:	11 c0       	rjmp	.+34     	; 0x73e6 <vfprintf+0xe6>
    73c4:	ea e0       	ldi	r30, 0x0A	; 10
    73c6:	2e 9e       	mul	r2, r30
    73c8:	20 0d       	add	r18, r0
    73ca:	11 24       	eor	r1, r1
    73cc:	22 2e       	mov	r2, r18
    73ce:	f3 2d       	mov	r31, r3
    73d0:	f0 62       	ori	r31, 0x20	; 32
    73d2:	3f 2e       	mov	r3, r31
    73d4:	08 c0       	rjmp	.+16     	; 0x73e6 <vfprintf+0xe6>
    73d6:	8c 36       	cpi	r24, 0x6C	; 108
    73d8:	21 f4       	brne	.+8      	; 0x73e2 <vfprintf+0xe2>
    73da:	83 2d       	mov	r24, r3
    73dc:	80 68       	ori	r24, 0x80	; 128
    73de:	38 2e       	mov	r3, r24
    73e0:	02 c0       	rjmp	.+4      	; 0x73e6 <vfprintf+0xe6>
    73e2:	88 36       	cpi	r24, 0x68	; 104
    73e4:	41 f4       	brne	.+16     	; 0x73f6 <vfprintf+0xf6>
    73e6:	f7 01       	movw	r30, r14
    73e8:	93 fd       	sbrc	r25, 3
    73ea:	85 91       	lpm	r24, Z+
    73ec:	93 ff       	sbrs	r25, 3
    73ee:	81 91       	ld	r24, Z+
    73f0:	7f 01       	movw	r14, r30
    73f2:	81 11       	cpse	r24, r1
    73f4:	b3 cf       	rjmp	.-154    	; 0x735c <vfprintf+0x5c>
    73f6:	98 2f       	mov	r25, r24
    73f8:	9f 7d       	andi	r25, 0xDF	; 223
    73fa:	95 54       	subi	r25, 0x45	; 69
    73fc:	93 30       	cpi	r25, 0x03	; 3
    73fe:	28 f4       	brcc	.+10     	; 0x740a <vfprintf+0x10a>
    7400:	0c 5f       	subi	r16, 0xFC	; 252
    7402:	1f 4f       	sbci	r17, 0xFF	; 255
    7404:	9f e3       	ldi	r25, 0x3F	; 63
    7406:	99 83       	std	Y+1, r25	; 0x01
    7408:	0d c0       	rjmp	.+26     	; 0x7424 <vfprintf+0x124>
    740a:	83 36       	cpi	r24, 0x63	; 99
    740c:	31 f0       	breq	.+12     	; 0x741a <vfprintf+0x11a>
    740e:	83 37       	cpi	r24, 0x73	; 115
    7410:	71 f0       	breq	.+28     	; 0x742e <vfprintf+0x12e>
    7412:	83 35       	cpi	r24, 0x53	; 83
    7414:	09 f0       	breq	.+2      	; 0x7418 <vfprintf+0x118>
    7416:	59 c0       	rjmp	.+178    	; 0x74ca <vfprintf+0x1ca>
    7418:	21 c0       	rjmp	.+66     	; 0x745c <vfprintf+0x15c>
    741a:	f8 01       	movw	r30, r16
    741c:	80 81       	ld	r24, Z
    741e:	89 83       	std	Y+1, r24	; 0x01
    7420:	0e 5f       	subi	r16, 0xFE	; 254
    7422:	1f 4f       	sbci	r17, 0xFF	; 255
    7424:	88 24       	eor	r8, r8
    7426:	83 94       	inc	r8
    7428:	91 2c       	mov	r9, r1
    742a:	53 01       	movw	r10, r6
    742c:	13 c0       	rjmp	.+38     	; 0x7454 <vfprintf+0x154>
    742e:	28 01       	movw	r4, r16
    7430:	f2 e0       	ldi	r31, 0x02	; 2
    7432:	4f 0e       	add	r4, r31
    7434:	51 1c       	adc	r5, r1
    7436:	f8 01       	movw	r30, r16
    7438:	a0 80       	ld	r10, Z
    743a:	b1 80       	ldd	r11, Z+1	; 0x01
    743c:	36 fe       	sbrs	r3, 6
    743e:	03 c0       	rjmp	.+6      	; 0x7446 <vfprintf+0x146>
    7440:	69 2d       	mov	r22, r9
    7442:	70 e0       	ldi	r23, 0x00	; 0
    7444:	02 c0       	rjmp	.+4      	; 0x744a <vfprintf+0x14a>
    7446:	6f ef       	ldi	r22, 0xFF	; 255
    7448:	7f ef       	ldi	r23, 0xFF	; 255
    744a:	c5 01       	movw	r24, r10
    744c:	0e 94 6c 3b 	call	0x76d8	; 0x76d8 <strnlen>
    7450:	4c 01       	movw	r8, r24
    7452:	82 01       	movw	r16, r4
    7454:	f3 2d       	mov	r31, r3
    7456:	ff 77       	andi	r31, 0x7F	; 127
    7458:	3f 2e       	mov	r3, r31
    745a:	16 c0       	rjmp	.+44     	; 0x7488 <vfprintf+0x188>
    745c:	28 01       	movw	r4, r16
    745e:	22 e0       	ldi	r18, 0x02	; 2
    7460:	42 0e       	add	r4, r18
    7462:	51 1c       	adc	r5, r1
    7464:	f8 01       	movw	r30, r16
    7466:	a0 80       	ld	r10, Z
    7468:	b1 80       	ldd	r11, Z+1	; 0x01
    746a:	36 fe       	sbrs	r3, 6
    746c:	03 c0       	rjmp	.+6      	; 0x7474 <vfprintf+0x174>
    746e:	69 2d       	mov	r22, r9
    7470:	70 e0       	ldi	r23, 0x00	; 0
    7472:	02 c0       	rjmp	.+4      	; 0x7478 <vfprintf+0x178>
    7474:	6f ef       	ldi	r22, 0xFF	; 255
    7476:	7f ef       	ldi	r23, 0xFF	; 255
    7478:	c5 01       	movw	r24, r10
    747a:	0e 94 61 3b 	call	0x76c2	; 0x76c2 <strnlen_P>
    747e:	4c 01       	movw	r8, r24
    7480:	f3 2d       	mov	r31, r3
    7482:	f0 68       	ori	r31, 0x80	; 128
    7484:	3f 2e       	mov	r3, r31
    7486:	82 01       	movw	r16, r4
    7488:	33 fc       	sbrc	r3, 3
    748a:	1b c0       	rjmp	.+54     	; 0x74c2 <vfprintf+0x1c2>
    748c:	82 2d       	mov	r24, r2
    748e:	90 e0       	ldi	r25, 0x00	; 0
    7490:	88 16       	cp	r8, r24
    7492:	99 06       	cpc	r9, r25
    7494:	b0 f4       	brcc	.+44     	; 0x74c2 <vfprintf+0x1c2>
    7496:	b6 01       	movw	r22, r12
    7498:	80 e2       	ldi	r24, 0x20	; 32
    749a:	90 e0       	ldi	r25, 0x00	; 0
    749c:	0e 94 77 3b 	call	0x76ee	; 0x76ee <fputc>
    74a0:	2a 94       	dec	r2
    74a2:	f4 cf       	rjmp	.-24     	; 0x748c <vfprintf+0x18c>
    74a4:	f5 01       	movw	r30, r10
    74a6:	37 fc       	sbrc	r3, 7
    74a8:	85 91       	lpm	r24, Z+
    74aa:	37 fe       	sbrs	r3, 7
    74ac:	81 91       	ld	r24, Z+
    74ae:	5f 01       	movw	r10, r30
    74b0:	b6 01       	movw	r22, r12
    74b2:	90 e0       	ldi	r25, 0x00	; 0
    74b4:	0e 94 77 3b 	call	0x76ee	; 0x76ee <fputc>
    74b8:	21 10       	cpse	r2, r1
    74ba:	2a 94       	dec	r2
    74bc:	21 e0       	ldi	r18, 0x01	; 1
    74be:	82 1a       	sub	r8, r18
    74c0:	91 08       	sbc	r9, r1
    74c2:	81 14       	cp	r8, r1
    74c4:	91 04       	cpc	r9, r1
    74c6:	71 f7       	brne	.-36     	; 0x74a4 <vfprintf+0x1a4>
    74c8:	e8 c0       	rjmp	.+464    	; 0x769a <vfprintf+0x39a>
    74ca:	84 36       	cpi	r24, 0x64	; 100
    74cc:	11 f0       	breq	.+4      	; 0x74d2 <vfprintf+0x1d2>
    74ce:	89 36       	cpi	r24, 0x69	; 105
    74d0:	41 f5       	brne	.+80     	; 0x7522 <vfprintf+0x222>
    74d2:	f8 01       	movw	r30, r16
    74d4:	37 fe       	sbrs	r3, 7
    74d6:	07 c0       	rjmp	.+14     	; 0x74e6 <vfprintf+0x1e6>
    74d8:	60 81       	ld	r22, Z
    74da:	71 81       	ldd	r23, Z+1	; 0x01
    74dc:	82 81       	ldd	r24, Z+2	; 0x02
    74de:	93 81       	ldd	r25, Z+3	; 0x03
    74e0:	0c 5f       	subi	r16, 0xFC	; 252
    74e2:	1f 4f       	sbci	r17, 0xFF	; 255
    74e4:	08 c0       	rjmp	.+16     	; 0x74f6 <vfprintf+0x1f6>
    74e6:	60 81       	ld	r22, Z
    74e8:	71 81       	ldd	r23, Z+1	; 0x01
    74ea:	07 2e       	mov	r0, r23
    74ec:	00 0c       	add	r0, r0
    74ee:	88 0b       	sbc	r24, r24
    74f0:	99 0b       	sbc	r25, r25
    74f2:	0e 5f       	subi	r16, 0xFE	; 254
    74f4:	1f 4f       	sbci	r17, 0xFF	; 255
    74f6:	f3 2d       	mov	r31, r3
    74f8:	ff 76       	andi	r31, 0x6F	; 111
    74fa:	3f 2e       	mov	r3, r31
    74fc:	97 ff       	sbrs	r25, 7
    74fe:	09 c0       	rjmp	.+18     	; 0x7512 <vfprintf+0x212>
    7500:	90 95       	com	r25
    7502:	80 95       	com	r24
    7504:	70 95       	com	r23
    7506:	61 95       	neg	r22
    7508:	7f 4f       	sbci	r23, 0xFF	; 255
    750a:	8f 4f       	sbci	r24, 0xFF	; 255
    750c:	9f 4f       	sbci	r25, 0xFF	; 255
    750e:	f0 68       	ori	r31, 0x80	; 128
    7510:	3f 2e       	mov	r3, r31
    7512:	2a e0       	ldi	r18, 0x0A	; 10
    7514:	30 e0       	ldi	r19, 0x00	; 0
    7516:	a3 01       	movw	r20, r6
    7518:	0e 94 b3 3b 	call	0x7766	; 0x7766 <__ultoa_invert>
    751c:	88 2e       	mov	r8, r24
    751e:	86 18       	sub	r8, r6
    7520:	45 c0       	rjmp	.+138    	; 0x75ac <vfprintf+0x2ac>
    7522:	85 37       	cpi	r24, 0x75	; 117
    7524:	31 f4       	brne	.+12     	; 0x7532 <vfprintf+0x232>
    7526:	23 2d       	mov	r18, r3
    7528:	2f 7e       	andi	r18, 0xEF	; 239
    752a:	b2 2e       	mov	r11, r18
    752c:	2a e0       	ldi	r18, 0x0A	; 10
    752e:	30 e0       	ldi	r19, 0x00	; 0
    7530:	25 c0       	rjmp	.+74     	; 0x757c <vfprintf+0x27c>
    7532:	93 2d       	mov	r25, r3
    7534:	99 7f       	andi	r25, 0xF9	; 249
    7536:	b9 2e       	mov	r11, r25
    7538:	8f 36       	cpi	r24, 0x6F	; 111
    753a:	c1 f0       	breq	.+48     	; 0x756c <vfprintf+0x26c>
    753c:	18 f4       	brcc	.+6      	; 0x7544 <vfprintf+0x244>
    753e:	88 35       	cpi	r24, 0x58	; 88
    7540:	79 f0       	breq	.+30     	; 0x7560 <vfprintf+0x260>
    7542:	b5 c0       	rjmp	.+362    	; 0x76ae <vfprintf+0x3ae>
    7544:	80 37       	cpi	r24, 0x70	; 112
    7546:	19 f0       	breq	.+6      	; 0x754e <vfprintf+0x24e>
    7548:	88 37       	cpi	r24, 0x78	; 120
    754a:	21 f0       	breq	.+8      	; 0x7554 <vfprintf+0x254>
    754c:	b0 c0       	rjmp	.+352    	; 0x76ae <vfprintf+0x3ae>
    754e:	e9 2f       	mov	r30, r25
    7550:	e0 61       	ori	r30, 0x10	; 16
    7552:	be 2e       	mov	r11, r30
    7554:	b4 fe       	sbrs	r11, 4
    7556:	0d c0       	rjmp	.+26     	; 0x7572 <vfprintf+0x272>
    7558:	fb 2d       	mov	r31, r11
    755a:	f4 60       	ori	r31, 0x04	; 4
    755c:	bf 2e       	mov	r11, r31
    755e:	09 c0       	rjmp	.+18     	; 0x7572 <vfprintf+0x272>
    7560:	34 fe       	sbrs	r3, 4
    7562:	0a c0       	rjmp	.+20     	; 0x7578 <vfprintf+0x278>
    7564:	29 2f       	mov	r18, r25
    7566:	26 60       	ori	r18, 0x06	; 6
    7568:	b2 2e       	mov	r11, r18
    756a:	06 c0       	rjmp	.+12     	; 0x7578 <vfprintf+0x278>
    756c:	28 e0       	ldi	r18, 0x08	; 8
    756e:	30 e0       	ldi	r19, 0x00	; 0
    7570:	05 c0       	rjmp	.+10     	; 0x757c <vfprintf+0x27c>
    7572:	20 e1       	ldi	r18, 0x10	; 16
    7574:	30 e0       	ldi	r19, 0x00	; 0
    7576:	02 c0       	rjmp	.+4      	; 0x757c <vfprintf+0x27c>
    7578:	20 e1       	ldi	r18, 0x10	; 16
    757a:	32 e0       	ldi	r19, 0x02	; 2
    757c:	f8 01       	movw	r30, r16
    757e:	b7 fe       	sbrs	r11, 7
    7580:	07 c0       	rjmp	.+14     	; 0x7590 <vfprintf+0x290>
    7582:	60 81       	ld	r22, Z
    7584:	71 81       	ldd	r23, Z+1	; 0x01
    7586:	82 81       	ldd	r24, Z+2	; 0x02
    7588:	93 81       	ldd	r25, Z+3	; 0x03
    758a:	0c 5f       	subi	r16, 0xFC	; 252
    758c:	1f 4f       	sbci	r17, 0xFF	; 255
    758e:	06 c0       	rjmp	.+12     	; 0x759c <vfprintf+0x29c>
    7590:	60 81       	ld	r22, Z
    7592:	71 81       	ldd	r23, Z+1	; 0x01
    7594:	80 e0       	ldi	r24, 0x00	; 0
    7596:	90 e0       	ldi	r25, 0x00	; 0
    7598:	0e 5f       	subi	r16, 0xFE	; 254
    759a:	1f 4f       	sbci	r17, 0xFF	; 255
    759c:	a3 01       	movw	r20, r6
    759e:	0e 94 b3 3b 	call	0x7766	; 0x7766 <__ultoa_invert>
    75a2:	88 2e       	mov	r8, r24
    75a4:	86 18       	sub	r8, r6
    75a6:	fb 2d       	mov	r31, r11
    75a8:	ff 77       	andi	r31, 0x7F	; 127
    75aa:	3f 2e       	mov	r3, r31
    75ac:	36 fe       	sbrs	r3, 6
    75ae:	0d c0       	rjmp	.+26     	; 0x75ca <vfprintf+0x2ca>
    75b0:	23 2d       	mov	r18, r3
    75b2:	2e 7f       	andi	r18, 0xFE	; 254
    75b4:	a2 2e       	mov	r10, r18
    75b6:	89 14       	cp	r8, r9
    75b8:	58 f4       	brcc	.+22     	; 0x75d0 <vfprintf+0x2d0>
    75ba:	34 fe       	sbrs	r3, 4
    75bc:	0b c0       	rjmp	.+22     	; 0x75d4 <vfprintf+0x2d4>
    75be:	32 fc       	sbrc	r3, 2
    75c0:	09 c0       	rjmp	.+18     	; 0x75d4 <vfprintf+0x2d4>
    75c2:	83 2d       	mov	r24, r3
    75c4:	8e 7e       	andi	r24, 0xEE	; 238
    75c6:	a8 2e       	mov	r10, r24
    75c8:	05 c0       	rjmp	.+10     	; 0x75d4 <vfprintf+0x2d4>
    75ca:	b8 2c       	mov	r11, r8
    75cc:	a3 2c       	mov	r10, r3
    75ce:	03 c0       	rjmp	.+6      	; 0x75d6 <vfprintf+0x2d6>
    75d0:	b8 2c       	mov	r11, r8
    75d2:	01 c0       	rjmp	.+2      	; 0x75d6 <vfprintf+0x2d6>
    75d4:	b9 2c       	mov	r11, r9
    75d6:	a4 fe       	sbrs	r10, 4
    75d8:	0f c0       	rjmp	.+30     	; 0x75f8 <vfprintf+0x2f8>
    75da:	fe 01       	movw	r30, r28
    75dc:	e8 0d       	add	r30, r8
    75de:	f1 1d       	adc	r31, r1
    75e0:	80 81       	ld	r24, Z
    75e2:	80 33       	cpi	r24, 0x30	; 48
    75e4:	21 f4       	brne	.+8      	; 0x75ee <vfprintf+0x2ee>
    75e6:	9a 2d       	mov	r25, r10
    75e8:	99 7e       	andi	r25, 0xE9	; 233
    75ea:	a9 2e       	mov	r10, r25
    75ec:	09 c0       	rjmp	.+18     	; 0x7600 <vfprintf+0x300>
    75ee:	a2 fe       	sbrs	r10, 2
    75f0:	06 c0       	rjmp	.+12     	; 0x75fe <vfprintf+0x2fe>
    75f2:	b3 94       	inc	r11
    75f4:	b3 94       	inc	r11
    75f6:	04 c0       	rjmp	.+8      	; 0x7600 <vfprintf+0x300>
    75f8:	8a 2d       	mov	r24, r10
    75fa:	86 78       	andi	r24, 0x86	; 134
    75fc:	09 f0       	breq	.+2      	; 0x7600 <vfprintf+0x300>
    75fe:	b3 94       	inc	r11
    7600:	a3 fc       	sbrc	r10, 3
    7602:	11 c0       	rjmp	.+34     	; 0x7626 <vfprintf+0x326>
    7604:	a0 fe       	sbrs	r10, 0
    7606:	06 c0       	rjmp	.+12     	; 0x7614 <vfprintf+0x314>
    7608:	b2 14       	cp	r11, r2
    760a:	88 f4       	brcc	.+34     	; 0x762e <vfprintf+0x32e>
    760c:	28 0c       	add	r2, r8
    760e:	92 2c       	mov	r9, r2
    7610:	9b 18       	sub	r9, r11
    7612:	0e c0       	rjmp	.+28     	; 0x7630 <vfprintf+0x330>
    7614:	b2 14       	cp	r11, r2
    7616:	60 f4       	brcc	.+24     	; 0x7630 <vfprintf+0x330>
    7618:	b6 01       	movw	r22, r12
    761a:	80 e2       	ldi	r24, 0x20	; 32
    761c:	90 e0       	ldi	r25, 0x00	; 0
    761e:	0e 94 77 3b 	call	0x76ee	; 0x76ee <fputc>
    7622:	b3 94       	inc	r11
    7624:	f7 cf       	rjmp	.-18     	; 0x7614 <vfprintf+0x314>
    7626:	b2 14       	cp	r11, r2
    7628:	18 f4       	brcc	.+6      	; 0x7630 <vfprintf+0x330>
    762a:	2b 18       	sub	r2, r11
    762c:	02 c0       	rjmp	.+4      	; 0x7632 <vfprintf+0x332>
    762e:	98 2c       	mov	r9, r8
    7630:	21 2c       	mov	r2, r1
    7632:	a4 fe       	sbrs	r10, 4
    7634:	10 c0       	rjmp	.+32     	; 0x7656 <vfprintf+0x356>
    7636:	b6 01       	movw	r22, r12
    7638:	80 e3       	ldi	r24, 0x30	; 48
    763a:	90 e0       	ldi	r25, 0x00	; 0
    763c:	0e 94 77 3b 	call	0x76ee	; 0x76ee <fputc>
    7640:	a2 fe       	sbrs	r10, 2
    7642:	17 c0       	rjmp	.+46     	; 0x7672 <vfprintf+0x372>
    7644:	a1 fc       	sbrc	r10, 1
    7646:	03 c0       	rjmp	.+6      	; 0x764e <vfprintf+0x34e>
    7648:	88 e7       	ldi	r24, 0x78	; 120
    764a:	90 e0       	ldi	r25, 0x00	; 0
    764c:	02 c0       	rjmp	.+4      	; 0x7652 <vfprintf+0x352>
    764e:	88 e5       	ldi	r24, 0x58	; 88
    7650:	90 e0       	ldi	r25, 0x00	; 0
    7652:	b6 01       	movw	r22, r12
    7654:	0c c0       	rjmp	.+24     	; 0x766e <vfprintf+0x36e>
    7656:	8a 2d       	mov	r24, r10
    7658:	86 78       	andi	r24, 0x86	; 134
    765a:	59 f0       	breq	.+22     	; 0x7672 <vfprintf+0x372>
    765c:	a1 fe       	sbrs	r10, 1
    765e:	02 c0       	rjmp	.+4      	; 0x7664 <vfprintf+0x364>
    7660:	8b e2       	ldi	r24, 0x2B	; 43
    7662:	01 c0       	rjmp	.+2      	; 0x7666 <vfprintf+0x366>
    7664:	80 e2       	ldi	r24, 0x20	; 32
    7666:	a7 fc       	sbrc	r10, 7
    7668:	8d e2       	ldi	r24, 0x2D	; 45
    766a:	b6 01       	movw	r22, r12
    766c:	90 e0       	ldi	r25, 0x00	; 0
    766e:	0e 94 77 3b 	call	0x76ee	; 0x76ee <fputc>
    7672:	89 14       	cp	r8, r9
    7674:	38 f4       	brcc	.+14     	; 0x7684 <vfprintf+0x384>
    7676:	b6 01       	movw	r22, r12
    7678:	80 e3       	ldi	r24, 0x30	; 48
    767a:	90 e0       	ldi	r25, 0x00	; 0
    767c:	0e 94 77 3b 	call	0x76ee	; 0x76ee <fputc>
    7680:	9a 94       	dec	r9
    7682:	f7 cf       	rjmp	.-18     	; 0x7672 <vfprintf+0x372>
    7684:	8a 94       	dec	r8
    7686:	f3 01       	movw	r30, r6
    7688:	e8 0d       	add	r30, r8
    768a:	f1 1d       	adc	r31, r1
    768c:	80 81       	ld	r24, Z
    768e:	b6 01       	movw	r22, r12
    7690:	90 e0       	ldi	r25, 0x00	; 0
    7692:	0e 94 77 3b 	call	0x76ee	; 0x76ee <fputc>
    7696:	81 10       	cpse	r8, r1
    7698:	f5 cf       	rjmp	.-22     	; 0x7684 <vfprintf+0x384>
    769a:	22 20       	and	r2, r2
    769c:	09 f4       	brne	.+2      	; 0x76a0 <vfprintf+0x3a0>
    769e:	42 ce       	rjmp	.-892    	; 0x7324 <vfprintf+0x24>
    76a0:	b6 01       	movw	r22, r12
    76a2:	80 e2       	ldi	r24, 0x20	; 32
    76a4:	90 e0       	ldi	r25, 0x00	; 0
    76a6:	0e 94 77 3b 	call	0x76ee	; 0x76ee <fputc>
    76aa:	2a 94       	dec	r2
    76ac:	f6 cf       	rjmp	.-20     	; 0x769a <vfprintf+0x39a>
    76ae:	f6 01       	movw	r30, r12
    76b0:	86 81       	ldd	r24, Z+6	; 0x06
    76b2:	97 81       	ldd	r25, Z+7	; 0x07
    76b4:	02 c0       	rjmp	.+4      	; 0x76ba <vfprintf+0x3ba>
    76b6:	8f ef       	ldi	r24, 0xFF	; 255
    76b8:	9f ef       	ldi	r25, 0xFF	; 255
    76ba:	2b 96       	adiw	r28, 0x0b	; 11
    76bc:	e2 e1       	ldi	r30, 0x12	; 18
    76be:	0c 94 2a 3c 	jmp	0x7854	; 0x7854 <__epilogue_restores__>

000076c2 <strnlen_P>:
    76c2:	fc 01       	movw	r30, r24
    76c4:	05 90       	lpm	r0, Z+
    76c6:	61 50       	subi	r22, 0x01	; 1
    76c8:	70 40       	sbci	r23, 0x00	; 0
    76ca:	01 10       	cpse	r0, r1
    76cc:	d8 f7       	brcc	.-10     	; 0x76c4 <strnlen_P+0x2>
    76ce:	80 95       	com	r24
    76d0:	90 95       	com	r25
    76d2:	8e 0f       	add	r24, r30
    76d4:	9f 1f       	adc	r25, r31
    76d6:	08 95       	ret

000076d8 <strnlen>:
    76d8:	fc 01       	movw	r30, r24
    76da:	61 50       	subi	r22, 0x01	; 1
    76dc:	70 40       	sbci	r23, 0x00	; 0
    76de:	01 90       	ld	r0, Z+
    76e0:	01 10       	cpse	r0, r1
    76e2:	d8 f7       	brcc	.-10     	; 0x76da <strnlen+0x2>
    76e4:	80 95       	com	r24
    76e6:	90 95       	com	r25
    76e8:	8e 0f       	add	r24, r30
    76ea:	9f 1f       	adc	r25, r31
    76ec:	08 95       	ret

000076ee <fputc>:
    76ee:	0f 93       	push	r16
    76f0:	1f 93       	push	r17
    76f2:	cf 93       	push	r28
    76f4:	df 93       	push	r29
    76f6:	fb 01       	movw	r30, r22
    76f8:	23 81       	ldd	r18, Z+3	; 0x03
    76fa:	21 fd       	sbrc	r18, 1
    76fc:	03 c0       	rjmp	.+6      	; 0x7704 <fputc+0x16>
    76fe:	8f ef       	ldi	r24, 0xFF	; 255
    7700:	9f ef       	ldi	r25, 0xFF	; 255
    7702:	2c c0       	rjmp	.+88     	; 0x775c <fputc+0x6e>
    7704:	22 ff       	sbrs	r18, 2
    7706:	16 c0       	rjmp	.+44     	; 0x7734 <fputc+0x46>
    7708:	46 81       	ldd	r20, Z+6	; 0x06
    770a:	57 81       	ldd	r21, Z+7	; 0x07
    770c:	24 81       	ldd	r18, Z+4	; 0x04
    770e:	35 81       	ldd	r19, Z+5	; 0x05
    7710:	42 17       	cp	r20, r18
    7712:	53 07       	cpc	r21, r19
    7714:	44 f4       	brge	.+16     	; 0x7726 <fputc+0x38>
    7716:	a0 81       	ld	r26, Z
    7718:	b1 81       	ldd	r27, Z+1	; 0x01
    771a:	9d 01       	movw	r18, r26
    771c:	2f 5f       	subi	r18, 0xFF	; 255
    771e:	3f 4f       	sbci	r19, 0xFF	; 255
    7720:	20 83       	st	Z, r18
    7722:	31 83       	std	Z+1, r19	; 0x01
    7724:	8c 93       	st	X, r24
    7726:	26 81       	ldd	r18, Z+6	; 0x06
    7728:	37 81       	ldd	r19, Z+7	; 0x07
    772a:	2f 5f       	subi	r18, 0xFF	; 255
    772c:	3f 4f       	sbci	r19, 0xFF	; 255
    772e:	26 83       	std	Z+6, r18	; 0x06
    7730:	37 83       	std	Z+7, r19	; 0x07
    7732:	14 c0       	rjmp	.+40     	; 0x775c <fputc+0x6e>
    7734:	8b 01       	movw	r16, r22
    7736:	ec 01       	movw	r28, r24
    7738:	fb 01       	movw	r30, r22
    773a:	00 84       	ldd	r0, Z+8	; 0x08
    773c:	f1 85       	ldd	r31, Z+9	; 0x09
    773e:	e0 2d       	mov	r30, r0
    7740:	09 95       	icall
    7742:	89 2b       	or	r24, r25
    7744:	e1 f6       	brne	.-72     	; 0x76fe <fputc+0x10>
    7746:	d8 01       	movw	r26, r16
    7748:	16 96       	adiw	r26, 0x06	; 6
    774a:	8d 91       	ld	r24, X+
    774c:	9c 91       	ld	r25, X
    774e:	17 97       	sbiw	r26, 0x07	; 7
    7750:	01 96       	adiw	r24, 0x01	; 1
    7752:	16 96       	adiw	r26, 0x06	; 6
    7754:	8d 93       	st	X+, r24
    7756:	9c 93       	st	X, r25
    7758:	17 97       	sbiw	r26, 0x07	; 7
    775a:	ce 01       	movw	r24, r28
    775c:	df 91       	pop	r29
    775e:	cf 91       	pop	r28
    7760:	1f 91       	pop	r17
    7762:	0f 91       	pop	r16
    7764:	08 95       	ret

00007766 <__ultoa_invert>:
    7766:	fa 01       	movw	r30, r20
    7768:	aa 27       	eor	r26, r26
    776a:	28 30       	cpi	r18, 0x08	; 8
    776c:	51 f1       	breq	.+84     	; 0x77c2 <__ultoa_invert+0x5c>
    776e:	20 31       	cpi	r18, 0x10	; 16
    7770:	81 f1       	breq	.+96     	; 0x77d2 <__ultoa_invert+0x6c>
    7772:	e8 94       	clt
    7774:	6f 93       	push	r22
    7776:	6e 7f       	andi	r22, 0xFE	; 254
    7778:	6e 5f       	subi	r22, 0xFE	; 254
    777a:	7f 4f       	sbci	r23, 0xFF	; 255
    777c:	8f 4f       	sbci	r24, 0xFF	; 255
    777e:	9f 4f       	sbci	r25, 0xFF	; 255
    7780:	af 4f       	sbci	r26, 0xFF	; 255
    7782:	b1 e0       	ldi	r27, 0x01	; 1
    7784:	3e d0       	rcall	.+124    	; 0x7802 <__ultoa_invert+0x9c>
    7786:	b4 e0       	ldi	r27, 0x04	; 4
    7788:	3c d0       	rcall	.+120    	; 0x7802 <__ultoa_invert+0x9c>
    778a:	67 0f       	add	r22, r23
    778c:	78 1f       	adc	r23, r24
    778e:	89 1f       	adc	r24, r25
    7790:	9a 1f       	adc	r25, r26
    7792:	a1 1d       	adc	r26, r1
    7794:	68 0f       	add	r22, r24
    7796:	79 1f       	adc	r23, r25
    7798:	8a 1f       	adc	r24, r26
    779a:	91 1d       	adc	r25, r1
    779c:	a1 1d       	adc	r26, r1
    779e:	6a 0f       	add	r22, r26
    77a0:	71 1d       	adc	r23, r1
    77a2:	81 1d       	adc	r24, r1
    77a4:	91 1d       	adc	r25, r1
    77a6:	a1 1d       	adc	r26, r1
    77a8:	20 d0       	rcall	.+64     	; 0x77ea <__ultoa_invert+0x84>
    77aa:	09 f4       	brne	.+2      	; 0x77ae <__ultoa_invert+0x48>
    77ac:	68 94       	set
    77ae:	3f 91       	pop	r19
    77b0:	2a e0       	ldi	r18, 0x0A	; 10
    77b2:	26 9f       	mul	r18, r22
    77b4:	11 24       	eor	r1, r1
    77b6:	30 19       	sub	r19, r0
    77b8:	30 5d       	subi	r19, 0xD0	; 208
    77ba:	31 93       	st	Z+, r19
    77bc:	de f6       	brtc	.-74     	; 0x7774 <__ultoa_invert+0xe>
    77be:	cf 01       	movw	r24, r30
    77c0:	08 95       	ret
    77c2:	46 2f       	mov	r20, r22
    77c4:	47 70       	andi	r20, 0x07	; 7
    77c6:	40 5d       	subi	r20, 0xD0	; 208
    77c8:	41 93       	st	Z+, r20
    77ca:	b3 e0       	ldi	r27, 0x03	; 3
    77cc:	0f d0       	rcall	.+30     	; 0x77ec <__ultoa_invert+0x86>
    77ce:	c9 f7       	brne	.-14     	; 0x77c2 <__ultoa_invert+0x5c>
    77d0:	f6 cf       	rjmp	.-20     	; 0x77be <__ultoa_invert+0x58>
    77d2:	46 2f       	mov	r20, r22
    77d4:	4f 70       	andi	r20, 0x0F	; 15
    77d6:	40 5d       	subi	r20, 0xD0	; 208
    77d8:	4a 33       	cpi	r20, 0x3A	; 58
    77da:	18 f0       	brcs	.+6      	; 0x77e2 <__ultoa_invert+0x7c>
    77dc:	49 5d       	subi	r20, 0xD9	; 217
    77de:	31 fd       	sbrc	r19, 1
    77e0:	40 52       	subi	r20, 0x20	; 32
    77e2:	41 93       	st	Z+, r20
    77e4:	02 d0       	rcall	.+4      	; 0x77ea <__ultoa_invert+0x84>
    77e6:	a9 f7       	brne	.-22     	; 0x77d2 <__ultoa_invert+0x6c>
    77e8:	ea cf       	rjmp	.-44     	; 0x77be <__ultoa_invert+0x58>
    77ea:	b4 e0       	ldi	r27, 0x04	; 4
    77ec:	a6 95       	lsr	r26
    77ee:	97 95       	ror	r25
    77f0:	87 95       	ror	r24
    77f2:	77 95       	ror	r23
    77f4:	67 95       	ror	r22
    77f6:	ba 95       	dec	r27
    77f8:	c9 f7       	brne	.-14     	; 0x77ec <__ultoa_invert+0x86>
    77fa:	00 97       	sbiw	r24, 0x00	; 0
    77fc:	61 05       	cpc	r22, r1
    77fe:	71 05       	cpc	r23, r1
    7800:	08 95       	ret
    7802:	9b 01       	movw	r18, r22
    7804:	ac 01       	movw	r20, r24
    7806:	0a 2e       	mov	r0, r26
    7808:	06 94       	lsr	r0
    780a:	57 95       	ror	r21
    780c:	47 95       	ror	r20
    780e:	37 95       	ror	r19
    7810:	27 95       	ror	r18
    7812:	ba 95       	dec	r27
    7814:	c9 f7       	brne	.-14     	; 0x7808 <__ultoa_invert+0xa2>
    7816:	62 0f       	add	r22, r18
    7818:	73 1f       	adc	r23, r19
    781a:	84 1f       	adc	r24, r20
    781c:	95 1f       	adc	r25, r21
    781e:	a0 1d       	adc	r26, r0
    7820:	08 95       	ret

00007822 <__prologue_saves__>:
    7822:	2f 92       	push	r2
    7824:	3f 92       	push	r3
    7826:	4f 92       	push	r4
    7828:	5f 92       	push	r5
    782a:	6f 92       	push	r6
    782c:	7f 92       	push	r7
    782e:	8f 92       	push	r8
    7830:	9f 92       	push	r9
    7832:	af 92       	push	r10
    7834:	bf 92       	push	r11
    7836:	cf 92       	push	r12
    7838:	df 92       	push	r13
    783a:	ef 92       	push	r14
    783c:	ff 92       	push	r15
    783e:	0f 93       	push	r16
    7840:	1f 93       	push	r17
    7842:	cf 93       	push	r28
    7844:	df 93       	push	r29
    7846:	cd b7       	in	r28, 0x3d	; 61
    7848:	de b7       	in	r29, 0x3e	; 62
    784a:	ca 1b       	sub	r28, r26
    784c:	db 0b       	sbc	r29, r27
    784e:	cd bf       	out	0x3d, r28	; 61
    7850:	de bf       	out	0x3e, r29	; 62
    7852:	09 94       	ijmp

00007854 <__epilogue_restores__>:
    7854:	2a 88       	ldd	r2, Y+18	; 0x12
    7856:	39 88       	ldd	r3, Y+17	; 0x11
    7858:	48 88       	ldd	r4, Y+16	; 0x10
    785a:	5f 84       	ldd	r5, Y+15	; 0x0f
    785c:	6e 84       	ldd	r6, Y+14	; 0x0e
    785e:	7d 84       	ldd	r7, Y+13	; 0x0d
    7860:	8c 84       	ldd	r8, Y+12	; 0x0c
    7862:	9b 84       	ldd	r9, Y+11	; 0x0b
    7864:	aa 84       	ldd	r10, Y+10	; 0x0a
    7866:	b9 84       	ldd	r11, Y+9	; 0x09
    7868:	c8 84       	ldd	r12, Y+8	; 0x08
    786a:	df 80       	ldd	r13, Y+7	; 0x07
    786c:	ee 80       	ldd	r14, Y+6	; 0x06
    786e:	fd 80       	ldd	r15, Y+5	; 0x05
    7870:	0c 81       	ldd	r16, Y+4	; 0x04
    7872:	1b 81       	ldd	r17, Y+3	; 0x03
    7874:	aa 81       	ldd	r26, Y+2	; 0x02
    7876:	b9 81       	ldd	r27, Y+1	; 0x01
    7878:	ce 0f       	add	r28, r30
    787a:	d1 1d       	adc	r29, r1
    787c:	cd bf       	out	0x3d, r28	; 61
    787e:	de bf       	out	0x3e, r29	; 62
    7880:	ed 01       	movw	r28, r26
    7882:	08 95       	ret

00007884 <_exit>:
    7884:	f8 94       	cli

00007886 <__stop_program>:
    7886:	ff cf       	rjmp	.-2      	; 0x7886 <__stop_program>
